
kernel.elf:     file format elf32-littlearm


Disassembly of section .text:

00008000 <_start>:
    8000:	e10f0000 	mrs	r0, CPSR
    8004:	e220001a 	eor	r0, r0, #26
    8008:	e310001f 	tst	r0, #31
    800c:	e3c0001f 	bic	r0, r0, #31
    8010:	e38000d3 	orr	r0, r0, #211	; 0xd3
    8014:	1a000004 	bne	802c <_start+0x2c>
    8018:	e3800c01 	orr	r0, r0, #256	; 0x100
    801c:	e28fe00c 	add	lr, pc, #12
    8020:	e16ff000 	msr	SPSR_fsxc, r0
    8024:	e12ef30e 	msr	ELR_hyp, lr
    8028:	e160006e 	eret
    802c:	e121f000 	msr	CPSR_c, r0
    8030:	f102001f 	cps	#31
    8034:	e3a0d98a 	mov	sp, #2260992	; 0x228000
    8038:	ea003d50 	b	17580 <sysinit>

0000803c <_start_secondary>:
    803c:	f57ff04f 	dsb	sy
    8040:	e320f003 	wfi
    8044:	eafffffd 	b	8040 <_start_secondary+0x4>

00008048 <init>:
    8048:	e92d4008 	push	{r3, lr}
    804c:	eb003fc0 	bl	17f54 <USPiEnvInitialize>
    8050:	e3500000 	cmp	r0, #0
    8054:	08bd8008 	popeq	{r3, pc}
    8058:	eb0001a2 	bl	86e8 <USPiInitialize>
    805c:	e3500000 	cmp	r0, #0
    8060:	1a000007 	bne	8084 <init+0x3c>
    8064:	e3090a0c 	movw	r0, #39436	; 0x9a0c
    8068:	e3400001 	movt	r0, #1
    806c:	e3a01001 	mov	r1, #1
    8070:	e3092a20 	movw	r2, #39456	; 0x9a20
    8074:	e3402001 	movt	r2, #1
    8078:	eb003f9d 	bl	17ef4 <LogWrite>
    807c:	eb003ff6 	bl	1805c <USPiEnvClose>
    8080:	e8bd8008 	pop	{r3, pc}
    8084:	eb00036f 	bl	8e48 <USPiEthernetAvailable>
    8088:	e3500000 	cmp	r0, #0
    808c:	18bd8008 	popne	{r3, pc}
    8090:	e3090a0c 	movw	r0, #39436	; 0x9a0c
    8094:	e3400001 	movt	r0, #1
    8098:	e3a01001 	mov	r1, #1
    809c:	e3092a38 	movw	r2, #39480	; 0x9a38
    80a0:	e3402001 	movt	r2, #1
    80a4:	eb003f92 	bl	17ef4 <LogWrite>
    80a8:	eb003feb 	bl	1805c <USPiEnvClose>
    80ac:	e8bd8008 	pop	{r3, pc}

000080b0 <ping>:
    80b0:	e92d43f0 	push	{r4, r5, r6, r7, r8, r9, lr}
    80b4:	e24dd02c 	sub	sp, sp, #44	; 0x2c
    80b8:	e1a09000 	mov	r9, r0
    80bc:	e3a05000 	mov	r5, #0
    80c0:	e5cd5018 	strb	r5, [sp, #24]
    80c4:	e5cd5019 	strb	r5, [sp, #25]
    80c8:	e5cd501a 	strb	r5, [sp, #26]
    80cc:	e5cd501b 	strb	r5, [sp, #27]
    80d0:	e5cd501c 	strb	r5, [sp, #28]
    80d4:	e5cd501d 	strb	r5, [sp, #29]
    80d8:	e3096a0c 	movw	r6, #39436	; 0x9a0c
    80dc:	e3406001 	movt	r6, #1
    80e0:	e1a03006 	mov	r3, r6
    80e4:	e5b30008 	ldr	r0, [r3, #8]!
    80e8:	e58d0010 	str	r0, [sp, #16]
    80ec:	e1d330b4 	ldrh	r3, [r3, #4]
    80f0:	e1cd31b4 	strh	r3, [sp, #20]
    80f4:	e28d0020 	add	r0, sp, #32
    80f8:	eb000365 	bl	8e94 <USPiGetMACAddress>
    80fc:	e3a0002a 	mov	r0, #42	; 0x2a
    8100:	eb0036d7 	bl	15c64 <malloc>
    8104:	e1a04000 	mov	r4, r0
    8108:	e3a02008 	mov	r2, #8
    810c:	e5c0200c 	strb	r2, [r0, #12]
    8110:	e3a03006 	mov	r3, #6
    8114:	e5c0300d 	strb	r3, [r0, #13]
    8118:	e5c0500e 	strb	r5, [r0, #14]
    811c:	e3a03001 	mov	r3, #1
    8120:	e5c0300f 	strb	r3, [r0, #15]
    8124:	e5c02010 	strb	r2, [r0, #16]
    8128:	e5c05011 	strb	r5, [r0, #17]
    812c:	e3a07006 	mov	r7, #6
    8130:	e5c07012 	strb	r7, [r0, #18]
    8134:	e3a08004 	mov	r8, #4
    8138:	e5c08013 	strb	r8, [r0, #19]
    813c:	e5c05014 	strb	r5, [r0, #20]
    8140:	e5c03015 	strb	r3, [r0, #21]
    8144:	e280001c 	add	r0, r0, #28
    8148:	e2861010 	add	r1, r6, #16
    814c:	e1a02008 	mov	r2, r8
    8150:	eb003fdb 	bl	180c4 <memcpy>
    8154:	e2840016 	add	r0, r4, #22
    8158:	e28d1020 	add	r1, sp, #32
    815c:	e1a02007 	mov	r2, r7
    8160:	eb003fd7 	bl	180c4 <memcpy>
    8164:	e2840026 	add	r0, r4, #38	; 0x26
    8168:	e1a01009 	mov	r1, r9
    816c:	e1a02008 	mov	r2, r8
    8170:	eb003fd3 	bl	180c4 <memcpy>
    8174:	e2840020 	add	r0, r4, #32
    8178:	e28d1018 	add	r1, sp, #24
    817c:	e1a02007 	mov	r2, r7
    8180:	eb003fcf 	bl	180c4 <memcpy>
    8184:	e0840007 	add	r0, r4, r7
    8188:	e28d1020 	add	r1, sp, #32
    818c:	e1a02007 	mov	r2, r7
    8190:	eb003fcb 	bl	180c4 <memcpy>
    8194:	e1a00004 	mov	r0, r4
    8198:	e28d1010 	add	r1, sp, #16
    819c:	e1a02007 	mov	r2, r7
    81a0:	eb003fc7 	bl	180c4 <memcpy>
    81a4:	e5d4301c 	ldrb	r3, [r4, #28]
    81a8:	e5d4201d 	ldrb	r2, [r4, #29]
    81ac:	e58d2000 	str	r2, [sp]
    81b0:	e5d4201e 	ldrb	r2, [r4, #30]
    81b4:	e58d2004 	str	r2, [sp, #4]
    81b8:	e5d4201f 	ldrb	r2, [r4, #31]
    81bc:	e58d2008 	str	r2, [sp, #8]
    81c0:	e1a00006 	mov	r0, r6
    81c4:	e3a01003 	mov	r1, #3
    81c8:	e3092a54 	movw	r2, #39508	; 0x9a54
    81cc:	e3402001 	movt	r2, #1
    81d0:	eb003f47 	bl	17ef4 <LogWrite>
    81d4:	e5d43026 	ldrb	r3, [r4, #38]	; 0x26
    81d8:	e5d42027 	ldrb	r2, [r4, #39]	; 0x27
    81dc:	e58d2000 	str	r2, [sp]
    81e0:	e5d42028 	ldrb	r2, [r4, #40]	; 0x28
    81e4:	e58d2004 	str	r2, [sp, #4]
    81e8:	e5d42029 	ldrb	r2, [r4, #41]	; 0x29
    81ec:	e58d2008 	str	r2, [sp, #8]
    81f0:	e1a00006 	mov	r0, r6
    81f4:	e3a01003 	mov	r1, #3
    81f8:	e3092a74 	movw	r2, #39540	; 0x9a74
    81fc:	e3402001 	movt	r2, #1
    8200:	eb003f3b 	bl	17ef4 <LogWrite>
    8204:	e1d420bc 	ldrh	r2, [r4, #12]
    8208:	e3003608 	movw	r3, #1544	; 0x608
    820c:	e1520003 	cmp	r2, r3
    8210:	1a00000b 	bne	8244 <ping+0x194>
    8214:	e1d430be 	ldrh	r3, [r4, #14]
    8218:	e3530c01 	cmp	r3, #256	; 0x100
    821c:	1a000008 	bne	8244 <ping+0x194>
    8220:	e1d431b0 	ldrh	r3, [r4, #16]
    8224:	e3530008 	cmp	r3, #8
    8228:	1a000005 	bne	8244 <ping+0x194>
    822c:	e5d43012 	ldrb	r3, [r4, #18]
    8230:	e1530007 	cmp	r3, r7
    8234:	1a000002 	bne	8244 <ping+0x194>
    8238:	e5d43013 	ldrb	r3, [r4, #19]
    823c:	e1530008 	cmp	r3, r8
    8240:	0a000005 	beq	825c <ping+0x1ac>
    8244:	e3090a0c 	movw	r0, #39436	; 0x9a0c
    8248:	e3400001 	movt	r0, #1
    824c:	e3a01001 	mov	r1, #1
    8250:	e3092a90 	movw	r2, #39568	; 0x9a90
    8254:	e3402001 	movt	r2, #1
    8258:	eb003f25 	bl	17ef4 <LogWrite>
    825c:	e1a00004 	mov	r0, r4
    8260:	e3a0102a 	mov	r1, #42	; 0x2a
    8264:	eb000335 	bl	8f40 <USPiSendFrame>
    8268:	e3500000 	cmp	r0, #0
    826c:	1a000005 	bne	8288 <ping+0x1d8>
    8270:	e3090a0c 	movw	r0, #39436	; 0x9a0c
    8274:	e3400001 	movt	r0, #1
    8278:	e3a01001 	mov	r1, #1
    827c:	e3092b24 	movw	r2, #39716	; 0x9b24
    8280:	e3402001 	movt	r2, #1
    8284:	eb003f1a 	bl	17ef4 <LogWrite>
    8288:	e1a00004 	mov	r0, r4
    828c:	eb0036d0 	bl	15dd4 <free>
    8290:	e28dd02c 	add	sp, sp, #44	; 0x2c
    8294:	e8bd83f0 	pop	{r4, r5, r6, r7, r8, r9, pc}

00008298 <receive>:
    8298:	e92d4010 	push	{r4, lr}
    829c:	e24dde65 	sub	sp, sp, #1616	; 0x650
    82a0:	e24dd008 	sub	sp, sp, #8
    82a4:	e28d0018 	add	r0, sp, #24
    82a8:	e2401004 	sub	r1, r0, #4
    82ac:	eb000347 	bl	8fd0 <USPiReceiveFrame>
    82b0:	e3500000 	cmp	r0, #0
    82b4:	0a000045 	beq	83d0 <receive+0x138>
    82b8:	e3090a0c 	movw	r0, #39436	; 0x9a0c
    82bc:	e3400001 	movt	r0, #1
    82c0:	e3a01003 	mov	r1, #3
    82c4:	e3092aa8 	movw	r2, #39592	; 0x9aa8
    82c8:	e3402001 	movt	r2, #1
    82cc:	e59d3014 	ldr	r3, [sp, #20]
    82d0:	eb003f07 	bl	17ef4 <LogWrite>
    82d4:	e59d3014 	ldr	r3, [sp, #20]
    82d8:	e3530029 	cmp	r3, #41	; 0x29
    82dc:	9a00003b 	bls	83d0 <receive+0x138>
    82e0:	e1dd22b4 	ldrh	r2, [sp, #36]	; 0x24
    82e4:	e3003608 	movw	r3, #1544	; 0x608
    82e8:	e1520003 	cmp	r2, r3
    82ec:	1a000037 	bne	83d0 <receive+0x138>
    82f0:	e1dd32b6 	ldrh	r3, [sp, #38]	; 0x26
    82f4:	e3530c01 	cmp	r3, #256	; 0x100
    82f8:	1a000034 	bne	83d0 <receive+0x138>
    82fc:	e1dd32b8 	ldrh	r3, [sp, #40]	; 0x28
    8300:	e3530008 	cmp	r3, #8
    8304:	1a000031 	bne	83d0 <receive+0x138>
    8308:	e5dd302a 	ldrb	r3, [sp, #42]	; 0x2a
    830c:	e3530006 	cmp	r3, #6
    8310:	1a00002e 	bne	83d0 <receive+0x138>
    8314:	e5dd302b 	ldrb	r3, [sp, #43]	; 0x2b
    8318:	e3530004 	cmp	r3, #4
    831c:	1a00002b 	bne	83d0 <receive+0x138>
    8320:	e1dd32bc 	ldrh	r3, [sp, #44]	; 0x2c
    8324:	e3530c02 	cmp	r3, #512	; 0x200
    8328:	1a000028 	bne	83d0 <receive+0x138>
    832c:	e3094a0c 	movw	r4, #39436	; 0x9a0c
    8330:	e3404001 	movt	r4, #1
    8334:	e5dd3034 	ldrb	r3, [sp, #52]	; 0x34
    8338:	e5dd2035 	ldrb	r2, [sp, #53]	; 0x35
    833c:	e58d2000 	str	r2, [sp]
    8340:	e5dd2036 	ldrb	r2, [sp, #54]	; 0x36
    8344:	e58d2004 	str	r2, [sp, #4]
    8348:	e5dd2037 	ldrb	r2, [sp, #55]	; 0x37
    834c:	e58d2008 	str	r2, [sp, #8]
    8350:	e1a00004 	mov	r0, r4
    8354:	e3a01003 	mov	r1, #3
    8358:	e3092ac4 	movw	r2, #39620	; 0x9ac4
    835c:	e3402001 	movt	r2, #1
    8360:	eb003ee3 	bl	17ef4 <LogWrite>
    8364:	e28d003e 	add	r0, sp, #62	; 0x3e
    8368:	e2841010 	add	r1, r4, #16
    836c:	e3a02004 	mov	r2, #4
    8370:	eb003f5c 	bl	180e8 <memcmp>
    8374:	e3500000 	cmp	r0, #0
    8378:	1a000014 	bne	83d0 <receive+0x138>
    837c:	e3094a0c 	movw	r4, #39436	; 0x9a0c
    8380:	e3404001 	movt	r4, #1
    8384:	e1a00004 	mov	r0, r4
    8388:	e3a01003 	mov	r1, #3
    838c:	e3092af4 	movw	r2, #39668	; 0x9af4
    8390:	e3402001 	movt	r2, #1
    8394:	eb003ed6 	bl	17ef4 <LogWrite>
    8398:	e5dd303e 	ldrb	r3, [sp, #62]	; 0x3e
    839c:	e5dd203f 	ldrb	r2, [sp, #63]	; 0x3f
    83a0:	e58d2000 	str	r2, [sp]
    83a4:	e5dd2040 	ldrb	r2, [sp, #64]	; 0x40
    83a8:	e58d2004 	str	r2, [sp, #4]
    83ac:	e5dd2041 	ldrb	r2, [sp, #65]	; 0x41
    83b0:	e58d2008 	str	r2, [sp, #8]
    83b4:	e1a00004 	mov	r0, r4
    83b8:	e3a01003 	mov	r1, #3
    83bc:	e3092b0c 	movw	r2, #39692	; 0x9b0c
    83c0:	e3402001 	movt	r2, #1
    83c4:	eb003eca 	bl	17ef4 <LogWrite>
    83c8:	e28d003e 	add	r0, sp, #62	; 0x3e
    83cc:	eaffffff 	b	83d0 <receive+0x138>
    83d0:	e28dde65 	add	sp, sp, #1616	; 0x650
    83d4:	e28dd008 	add	sp, sp, #8
    83d8:	e8bd8010 	pop	{r4, pc}

000083dc <prime>:
    83dc:	e3500002 	cmp	r0, #2
    83e0:	da00000f 	ble	8424 <prime+0x48>
    83e4:	e1a02fa0 	lsr	r2, r0, #31
    83e8:	e0803002 	add	r3, r0, r2
    83ec:	e2033001 	and	r3, r3, #1
    83f0:	e1530002 	cmp	r3, r2
    83f4:	0a00000c 	beq	842c <prime+0x50>
    83f8:	e3a03002 	mov	r3, #2
    83fc:	ea000003 	b	8410 <prime+0x34>
    8400:	e712f310 	sdiv	r2, r0, r3
    8404:	e0620293 	mls	r2, r3, r2, r0
    8408:	e3520000 	cmp	r2, #0
    840c:	0a000008 	beq	8434 <prime+0x58>
    8410:	e2833001 	add	r3, r3, #1
    8414:	e1530000 	cmp	r3, r0
    8418:	1afffff8 	bne	8400 <prime+0x24>
    841c:	e3a00001 	mov	r0, #1
    8420:	e12fff1e 	bx	lr
    8424:	e3a00001 	mov	r0, #1
    8428:	e12fff1e 	bx	lr
    842c:	e3a00000 	mov	r0, #0
    8430:	e12fff1e 	bx	lr
    8434:	e3a00000 	mov	r0, #0
    8438:	e12fff1e 	bx	lr

0000843c <prep>:
    843c:	e92d4030 	push	{r4, r5, lr}
    8440:	e24dd00c 	sub	sp, sp, #12
    8444:	e1a04000 	mov	r4, r0
    8448:	e1a0000d 	mov	r0, sp
    844c:	eb000290 	bl	8e94 <USPiGetMACAddress>
    8450:	e2845016 	add	r5, r4, #22
    8454:	e1a00004 	mov	r0, r4
    8458:	e1a01005 	mov	r1, r5
    845c:	e3a02006 	mov	r2, #6
    8460:	eb003f17 	bl	180c4 <memcpy>
    8464:	e2840006 	add	r0, r4, #6
    8468:	e1a0100d 	mov	r1, sp
    846c:	e3a02006 	mov	r2, #6
    8470:	eb003f13 	bl	180c4 <memcpy>
    8474:	e3a03000 	mov	r3, #0
    8478:	e5c43014 	strb	r3, [r4, #20]
    847c:	e3a03002 	mov	r3, #2
    8480:	e5c43015 	strb	r3, [r4, #21]
    8484:	e2840020 	add	r0, r4, #32
    8488:	e1a01005 	mov	r1, r5
    848c:	e3a02006 	mov	r2, #6
    8490:	eb003f0b 	bl	180c4 <memcpy>
    8494:	e2840026 	add	r0, r4, #38	; 0x26
    8498:	e284101c 	add	r1, r4, #28
    849c:	e3a02004 	mov	r2, #4
    84a0:	eb003f07 	bl	180c4 <memcpy>
    84a4:	e1a00005 	mov	r0, r5
    84a8:	e1a0100d 	mov	r1, sp
    84ac:	e3a02006 	mov	r2, #6
    84b0:	eb003f03 	bl	180c4 <memcpy>
    84b4:	e28dd00c 	add	sp, sp, #12
    84b8:	e8bd8030 	pop	{r4, r5, pc}

000084bc <send>:
    84bc:	e92d4010 	push	{r4, lr}
    84c0:	e1a04000 	mov	r4, r0
    84c4:	e280001c 	add	r0, r0, #28
    84c8:	e3a02004 	mov	r2, #4
    84cc:	eb003efc 	bl	180c4 <memcpy>
    84d0:	e1a00004 	mov	r0, r4
    84d4:	e3a0102a 	mov	r1, #42	; 0x2a
    84d8:	eb000298 	bl	8f40 <USPiSendFrame>
    84dc:	e3500000 	cmp	r0, #0
    84e0:	e3090a0c 	movw	r0, #39436	; 0x9a0c
    84e4:	e3400001 	movt	r0, #1
    84e8:	03a01001 	moveq	r1, #1
    84ec:	03092b20 	movweq	r2, #39712	; 0x9b20
    84f0:	03402001 	movteq	r2, #1
    84f4:	13a01003 	movne	r1, #3
    84f8:	13092b38 	movwne	r2, #39736	; 0x9b38
    84fc:	13402001 	movtne	r2, #1
    8500:	eb003e7b 	bl	17ef4 <LogWrite>
    8504:	e8bd8010 	pop	{r4, pc}

00008508 <main>:
    8508:	e92d40f0 	push	{r4, r5, r6, r7, lr}
    850c:	e24dde66 	sub	sp, sp, #1632	; 0x660
    8510:	e24dd00c 	sub	sp, sp, #12
    8514:	ebfffecb 	bl	8048 <init>
    8518:	e28d0e66 	add	r0, sp, #1632	; 0x660
    851c:	eb00025c 	bl	8e94 <USPiGetMACAddress>
    8520:	e3094a0c 	movw	r4, #39436	; 0x9a0c
    8524:	e3404001 	movt	r4, #1
    8528:	e2846010 	add	r6, r4, #16
    852c:	e28d0020 	add	r0, sp, #32
    8530:	e28d1018 	add	r1, sp, #24
    8534:	eb0002a5 	bl	8fd0 <USPiReceiveFrame>
    8538:	e3500000 	cmp	r0, #0
    853c:	0afffffa 	beq	852c <main+0x24>
    8540:	e1a00004 	mov	r0, r4
    8544:	e3a01003 	mov	r1, #3
    8548:	e3092aa8 	movw	r2, #39592	; 0x9aa8
    854c:	e3402001 	movt	r2, #1
    8550:	e59d3018 	ldr	r3, [sp, #24]
    8554:	eb003e66 	bl	17ef4 <LogWrite>
    8558:	e59d3018 	ldr	r3, [sp, #24]
    855c:	e3530029 	cmp	r3, #41	; 0x29
    8560:	9afffff1 	bls	852c <main+0x24>
    8564:	e1dd22bc 	ldrh	r2, [sp, #44]	; 0x2c
    8568:	e3003608 	movw	r3, #1544	; 0x608
    856c:	e1520003 	cmp	r2, r3
    8570:	1affffed 	bne	852c <main+0x24>
    8574:	e1dd32be 	ldrh	r3, [sp, #46]	; 0x2e
    8578:	e3530c01 	cmp	r3, #256	; 0x100
    857c:	1affffea 	bne	852c <main+0x24>
    8580:	e1dd33b0 	ldrh	r3, [sp, #48]	; 0x30
    8584:	e3530008 	cmp	r3, #8
    8588:	1affffe7 	bne	852c <main+0x24>
    858c:	e5dd3032 	ldrb	r3, [sp, #50]	; 0x32
    8590:	e3530006 	cmp	r3, #6
    8594:	1affffe4 	bne	852c <main+0x24>
    8598:	e5dd3033 	ldrb	r3, [sp, #51]	; 0x33
    859c:	e3530004 	cmp	r3, #4
    85a0:	1affffe1 	bne	852c <main+0x24>
    85a4:	e1dd33b4 	ldrh	r3, [sp, #52]	; 0x34
    85a8:	e3530c01 	cmp	r3, #256	; 0x100
    85ac:	1affffde 	bne	852c <main+0x24>
    85b0:	e5dd303c 	ldrb	r3, [sp, #60]	; 0x3c
    85b4:	e5dd203d 	ldrb	r2, [sp, #61]	; 0x3d
    85b8:	e58d2000 	str	r2, [sp]
    85bc:	e5dd203e 	ldrb	r2, [sp, #62]	; 0x3e
    85c0:	e58d2004 	str	r2, [sp, #4]
    85c4:	e5dd203f 	ldrb	r2, [sp, #63]	; 0x3f
    85c8:	e58d2008 	str	r2, [sp, #8]
    85cc:	e1a00004 	mov	r0, r4
    85d0:	e3a01003 	mov	r1, #3
    85d4:	e3092ac4 	movw	r2, #39620	; 0x9ac4
    85d8:	e3402001 	movt	r2, #1
    85dc:	eb003e44 	bl	17ef4 <LogWrite>
    85e0:	e5dd3020 	ldrb	r3, [sp, #32]
    85e4:	e5dd2021 	ldrb	r2, [sp, #33]	; 0x21
    85e8:	e58d2000 	str	r2, [sp]
    85ec:	e5dd2022 	ldrb	r2, [sp, #34]	; 0x22
    85f0:	e58d2004 	str	r2, [sp, #4]
    85f4:	e5dd2023 	ldrb	r2, [sp, #35]	; 0x23
    85f8:	e58d2008 	str	r2, [sp, #8]
    85fc:	e5dd2024 	ldrb	r2, [sp, #36]	; 0x24
    8600:	e58d200c 	str	r2, [sp, #12]
    8604:	e5dd2025 	ldrb	r2, [sp, #37]	; 0x25
    8608:	e58d2010 	str	r2, [sp, #16]
    860c:	e1a00004 	mov	r0, r4
    8610:	e3a01003 	mov	r1, #3
    8614:	e3092b54 	movw	r2, #39764	; 0x9b54
    8618:	e3402001 	movt	r2, #1
    861c:	eb003e34 	bl	17ef4 <LogWrite>
    8620:	e5dd3026 	ldrb	r3, [sp, #38]	; 0x26
    8624:	e5dd2027 	ldrb	r2, [sp, #39]	; 0x27
    8628:	e58d2000 	str	r2, [sp]
    862c:	e5dd2028 	ldrb	r2, [sp, #40]	; 0x28
    8630:	e58d2004 	str	r2, [sp, #4]
    8634:	e5dd2029 	ldrb	r2, [sp, #41]	; 0x29
    8638:	e58d2008 	str	r2, [sp, #8]
    863c:	e5dd202a 	ldrb	r2, [sp, #42]	; 0x2a
    8640:	e58d200c 	str	r2, [sp, #12]
    8644:	e5dd202b 	ldrb	r2, [sp, #43]	; 0x2b
    8648:	e58d2010 	str	r2, [sp, #16]
    864c:	e1a00004 	mov	r0, r4
    8650:	e3a01003 	mov	r1, #3
    8654:	e3092b8c 	movw	r2, #39820	; 0x9b8c
    8658:	e3402001 	movt	r2, #1
    865c:	eb003e24 	bl	17ef4 <LogWrite>
    8660:	e28d0046 	add	r0, sp, #70	; 0x46
    8664:	e1a01006 	mov	r1, r6
    8668:	e3a02004 	mov	r2, #4
    866c:	eb003e9d 	bl	180e8 <memcmp>
    8670:	e3500000 	cmp	r0, #0
    8674:	1affffac 	bne	852c <main+0x24>
    8678:	e1a00004 	mov	r0, r4
    867c:	e3a01003 	mov	r1, #3
    8680:	e3092af4 	movw	r2, #39668	; 0x9af4
    8684:	e3402001 	movt	r2, #1
    8688:	eb003e19 	bl	17ef4 <LogWrite>
    868c:	e3a03000 	mov	r3, #0
    8690:	e5cd301c 	strb	r3, [sp, #28]
    8694:	e5cd301d 	strb	r3, [sp, #29]
    8698:	e5cd301e 	strb	r3, [sp, #30]
    869c:	e5cd301f 	strb	r3, [sp, #31]
    86a0:	e28d0020 	add	r0, sp, #32
    86a4:	ebffff64 	bl	843c <prep>
    86a8:	e3a050fa 	mov	r5, #250	; 0xfa
    86ac:	e3e07005 	mvn	r7, #5
    86b0:	e1a00005 	mov	r0, r5
    86b4:	ebffff48 	bl	83dc <prime>
    86b8:	e3500000 	cmp	r0, #0
    86bc:	0a000005 	beq	86d8 <main+0x1d0>
    86c0:	e5cd701e 	strb	r7, [sp, #30]
    86c4:	e2853006 	add	r3, r5, #6
    86c8:	e5cd301f 	strb	r3, [sp, #31]
    86cc:	e28d0020 	add	r0, sp, #32
    86d0:	e28d101c 	add	r1, sp, #28
    86d4:	ebffff78 	bl	84bc <send>
    86d8:	e2855001 	add	r5, r5, #1
    86dc:	e3550f7d 	cmp	r5, #500	; 0x1f4
    86e0:	1afffff2 	bne	86b0 <main+0x1a8>
    86e4:	eaffff90 	b	852c <main+0x24>

000086e8 <USPiInitialize>:
    86e8:	e92d43f0 	push	{r4, r5, r6, r7, r8, r9, lr}
    86ec:	e24dd014 	sub	sp, sp, #20
    86f0:	e30c3638 	movw	r3, #50744	; 0xc638
    86f4:	e3403001 	movt	r3, #1
    86f8:	e5933000 	ldr	r3, [r3]
    86fc:	e3530000 	cmp	r3, #0
    8700:	0a000005 	beq	871c <USPiInitialize+0x34>
    8704:	e3090bc8 	movw	r0, #39880	; 0x9bc8
    8708:	e3400001 	movt	r0, #1
    870c:	e3091bd8 	movw	r1, #39896	; 0x9bd8
    8710:	e3401001 	movt	r1, #1
    8714:	e3a02022 	mov	r2, #34	; 0x22
    8718:	eb003e07 	bl	17f3c <uspi_assertion_failed>
    871c:	e3a00084 	mov	r0, #132	; 0x84
    8720:	eb00354f 	bl	15c64 <malloc>
    8724:	e30c3638 	movw	r3, #50744	; 0xc638
    8728:	e3403001 	movt	r3, #1
    872c:	e5830000 	str	r0, [r3]
    8730:	e3500000 	cmp	r0, #0
    8734:	1a000005 	bne	8750 <USPiInitialize+0x68>
    8738:	e3090be8 	movw	r0, #39912	; 0x9be8
    873c:	e3400001 	movt	r0, #1
    8740:	e3091bd8 	movw	r1, #39896	; 0x9bd8
    8744:	e3401001 	movt	r1, #1
    8748:	e3a02024 	mov	r2, #36	; 0x24
    874c:	eb003dfa 	bl	17f3c <uspi_assertion_failed>
    8750:	e30c4638 	movw	r4, #50744	; 0xc638
    8754:	e3404001 	movt	r4, #1
    8758:	e5940000 	ldr	r0, [r4]
    875c:	eb001782 	bl	e56c <DeviceNameService>
    8760:	e5940000 	ldr	r0, [r4]
    8764:	e2800004 	add	r0, r0, #4
    8768:	eb000317 	bl	93cc <DWHCIDevice>
    876c:	e5940000 	ldr	r0, [r4]
    8770:	e3a03000 	mov	r3, #0
    8774:	e5803070 	str	r3, [r0, #112]	; 0x70
    8778:	e2800004 	add	r0, r0, #4
    877c:	eb000b77 	bl	b560 <DWHCIDeviceInitialize>
    8780:	e2505000 	subs	r5, r0, #0
    8784:	1a000011 	bne	87d0 <USPiInitialize+0xe8>
    8788:	e3090bc0 	movw	r0, #39872	; 0x9bc0
    878c:	e3400001 	movt	r0, #1
    8790:	e3a01001 	mov	r1, #1
    8794:	e3092bf8 	movw	r2, #39928	; 0x9bf8
    8798:	e3402001 	movt	r2, #1
    879c:	eb003dd4 	bl	17ef4 <LogWrite>
    87a0:	e30c4638 	movw	r4, #50744	; 0xc638
    87a4:	e3404001 	movt	r4, #1
    87a8:	e5940000 	ldr	r0, [r4]
    87ac:	e2800004 	add	r0, r0, #4
    87b0:	eb00031c 	bl	9428 <_DWHCIDevice>
    87b4:	e5940000 	ldr	r0, [r4]
    87b8:	eb001785 	bl	e5d4 <_DeviceNameService>
    87bc:	e5940000 	ldr	r0, [r4]
    87c0:	eb003583 	bl	15dd4 <free>
    87c4:	e3a03000 	mov	r3, #0
    87c8:	e5843000 	str	r3, [r4]
    87cc:	ea000057 	b	8930 <USPiInitialize+0x248>
    87d0:	e30c4638 	movw	r4, #50744	; 0xc638
    87d4:	e3404001 	movt	r4, #1
    87d8:	e5945000 	ldr	r5, [r4]
    87dc:	eb001820 	bl	e864 <DeviceNameServiceGet>
    87e0:	e3091c28 	movw	r1, #39976	; 0x9c28
    87e4:	e3401001 	movt	r1, #1
    87e8:	e3a02000 	mov	r2, #0
    87ec:	eb0017e0 	bl	e774 <DeviceNameServiceGetDevice>
    87f0:	e5850058 	str	r0, [r5, #88]	; 0x58
    87f4:	e5944000 	ldr	r4, [r4]
    87f8:	eb001819 	bl	e864 <DeviceNameServiceGet>
    87fc:	e3091c30 	movw	r1, #39984	; 0x9c30
    8800:	e3401001 	movt	r1, #1
    8804:	e3a02000 	mov	r2, #0
    8808:	eb0017d9 	bl	e774 <DeviceNameServiceGetDevice>
    880c:	e584005c 	str	r0, [r4, #92]	; 0x5c
    8810:	e3a04000 	mov	r4, #0
    8814:	e3099c38 	movw	r9, #39992	; 0x9c38
    8818:	e3409001 	movt	r9, #1
    881c:	e30c8638 	movw	r8, #50744	; 0xc638
    8820:	e3408001 	movt	r8, #1
    8824:	e28d0004 	add	r0, sp, #4
    8828:	eb001be0 	bl	f7b0 <String>
    882c:	e2845001 	add	r5, r4, #1
    8830:	e28d0004 	add	r0, sp, #4
    8834:	e1a01009 	mov	r1, r9
    8838:	e1a02005 	mov	r2, r5
    883c:	eb001e6b 	bl	101f0 <StringFormat>
    8840:	e5986000 	ldr	r6, [r8]
    8844:	eb001806 	bl	e864 <DeviceNameServiceGet>
    8848:	e1a07000 	mov	r7, r0
    884c:	e28d0004 	add	r0, sp, #4
    8850:	eb001c06 	bl	f870 <StringGet>
    8854:	e1a01000 	mov	r1, r0
    8858:	e1a00007 	mov	r0, r7
    885c:	e3a02001 	mov	r2, #1
    8860:	eb0017c3 	bl	e774 <DeviceNameServiceGetDevice>
    8864:	e2844018 	add	r4, r4, #24
    8868:	e7860104 	str	r0, [r6, r4, lsl #2]
    886c:	e28d0004 	add	r0, sp, #4
    8870:	eb001bee 	bl	f830 <_String>
    8874:	e1a04005 	mov	r4, r5
    8878:	e3550004 	cmp	r5, #4
    887c:	1affffe8 	bne	8824 <USPiInitialize+0x13c>
    8880:	e30c3638 	movw	r3, #50744	; 0xc638
    8884:	e3403001 	movt	r3, #1
    8888:	e5934000 	ldr	r4, [r3]
    888c:	eb0017f4 	bl	e864 <DeviceNameServiceGet>
    8890:	e3091c40 	movw	r1, #40000	; 0x9c40
    8894:	e3401001 	movt	r1, #1
    8898:	e3a02000 	mov	r2, #0
    889c:	eb0017b4 	bl	e774 <DeviceNameServiceGetDevice>
    88a0:	e5840070 	str	r0, [r4, #112]	; 0x70
    88a4:	e3a06000 	mov	r6, #0
    88a8:	e3099c48 	movw	r9, #40008	; 0x9c48
    88ac:	e3409001 	movt	r9, #1
    88b0:	e30c8638 	movw	r8, #50744	; 0xc638
    88b4:	e3408001 	movt	r8, #1
    88b8:	e28d0004 	add	r0, sp, #4
    88bc:	eb001bbb 	bl	f7b0 <String>
    88c0:	e2864001 	add	r4, r6, #1
    88c4:	e28d0004 	add	r0, sp, #4
    88c8:	e1a01009 	mov	r1, r9
    88cc:	e1a02004 	mov	r2, r4
    88d0:	eb001e46 	bl	101f0 <StringFormat>
    88d4:	e5985000 	ldr	r5, [r8]
    88d8:	eb0017e1 	bl	e864 <DeviceNameServiceGet>
    88dc:	e1a07000 	mov	r7, r0
    88e0:	e28d0004 	add	r0, sp, #4
    88e4:	eb001be1 	bl	f870 <StringGet>
    88e8:	e1a01000 	mov	r1, r0
    88ec:	e1a00007 	mov	r0, r7
    88f0:	e3a02000 	mov	r2, #0
    88f4:	eb00179e 	bl	e774 <DeviceNameServiceGetDevice>
    88f8:	e0855106 	add	r5, r5, r6, lsl #2
    88fc:	e5850074 	str	r0, [r5, #116]	; 0x74
    8900:	e28d0004 	add	r0, sp, #4
    8904:	eb001bc9 	bl	f830 <_String>
    8908:	e1a06004 	mov	r6, r4
    890c:	e3540004 	cmp	r4, #4
    8910:	1affffe8 	bne	88b8 <USPiInitialize+0x1d0>
    8914:	e3090bc0 	movw	r0, #39872	; 0x9bc0
    8918:	e3400001 	movt	r0, #1
    891c:	e3a01004 	mov	r1, #4
    8920:	e3092c50 	movw	r2, #40016	; 0x9c50
    8924:	e3402001 	movt	r2, #1
    8928:	eb003d71 	bl	17ef4 <LogWrite>
    892c:	e3a05001 	mov	r5, #1
    8930:	e1a00005 	mov	r0, r5
    8934:	e28dd014 	add	sp, sp, #20
    8938:	e8bd83f0 	pop	{r4, r5, r6, r7, r8, r9, pc}

0000893c <USPiKeyboardAvailable>:
    893c:	e92d4008 	push	{r3, lr}
    8940:	e30c3638 	movw	r3, #50744	; 0xc638
    8944:	e3403001 	movt	r3, #1
    8948:	e5933000 	ldr	r3, [r3]
    894c:	e3530000 	cmp	r3, #0
    8950:	1a000005 	bne	896c <USPiKeyboardAvailable+0x30>
    8954:	e3090be8 	movw	r0, #39912	; 0x9be8
    8958:	e3400001 	movt	r0, #1
    895c:	e3091bd8 	movw	r1, #39896	; 0x9bd8
    8960:	e3401001 	movt	r1, #1
    8964:	e3a0205b 	mov	r2, #91	; 0x5b
    8968:	eb003d73 	bl	17f3c <uspi_assertion_failed>
    896c:	e30c3638 	movw	r3, #50744	; 0xc638
    8970:	e3403001 	movt	r3, #1
    8974:	e5933000 	ldr	r3, [r3]
    8978:	e5930058 	ldr	r0, [r3, #88]	; 0x58
    897c:	e2900000 	adds	r0, r0, #0
    8980:	13a00001 	movne	r0, #1
    8984:	e8bd8008 	pop	{r3, pc}

00008988 <USPiKeyboardRegisterKeyPressedHandler>:
    8988:	e92d4010 	push	{r4, lr}
    898c:	e1a04000 	mov	r4, r0
    8990:	e30c3638 	movw	r3, #50744	; 0xc638
    8994:	e3403001 	movt	r3, #1
    8998:	e5933000 	ldr	r3, [r3]
    899c:	e3530000 	cmp	r3, #0
    89a0:	1a000005 	bne	89bc <USPiKeyboardRegisterKeyPressedHandler+0x34>
    89a4:	e3090be8 	movw	r0, #39912	; 0x9be8
    89a8:	e3400001 	movt	r0, #1
    89ac:	e3091bd8 	movw	r1, #39896	; 0x9bd8
    89b0:	e3401001 	movt	r1, #1
    89b4:	e3a02061 	mov	r2, #97	; 0x61
    89b8:	eb003d5f 	bl	17f3c <uspi_assertion_failed>
    89bc:	e30c3638 	movw	r3, #50744	; 0xc638
    89c0:	e3403001 	movt	r3, #1
    89c4:	e5933000 	ldr	r3, [r3]
    89c8:	e5933058 	ldr	r3, [r3, #88]	; 0x58
    89cc:	e3530000 	cmp	r3, #0
    89d0:	1a000005 	bne	89ec <USPiKeyboardRegisterKeyPressedHandler+0x64>
    89d4:	e3090c78 	movw	r0, #40056	; 0x9c78
    89d8:	e3400001 	movt	r0, #1
    89dc:	e3091bd8 	movw	r1, #39896	; 0x9bd8
    89e0:	e3401001 	movt	r1, #1
    89e4:	e3a02062 	mov	r2, #98	; 0x62
    89e8:	eb003d53 	bl	17f3c <uspi_assertion_failed>
    89ec:	e30c3638 	movw	r3, #50744	; 0xc638
    89f0:	e3403001 	movt	r3, #1
    89f4:	e5933000 	ldr	r3, [r3]
    89f8:	e5930058 	ldr	r0, [r3, #88]	; 0x58
    89fc:	e1a01004 	mov	r1, r4
    8a00:	eb0025ac 	bl	120b8 <USBKeyboardDeviceRegisterKeyPressedHandler>
    8a04:	e8bd8010 	pop	{r4, pc}

00008a08 <USPiKeyboardRegisterShutdownHandler>:
    8a08:	e92d4010 	push	{r4, lr}
    8a0c:	e1a04000 	mov	r4, r0
    8a10:	e30c3638 	movw	r3, #50744	; 0xc638
    8a14:	e3403001 	movt	r3, #1
    8a18:	e5933000 	ldr	r3, [r3]
    8a1c:	e3530000 	cmp	r3, #0
    8a20:	1a000005 	bne	8a3c <USPiKeyboardRegisterShutdownHandler+0x34>
    8a24:	e3090be8 	movw	r0, #39912	; 0x9be8
    8a28:	e3400001 	movt	r0, #1
    8a2c:	e3091bd8 	movw	r1, #39896	; 0x9bd8
    8a30:	e3401001 	movt	r1, #1
    8a34:	e3a02068 	mov	r2, #104	; 0x68
    8a38:	eb003d3f 	bl	17f3c <uspi_assertion_failed>
    8a3c:	e30c3638 	movw	r3, #50744	; 0xc638
    8a40:	e3403001 	movt	r3, #1
    8a44:	e5933000 	ldr	r3, [r3]
    8a48:	e5933058 	ldr	r3, [r3, #88]	; 0x58
    8a4c:	e3530000 	cmp	r3, #0
    8a50:	1a000005 	bne	8a6c <USPiKeyboardRegisterShutdownHandler+0x64>
    8a54:	e3090c78 	movw	r0, #40056	; 0x9c78
    8a58:	e3400001 	movt	r0, #1
    8a5c:	e3091bd8 	movw	r1, #39896	; 0x9bd8
    8a60:	e3401001 	movt	r1, #1
    8a64:	e3a02069 	mov	r2, #105	; 0x69
    8a68:	eb003d33 	bl	17f3c <uspi_assertion_failed>
    8a6c:	e30c3638 	movw	r3, #50744	; 0xc638
    8a70:	e3403001 	movt	r3, #1
    8a74:	e5933000 	ldr	r3, [r3]
    8a78:	e5930058 	ldr	r0, [r3, #88]	; 0x58
    8a7c:	e1a01004 	mov	r1, r4
    8a80:	eb0025b4 	bl	12158 <USBKeyboardDeviceRegisterShutdownHandler>
    8a84:	e8bd8010 	pop	{r4, pc}

00008a88 <USPiKeyboardRegisterKeyStatusHandlerRaw>:
    8a88:	e92d4010 	push	{r4, lr}
    8a8c:	e1a04000 	mov	r4, r0
    8a90:	e30c3638 	movw	r3, #50744	; 0xc638
    8a94:	e3403001 	movt	r3, #1
    8a98:	e5933000 	ldr	r3, [r3]
    8a9c:	e3530000 	cmp	r3, #0
    8aa0:	1a000005 	bne	8abc <USPiKeyboardRegisterKeyStatusHandlerRaw+0x34>
    8aa4:	e3090be8 	movw	r0, #39912	; 0x9be8
    8aa8:	e3400001 	movt	r0, #1
    8aac:	e3091bd8 	movw	r1, #39896	; 0x9bd8
    8ab0:	e3401001 	movt	r1, #1
    8ab4:	e3a0206f 	mov	r2, #111	; 0x6f
    8ab8:	eb003d1f 	bl	17f3c <uspi_assertion_failed>
    8abc:	e30c3638 	movw	r3, #50744	; 0xc638
    8ac0:	e3403001 	movt	r3, #1
    8ac4:	e5933000 	ldr	r3, [r3]
    8ac8:	e5933058 	ldr	r3, [r3, #88]	; 0x58
    8acc:	e3530000 	cmp	r3, #0
    8ad0:	1a000005 	bne	8aec <USPiKeyboardRegisterKeyStatusHandlerRaw+0x64>
    8ad4:	e3090c78 	movw	r0, #40056	; 0x9c78
    8ad8:	e3400001 	movt	r0, #1
    8adc:	e3091bd8 	movw	r1, #39896	; 0x9bd8
    8ae0:	e3401001 	movt	r1, #1
    8ae4:	e3a02070 	mov	r2, #112	; 0x70
    8ae8:	eb003d13 	bl	17f3c <uspi_assertion_failed>
    8aec:	e30c3638 	movw	r3, #50744	; 0xc638
    8af0:	e3403001 	movt	r3, #1
    8af4:	e5933000 	ldr	r3, [r3]
    8af8:	e5930058 	ldr	r0, [r3, #88]	; 0x58
    8afc:	e1a01004 	mov	r1, r4
    8b00:	eb0025a8 	bl	121a8 <USBKeyboardDeviceRegisterKeyStatusHandlerRaw>
    8b04:	e8bd8010 	pop	{r4, pc}

00008b08 <USPiMouseAvailable>:
    8b08:	e92d4008 	push	{r3, lr}
    8b0c:	e30c3638 	movw	r3, #50744	; 0xc638
    8b10:	e3403001 	movt	r3, #1
    8b14:	e5933000 	ldr	r3, [r3]
    8b18:	e3530000 	cmp	r3, #0
    8b1c:	1a000005 	bne	8b38 <USPiMouseAvailable+0x30>
    8b20:	e3090be8 	movw	r0, #39912	; 0x9be8
    8b24:	e3400001 	movt	r0, #1
    8b28:	e3091bd8 	movw	r1, #39896	; 0x9bd8
    8b2c:	e3401001 	movt	r1, #1
    8b30:	e3a02076 	mov	r2, #118	; 0x76
    8b34:	eb003d00 	bl	17f3c <uspi_assertion_failed>
    8b38:	e30c3638 	movw	r3, #50744	; 0xc638
    8b3c:	e3403001 	movt	r3, #1
    8b40:	e5933000 	ldr	r3, [r3]
    8b44:	e593005c 	ldr	r0, [r3, #92]	; 0x5c
    8b48:	e2900000 	adds	r0, r0, #0
    8b4c:	13a00001 	movne	r0, #1
    8b50:	e8bd8008 	pop	{r3, pc}

00008b54 <USPiMouseRegisterStatusHandler>:
    8b54:	e92d4010 	push	{r4, lr}
    8b58:	e1a04000 	mov	r4, r0
    8b5c:	e30c3638 	movw	r3, #50744	; 0xc638
    8b60:	e3403001 	movt	r3, #1
    8b64:	e5933000 	ldr	r3, [r3]
    8b68:	e3530000 	cmp	r3, #0
    8b6c:	1a000005 	bne	8b88 <USPiMouseRegisterStatusHandler+0x34>
    8b70:	e3090be8 	movw	r0, #39912	; 0x9be8
    8b74:	e3400001 	movt	r0, #1
    8b78:	e3091bd8 	movw	r1, #39896	; 0x9bd8
    8b7c:	e3401001 	movt	r1, #1
    8b80:	e3a0207c 	mov	r2, #124	; 0x7c
    8b84:	eb003cec 	bl	17f3c <uspi_assertion_failed>
    8b88:	e30c3638 	movw	r3, #50744	; 0xc638
    8b8c:	e3403001 	movt	r3, #1
    8b90:	e5933000 	ldr	r3, [r3]
    8b94:	e593305c 	ldr	r3, [r3, #92]	; 0x5c
    8b98:	e3530000 	cmp	r3, #0
    8b9c:	1a000005 	bne	8bb8 <USPiMouseRegisterStatusHandler+0x64>
    8ba0:	e3090c90 	movw	r0, #40080	; 0x9c90
    8ba4:	e3400001 	movt	r0, #1
    8ba8:	e3091bd8 	movw	r1, #39896	; 0x9bd8
    8bac:	e3401001 	movt	r1, #1
    8bb0:	e3a0207d 	mov	r2, #125	; 0x7d
    8bb4:	eb003ce0 	bl	17f3c <uspi_assertion_failed>
    8bb8:	e30c3638 	movw	r3, #50744	; 0xc638
    8bbc:	e3403001 	movt	r3, #1
    8bc0:	e5933000 	ldr	r3, [r3]
    8bc4:	e593005c 	ldr	r0, [r3, #92]	; 0x5c
    8bc8:	e1a01004 	mov	r1, r4
    8bcc:	eb0027d5 	bl	12b28 <USBMouseDeviceRegisterStatusHandler>
    8bd0:	e8bd8010 	pop	{r4, pc}

00008bd4 <USPiMassStorageDeviceAvailable>:
    8bd4:	e92d4008 	push	{r3, lr}
    8bd8:	e30c3638 	movw	r3, #50744	; 0xc638
    8bdc:	e3403001 	movt	r3, #1
    8be0:	e5933000 	ldr	r3, [r3]
    8be4:	e3530000 	cmp	r3, #0
    8be8:	1a000005 	bne	8c04 <USPiMassStorageDeviceAvailable+0x30>
    8bec:	e3090be8 	movw	r0, #39912	; 0x9be8
    8bf0:	e3400001 	movt	r0, #1
    8bf4:	e3091bd8 	movw	r1, #39896	; 0x9bd8
    8bf8:	e3401001 	movt	r1, #1
    8bfc:	e3a02083 	mov	r2, #131	; 0x83
    8c00:	eb003ccd 	bl	17f3c <uspi_assertion_failed>
    8c04:	e30c3638 	movw	r3, #50744	; 0xc638
    8c08:	e3403001 	movt	r3, #1
    8c0c:	e5933000 	ldr	r3, [r3]
    8c10:	e5932060 	ldr	r2, [r3, #96]	; 0x60
    8c14:	e3520000 	cmp	r2, #0
    8c18:	0a00000e 	beq	8c58 <USPiMassStorageDeviceAvailable+0x84>
    8c1c:	e5932064 	ldr	r2, [r3, #100]	; 0x64
    8c20:	e3520000 	cmp	r2, #0
    8c24:	0a000007 	beq	8c48 <USPiMassStorageDeviceAvailable+0x74>
    8c28:	e5932068 	ldr	r2, [r3, #104]	; 0x68
    8c2c:	e3520000 	cmp	r2, #0
    8c30:	0a000006 	beq	8c50 <USPiMassStorageDeviceAvailable+0x7c>
    8c34:	e593306c 	ldr	r3, [r3, #108]	; 0x6c
    8c38:	e3530000 	cmp	r3, #0
    8c3c:	13a00004 	movne	r0, #4
    8c40:	03a00003 	moveq	r0, #3
    8c44:	e8bd8008 	pop	{r3, pc}
    8c48:	e3a00001 	mov	r0, #1
    8c4c:	e8bd8008 	pop	{r3, pc}
    8c50:	e3a00002 	mov	r0, #2
    8c54:	e8bd8008 	pop	{r3, pc}
    8c58:	e3a00000 	mov	r0, #0
    8c5c:	e8bd8008 	pop	{r3, pc}

00008c60 <USPiMassStorageDeviceRead>:
    8c60:	e92d41f0 	push	{r4, r5, r6, r7, r8, lr}
    8c64:	e1a06000 	mov	r6, r0
    8c68:	e1a07001 	mov	r7, r1
    8c6c:	e1a08002 	mov	r8, r2
    8c70:	e1a05003 	mov	r5, r3
    8c74:	e59d4018 	ldr	r4, [sp, #24]
    8c78:	e30cc638 	movw	ip, #50744	; 0xc638
    8c7c:	e340c001 	movt	ip, #1
    8c80:	e59c3000 	ldr	r3, [ip]
    8c84:	e3530000 	cmp	r3, #0
    8c88:	1a000005 	bne	8ca4 <USPiMassStorageDeviceRead+0x44>
    8c8c:	e3090be8 	movw	r0, #39912	; 0x9be8
    8c90:	e3400001 	movt	r0, #1
    8c94:	e3091bd8 	movw	r1, #39896	; 0x9bd8
    8c98:	e3401001 	movt	r1, #1
    8c9c:	e3a02093 	mov	r2, #147	; 0x93
    8ca0:	eb003ca5 	bl	17f3c <uspi_assertion_failed>
    8ca4:	e3540003 	cmp	r4, #3
    8ca8:	8a000015 	bhi	8d04 <USPiMassStorageDeviceRead+0xa4>
    8cac:	e30c0638 	movw	r0, #50744	; 0xc638
    8cb0:	e3400001 	movt	r0, #1
    8cb4:	e5903000 	ldr	r3, [r0]
    8cb8:	e2842018 	add	r2, r4, #24
    8cbc:	e7930102 	ldr	r0, [r3, r2, lsl #2]
    8cc0:	e3500000 	cmp	r0, #0
    8cc4:	0a000010 	beq	8d0c <USPiMassStorageDeviceRead+0xac>
    8cc8:	e1a02006 	mov	r2, r6
    8ccc:	e1a03007 	mov	r3, r7
    8cd0:	eb001e39 	bl	105bc <USBBulkOnlyMassStorageDeviceSeek>
    8cd4:	e1510007 	cmp	r1, r7
    8cd8:	01500006 	cmpeq	r0, r6
    8cdc:	1a00000c 	bne	8d14 <USPiMassStorageDeviceRead+0xb4>
    8ce0:	e30c3638 	movw	r3, #50744	; 0xc638
    8ce4:	e3403001 	movt	r3, #1
    8ce8:	e5933000 	ldr	r3, [r3]
    8cec:	e2844018 	add	r4, r4, #24
    8cf0:	e7930104 	ldr	r0, [r3, r4, lsl #2]
    8cf4:	e1a01008 	mov	r1, r8
    8cf8:	e1a02005 	mov	r2, r5
    8cfc:	eb00213c 	bl	111f4 <USBBulkOnlyMassStorageDeviceRead>
    8d00:	e8bd81f0 	pop	{r4, r5, r6, r7, r8, pc}
    8d04:	e3e00000 	mvn	r0, #0
    8d08:	e8bd81f0 	pop	{r4, r5, r6, r7, r8, pc}
    8d0c:	e3e00000 	mvn	r0, #0
    8d10:	e8bd81f0 	pop	{r4, r5, r6, r7, r8, pc}
    8d14:	e3e00000 	mvn	r0, #0
    8d18:	e8bd81f0 	pop	{r4, r5, r6, r7, r8, pc}

00008d1c <USPiMassStorageDeviceWrite>:
    8d1c:	e92d41f0 	push	{r4, r5, r6, r7, r8, lr}
    8d20:	e1a06000 	mov	r6, r0
    8d24:	e1a07001 	mov	r7, r1
    8d28:	e1a08002 	mov	r8, r2
    8d2c:	e1a05003 	mov	r5, r3
    8d30:	e59d4018 	ldr	r4, [sp, #24]
    8d34:	e30cc638 	movw	ip, #50744	; 0xc638
    8d38:	e340c001 	movt	ip, #1
    8d3c:	e59c3000 	ldr	r3, [ip]
    8d40:	e3530000 	cmp	r3, #0
    8d44:	1a000005 	bne	8d60 <USPiMassStorageDeviceWrite+0x44>
    8d48:	e3090be8 	movw	r0, #39912	; 0x9be8
    8d4c:	e3400001 	movt	r0, #1
    8d50:	e3091bd8 	movw	r1, #39896	; 0x9bd8
    8d54:	e3401001 	movt	r1, #1
    8d58:	e3a020a5 	mov	r2, #165	; 0xa5
    8d5c:	eb003c76 	bl	17f3c <uspi_assertion_failed>
    8d60:	e3540003 	cmp	r4, #3
    8d64:	8a000015 	bhi	8dc0 <USPiMassStorageDeviceWrite+0xa4>
    8d68:	e30c0638 	movw	r0, #50744	; 0xc638
    8d6c:	e3400001 	movt	r0, #1
    8d70:	e5903000 	ldr	r3, [r0]
    8d74:	e2842018 	add	r2, r4, #24
    8d78:	e7930102 	ldr	r0, [r3, r2, lsl #2]
    8d7c:	e3500000 	cmp	r0, #0
    8d80:	0a000010 	beq	8dc8 <USPiMassStorageDeviceWrite+0xac>
    8d84:	e1a02006 	mov	r2, r6
    8d88:	e1a03007 	mov	r3, r7
    8d8c:	eb001e0a 	bl	105bc <USBBulkOnlyMassStorageDeviceSeek>
    8d90:	e1510007 	cmp	r1, r7
    8d94:	01500006 	cmpeq	r0, r6
    8d98:	1a00000c 	bne	8dd0 <USPiMassStorageDeviceWrite+0xb4>
    8d9c:	e30c3638 	movw	r3, #50744	; 0xc638
    8da0:	e3403001 	movt	r3, #1
    8da4:	e5933000 	ldr	r3, [r3]
    8da8:	e2844018 	add	r4, r4, #24
    8dac:	e7930104 	ldr	r0, [r3, r4, lsl #2]
    8db0:	e1a01008 	mov	r1, r8
    8db4:	e1a02005 	mov	r2, r5
    8db8:	eb002128 	bl	11260 <USBBulkOnlyMassStorageDeviceWrite>
    8dbc:	e8bd81f0 	pop	{r4, r5, r6, r7, r8, pc}
    8dc0:	e3e00000 	mvn	r0, #0
    8dc4:	e8bd81f0 	pop	{r4, r5, r6, r7, r8, pc}
    8dc8:	e3e00000 	mvn	r0, #0
    8dcc:	e8bd81f0 	pop	{r4, r5, r6, r7, r8, pc}
    8dd0:	e3e00000 	mvn	r0, #0
    8dd4:	e8bd81f0 	pop	{r4, r5, r6, r7, r8, pc}

00008dd8 <USPiMassStorageDeviceGetCapacity>:
    8dd8:	e92d4010 	push	{r4, lr}
    8ddc:	e1a04000 	mov	r4, r0
    8de0:	e30c3638 	movw	r3, #50744	; 0xc638
    8de4:	e3403001 	movt	r3, #1
    8de8:	e5933000 	ldr	r3, [r3]
    8dec:	e3530000 	cmp	r3, #0
    8df0:	1a000005 	bne	8e0c <USPiMassStorageDeviceGetCapacity+0x34>
    8df4:	e3090be8 	movw	r0, #39912	; 0x9be8
    8df8:	e3400001 	movt	r0, #1
    8dfc:	e3091bd8 	movw	r1, #39896	; 0x9bd8
    8e00:	e3401001 	movt	r1, #1
    8e04:	e3a020b7 	mov	r2, #183	; 0xb7
    8e08:	eb003c4b 	bl	17f3c <uspi_assertion_failed>
    8e0c:	e3540003 	cmp	r4, #3
    8e10:	8a000008 	bhi	8e38 <USPiMassStorageDeviceGetCapacity+0x60>
    8e14:	e30c3638 	movw	r3, #50744	; 0xc638
    8e18:	e3403001 	movt	r3, #1
    8e1c:	e5933000 	ldr	r3, [r3]
    8e20:	e2844018 	add	r4, r4, #24
    8e24:	e7930104 	ldr	r0, [r3, r4, lsl #2]
    8e28:	e3500000 	cmp	r0, #0
    8e2c:	0a000003 	beq	8e40 <USPiMassStorageDeviceGetCapacity+0x68>
    8e30:	eb001df0 	bl	105f8 <USBBulkOnlyMassStorageDeviceGetCapacity>
    8e34:	e8bd8010 	pop	{r4, pc}
    8e38:	e3a00000 	mov	r0, #0
    8e3c:	e8bd8010 	pop	{r4, pc}
    8e40:	e3a00000 	mov	r0, #0
    8e44:	e8bd8010 	pop	{r4, pc}

00008e48 <USPiEthernetAvailable>:
    8e48:	e92d4008 	push	{r3, lr}
    8e4c:	e30c3638 	movw	r3, #50744	; 0xc638
    8e50:	e3403001 	movt	r3, #1
    8e54:	e5933000 	ldr	r3, [r3]
    8e58:	e3530000 	cmp	r3, #0
    8e5c:	1a000005 	bne	8e78 <USPiEthernetAvailable+0x30>
    8e60:	e3090be8 	movw	r0, #39912	; 0x9be8
    8e64:	e3400001 	movt	r0, #1
    8e68:	e3091bd8 	movw	r1, #39896	; 0x9bd8
    8e6c:	e3401001 	movt	r1, #1
    8e70:	e3a020c4 	mov	r2, #196	; 0xc4
    8e74:	eb003c30 	bl	17f3c <uspi_assertion_failed>
    8e78:	e30c3638 	movw	r3, #50744	; 0xc638
    8e7c:	e3403001 	movt	r3, #1
    8e80:	e5933000 	ldr	r3, [r3]
    8e84:	e5930070 	ldr	r0, [r3, #112]	; 0x70
    8e88:	e2900000 	adds	r0, r0, #0
    8e8c:	13a00001 	movne	r0, #1
    8e90:	e8bd8008 	pop	{r3, pc}

00008e94 <USPiGetMACAddress>:
    8e94:	e92d4038 	push	{r3, r4, r5, lr}
    8e98:	e1a04000 	mov	r4, r0
    8e9c:	e30c3638 	movw	r3, #50744	; 0xc638
    8ea0:	e3403001 	movt	r3, #1
    8ea4:	e5933000 	ldr	r3, [r3]
    8ea8:	e3530000 	cmp	r3, #0
    8eac:	1a000005 	bne	8ec8 <USPiGetMACAddress+0x34>
    8eb0:	e3090be8 	movw	r0, #39912	; 0x9be8
    8eb4:	e3400001 	movt	r0, #1
    8eb8:	e3091bd8 	movw	r1, #39896	; 0x9bd8
    8ebc:	e3401001 	movt	r1, #1
    8ec0:	e3a020ca 	mov	r2, #202	; 0xca
    8ec4:	eb003c1c 	bl	17f3c <uspi_assertion_failed>
    8ec8:	e30c3638 	movw	r3, #50744	; 0xc638
    8ecc:	e3403001 	movt	r3, #1
    8ed0:	e5933000 	ldr	r3, [r3]
    8ed4:	e5933070 	ldr	r3, [r3, #112]	; 0x70
    8ed8:	e3530000 	cmp	r3, #0
    8edc:	1a000005 	bne	8ef8 <USPiGetMACAddress+0x64>
    8ee0:	e3090cac 	movw	r0, #40108	; 0x9cac
    8ee4:	e3400001 	movt	r0, #1
    8ee8:	e3091bd8 	movw	r1, #39896	; 0x9bd8
    8eec:	e3401001 	movt	r1, #1
    8ef0:	e3a020cb 	mov	r2, #203	; 0xcb
    8ef4:	eb003c10 	bl	17f3c <uspi_assertion_failed>
    8ef8:	e30c3638 	movw	r3, #50744	; 0xc638
    8efc:	e3403001 	movt	r3, #1
    8f00:	e5933000 	ldr	r3, [r3]
    8f04:	e5930070 	ldr	r0, [r3, #112]	; 0x70
    8f08:	eb001796 	bl	ed68 <SMSC951xDeviceGetMACAddress>
    8f0c:	e1a05000 	mov	r5, r0
    8f10:	e3540000 	cmp	r4, #0
    8f14:	1a000005 	bne	8f30 <USPiGetMACAddress+0x9c>
    8f18:	e30b0014 	movw	r0, #45076	; 0xb014
    8f1c:	e3400001 	movt	r0, #1
    8f20:	e3091bd8 	movw	r1, #39896	; 0x9bd8
    8f24:	e3401001 	movt	r1, #1
    8f28:	e3a020ce 	mov	r2, #206	; 0xce
    8f2c:	eb003c02 	bl	17f3c <uspi_assertion_failed>
    8f30:	e1a00005 	mov	r0, r5
    8f34:	e1a01004 	mov	r1, r4
    8f38:	eb0016d8 	bl	eaa0 <MACAddressCopyTo>
    8f3c:	e8bd8038 	pop	{r3, r4, r5, pc}

00008f40 <USPiSendFrame>:
    8f40:	e92d4038 	push	{r3, r4, r5, lr}
    8f44:	e1a05000 	mov	r5, r0
    8f48:	e1a04001 	mov	r4, r1
    8f4c:	e30c3638 	movw	r3, #50744	; 0xc638
    8f50:	e3403001 	movt	r3, #1
    8f54:	e5933000 	ldr	r3, [r3]
    8f58:	e3530000 	cmp	r3, #0
    8f5c:	1a000005 	bne	8f78 <USPiSendFrame+0x38>
    8f60:	e3090be8 	movw	r0, #39912	; 0x9be8
    8f64:	e3400001 	movt	r0, #1
    8f68:	e3091bd8 	movw	r1, #39896	; 0x9bd8
    8f6c:	e3401001 	movt	r1, #1
    8f70:	e3a020d4 	mov	r2, #212	; 0xd4
    8f74:	eb003bf0 	bl	17f3c <uspi_assertion_failed>
    8f78:	e30c3638 	movw	r3, #50744	; 0xc638
    8f7c:	e3403001 	movt	r3, #1
    8f80:	e5933000 	ldr	r3, [r3]
    8f84:	e5933070 	ldr	r3, [r3, #112]	; 0x70
    8f88:	e3530000 	cmp	r3, #0
    8f8c:	1a000005 	bne	8fa8 <USPiSendFrame+0x68>
    8f90:	e3090cac 	movw	r0, #40108	; 0x9cac
    8f94:	e3400001 	movt	r0, #1
    8f98:	e3091bd8 	movw	r1, #39896	; 0x9bd8
    8f9c:	e3401001 	movt	r1, #1
    8fa0:	e3a020d5 	mov	r2, #213	; 0xd5
    8fa4:	eb003be4 	bl	17f3c <uspi_assertion_failed>
    8fa8:	e30c3638 	movw	r3, #50744	; 0xc638
    8fac:	e3403001 	movt	r3, #1
    8fb0:	e5933000 	ldr	r3, [r3]
    8fb4:	e5930070 	ldr	r0, [r3, #112]	; 0x70
    8fb8:	e1a01005 	mov	r1, r5
    8fbc:	e1a02004 	mov	r2, r4
    8fc0:	eb001773 	bl	ed94 <SMSC951xDeviceSendFrame>
    8fc4:	e2900000 	adds	r0, r0, #0
    8fc8:	13a00001 	movne	r0, #1
    8fcc:	e8bd8038 	pop	{r3, r4, r5, pc}

00008fd0 <USPiReceiveFrame>:
    8fd0:	e92d4038 	push	{r3, r4, r5, lr}
    8fd4:	e1a05000 	mov	r5, r0
    8fd8:	e1a04001 	mov	r4, r1
    8fdc:	e30c3638 	movw	r3, #50744	; 0xc638
    8fe0:	e3403001 	movt	r3, #1
    8fe4:	e5933000 	ldr	r3, [r3]
    8fe8:	e3530000 	cmp	r3, #0
    8fec:	1a000005 	bne	9008 <USPiReceiveFrame+0x38>
    8ff0:	e3090be8 	movw	r0, #39912	; 0x9be8
    8ff4:	e3400001 	movt	r0, #1
    8ff8:	e3091bd8 	movw	r1, #39896	; 0x9bd8
    8ffc:	e3401001 	movt	r1, #1
    9000:	e3a020db 	mov	r2, #219	; 0xdb
    9004:	eb003bcc 	bl	17f3c <uspi_assertion_failed>
    9008:	e30c3638 	movw	r3, #50744	; 0xc638
    900c:	e3403001 	movt	r3, #1
    9010:	e5933000 	ldr	r3, [r3]
    9014:	e5933070 	ldr	r3, [r3, #112]	; 0x70
    9018:	e3530000 	cmp	r3, #0
    901c:	1a000005 	bne	9038 <USPiReceiveFrame+0x68>
    9020:	e3090cac 	movw	r0, #40108	; 0x9cac
    9024:	e3400001 	movt	r0, #1
    9028:	e3091bd8 	movw	r1, #39896	; 0x9bd8
    902c:	e3401001 	movt	r1, #1
    9030:	e3a020dc 	mov	r2, #220	; 0xdc
    9034:	eb003bc0 	bl	17f3c <uspi_assertion_failed>
    9038:	e30c3638 	movw	r3, #50744	; 0xc638
    903c:	e3403001 	movt	r3, #1
    9040:	e5933000 	ldr	r3, [r3]
    9044:	e5930070 	ldr	r0, [r3, #112]	; 0x70
    9048:	e1a01005 	mov	r1, r5
    904c:	e1a02004 	mov	r2, r4
    9050:	eb00178c 	bl	ee88 <SMSC951xDeviceReceiveFrame>
    9054:	e2900000 	adds	r0, r0, #0
    9058:	13a00001 	movne	r0, #1
    905c:	e8bd8038 	pop	{r3, r4, r5, pc}

00009060 <USPiGamePadAvailable>:
    9060:	e92d4008 	push	{r3, lr}
    9064:	e30c3638 	movw	r3, #50744	; 0xc638
    9068:	e3403001 	movt	r3, #1
    906c:	e5933000 	ldr	r3, [r3]
    9070:	e3530000 	cmp	r3, #0
    9074:	1a000005 	bne	9090 <USPiGamePadAvailable+0x30>
    9078:	e3090be8 	movw	r0, #39912	; 0x9be8
    907c:	e3400001 	movt	r0, #1
    9080:	e3091bd8 	movw	r1, #39896	; 0x9bd8
    9084:	e3401001 	movt	r1, #1
    9088:	e3a020e2 	mov	r2, #226	; 0xe2
    908c:	eb003baa 	bl	17f3c <uspi_assertion_failed>
    9090:	e30c3638 	movw	r3, #50744	; 0xc638
    9094:	e3403001 	movt	r3, #1
    9098:	e5933000 	ldr	r3, [r3]
    909c:	e5932074 	ldr	r2, [r3, #116]	; 0x74
    90a0:	e3520000 	cmp	r2, #0
    90a4:	0a00000e 	beq	90e4 <USPiGamePadAvailable+0x84>
    90a8:	e5932078 	ldr	r2, [r3, #120]	; 0x78
    90ac:	e3520000 	cmp	r2, #0
    90b0:	0a000007 	beq	90d4 <USPiGamePadAvailable+0x74>
    90b4:	e593207c 	ldr	r2, [r3, #124]	; 0x7c
    90b8:	e3520000 	cmp	r2, #0
    90bc:	0a000006 	beq	90dc <USPiGamePadAvailable+0x7c>
    90c0:	e5933080 	ldr	r3, [r3, #128]	; 0x80
    90c4:	e3530000 	cmp	r3, #0
    90c8:	13a00004 	movne	r0, #4
    90cc:	03a00003 	moveq	r0, #3
    90d0:	e8bd8008 	pop	{r3, pc}
    90d4:	e3a00001 	mov	r0, #1
    90d8:	e8bd8008 	pop	{r3, pc}
    90dc:	e3a00002 	mov	r0, #2
    90e0:	e8bd8008 	pop	{r3, pc}
    90e4:	e3a00000 	mov	r0, #0
    90e8:	e8bd8008 	pop	{r3, pc}

000090ec <USPiGamePadRegisterStatusHandler>:
    90ec:	e92d4070 	push	{r4, r5, r6, lr}
    90f0:	e1a06000 	mov	r6, r0
    90f4:	e30c3638 	movw	r3, #50744	; 0xc638
    90f8:	e3403001 	movt	r3, #1
    90fc:	e5933000 	ldr	r3, [r3]
    9100:	e3530000 	cmp	r3, #0
    9104:	1a000011 	bne	9150 <USPiGamePadRegisterStatusHandler+0x64>
    9108:	e3090be8 	movw	r0, #39912	; 0x9be8
    910c:	e3400001 	movt	r0, #1
    9110:	e3091bd8 	movw	r1, #39896	; 0x9bd8
    9114:	e3401001 	movt	r1, #1
    9118:	e3a020f2 	mov	r2, #242	; 0xf2
    911c:	eb003b86 	bl	17f3c <uspi_assertion_failed>
    9120:	ea00000a 	b	9150 <USPiGamePadRegisterStatusHandler+0x64>
    9124:	e5953000 	ldr	r3, [r5]
    9128:	e0833104 	add	r3, r3, r4, lsl #2
    912c:	e5930074 	ldr	r0, [r3, #116]	; 0x74
    9130:	e3500000 	cmp	r0, #0
    9134:	0a000001 	beq	9140 <USPiGamePadRegisterStatusHandler+0x54>
    9138:	e1a01006 	mov	r1, r6
    913c:	eb002a66 	bl	13adc <USBGamePadDeviceRegisterStatusHandler>
    9140:	e2844001 	add	r4, r4, #1
    9144:	e3540004 	cmp	r4, #4
    9148:	1afffff5 	bne	9124 <USPiGamePadRegisterStatusHandler+0x38>
    914c:	e8bd8070 	pop	{r4, r5, r6, pc}
    9150:	e3a04000 	mov	r4, #0
    9154:	e30c5638 	movw	r5, #50744	; 0xc638
    9158:	e3405001 	movt	r5, #1
    915c:	eafffff0 	b	9124 <USPiGamePadRegisterStatusHandler+0x38>

00009160 <USPiGamePadGetStatus>:
    9160:	e92d4010 	push	{r4, lr}
    9164:	e1a04000 	mov	r4, r0
    9168:	e30c3638 	movw	r3, #50744	; 0xc638
    916c:	e3403001 	movt	r3, #1
    9170:	e5933000 	ldr	r3, [r3]
    9174:	e3530000 	cmp	r3, #0
    9178:	1a000005 	bne	9194 <USPiGamePadGetStatus+0x34>
    917c:	e3090be8 	movw	r0, #39912	; 0x9be8
    9180:	e3400001 	movt	r0, #1
    9184:	e3091bd8 	movw	r1, #39896	; 0x9bd8
    9188:	e3401001 	movt	r1, #1
    918c:	e3a02c01 	mov	r2, #256	; 0x100
    9190:	eb003b69 	bl	17f3c <uspi_assertion_failed>
    9194:	e3540003 	cmp	r4, #3
    9198:	8a00000e 	bhi	91d8 <USPiGamePadGetStatus+0x78>
    919c:	e30c3638 	movw	r3, #50744	; 0xc638
    91a0:	e3403001 	movt	r3, #1
    91a4:	e5933000 	ldr	r3, [r3]
    91a8:	e0833104 	add	r3, r3, r4, lsl #2
    91ac:	e5930074 	ldr	r0, [r3, #116]	; 0x74
    91b0:	e3500000 	cmp	r0, #0
    91b4:	0a000009 	beq	91e0 <USPiGamePadGetStatus+0x80>
    91b8:	eb002a5b 	bl	13b2c <USBGamePadDeviceGetReport>
    91bc:	e30c3638 	movw	r3, #50744	; 0xc638
    91c0:	e3403001 	movt	r3, #1
    91c4:	e5933000 	ldr	r3, [r3]
    91c8:	e0834104 	add	r4, r3, r4, lsl #2
    91cc:	e5940074 	ldr	r0, [r4, #116]	; 0x74
    91d0:	e280004c 	add	r0, r0, #76	; 0x4c
    91d4:	e8bd8010 	pop	{r4, pc}
    91d8:	e3a00000 	mov	r0, #0
    91dc:	e8bd8010 	pop	{r4, pc}
    91e0:	e3a00000 	mov	r0, #0
    91e4:	e8bd8010 	pop	{r4, pc}

000091e8 <USPiDeviceGetInformation>:
    91e8:	e92d4070 	push	{r4, r5, r6, lr}
    91ec:	e1a05000 	mov	r5, r0
    91f0:	e1a06001 	mov	r6, r1
    91f4:	e1a04002 	mov	r4, r2
    91f8:	e30c3638 	movw	r3, #50744	; 0xc638
    91fc:	e3403001 	movt	r3, #1
    9200:	e5933000 	ldr	r3, [r3]
    9204:	e3530000 	cmp	r3, #0
    9208:	1a00005a 	bne	9378 <USPiDeviceGetInformation+0x190>
    920c:	e3090be8 	movw	r0, #39912	; 0x9be8
    9210:	e3400001 	movt	r0, #1
    9214:	e3091bd8 	movw	r1, #39896	; 0x9bd8
    9218:	e3401001 	movt	r1, #1
    921c:	e300210f 	movw	r2, #271	; 0x10f
    9220:	eb003b45 	bl	17f3c <uspi_assertion_failed>
    9224:	ea000053 	b	9378 <USPiDeviceGetInformation+0x190>
    9228:	e3560000 	cmp	r6, #0
    922c:	1a000043 	bne	9340 <USPiDeviceGetInformation+0x158>
    9230:	e30c3638 	movw	r3, #50744	; 0xc638
    9234:	e3403001 	movt	r3, #1
    9238:	e5933000 	ldr	r3, [r3]
    923c:	e5935058 	ldr	r5, [r3, #88]	; 0x58
    9240:	ea00001c 	b	92b8 <USPiDeviceGetInformation+0xd0>
    9244:	e3560000 	cmp	r6, #0
    9248:	1a00003e 	bne	9348 <USPiDeviceGetInformation+0x160>
    924c:	e30c3638 	movw	r3, #50744	; 0xc638
    9250:	e3403001 	movt	r3, #1
    9254:	e5933000 	ldr	r3, [r3]
    9258:	e593505c 	ldr	r5, [r3, #92]	; 0x5c
    925c:	ea000015 	b	92b8 <USPiDeviceGetInformation+0xd0>
    9260:	e3560003 	cmp	r6, #3
    9264:	8a000039 	bhi	9350 <USPiDeviceGetInformation+0x168>
    9268:	e30c3638 	movw	r3, #50744	; 0xc638
    926c:	e3403001 	movt	r3, #1
    9270:	e5933000 	ldr	r3, [r3]
    9274:	e2866018 	add	r6, r6, #24
    9278:	e7935106 	ldr	r5, [r3, r6, lsl #2]
    927c:	ea00000d 	b	92b8 <USPiDeviceGetInformation+0xd0>
    9280:	e3560000 	cmp	r6, #0
    9284:	1a000033 	bne	9358 <USPiDeviceGetInformation+0x170>
    9288:	e30c3638 	movw	r3, #50744	; 0xc638
    928c:	e3403001 	movt	r3, #1
    9290:	e5933000 	ldr	r3, [r3]
    9294:	e5935070 	ldr	r5, [r3, #112]	; 0x70
    9298:	ea000006 	b	92b8 <USPiDeviceGetInformation+0xd0>
    929c:	e3560003 	cmp	r6, #3
    92a0:	8a00002e 	bhi	9360 <USPiDeviceGetInformation+0x178>
    92a4:	e30c3638 	movw	r3, #50744	; 0xc638
    92a8:	e3403001 	movt	r3, #1
    92ac:	e5933000 	ldr	r3, [r3]
    92b0:	e0836106 	add	r6, r3, r6, lsl #2
    92b4:	e5965074 	ldr	r5, [r6, #116]	; 0x74
    92b8:	e3550000 	cmp	r5, #0
    92bc:	0a000029 	beq	9368 <USPiDeviceGetInformation+0x180>
    92c0:	e1a00005 	mov	r0, r5
    92c4:	eb001087 	bl	d4e8 <USBDeviceGetDeviceDescriptor>
    92c8:	e2506000 	subs	r6, r0, #0
    92cc:	1a000005 	bne	92e8 <USPiDeviceGetInformation+0x100>
    92d0:	e3090cc4 	movw	r0, #40132	; 0x9cc4
    92d4:	e3400001 	movt	r0, #1
    92d8:	e3091bd8 	movw	r1, #39896	; 0x9bd8
    92dc:	e3401001 	movt	r1, #1
    92e0:	e3002142 	movw	r2, #322	; 0x142
    92e4:	eb003b14 	bl	17f3c <uspi_assertion_failed>
    92e8:	e3540000 	cmp	r4, #0
    92ec:	1a000005 	bne	9308 <USPiDeviceGetInformation+0x120>
    92f0:	e3090cd0 	movw	r0, #40144	; 0x9cd0
    92f4:	e3400001 	movt	r0, #1
    92f8:	e3091bd8 	movw	r1, #39896	; 0x9bd8
    92fc:	e3401001 	movt	r1, #1
    9300:	e3a02f51 	mov	r2, #324	; 0x144
    9304:	eb003b0c 	bl	17f3c <uspi_assertion_failed>
    9308:	e1d630b8 	ldrh	r3, [r6, #8]
    930c:	e1c430b0 	strh	r3, [r4]
    9310:	e1d630ba 	ldrh	r3, [r6, #10]
    9314:	e1c430b2 	strh	r3, [r4, #2]
    9318:	e1d630bc 	ldrh	r3, [r6, #12]
    931c:	e1c430b4 	strh	r3, [r4, #4]
    9320:	e2850024 	add	r0, r5, #36	; 0x24
    9324:	eb002ba4 	bl	141bc <USBStringGet>
    9328:	e5840008 	str	r0, [r4, #8]
    932c:	e2850030 	add	r0, r5, #48	; 0x30
    9330:	eb002ba1 	bl	141bc <USBStringGet>
    9334:	e584000c 	str	r0, [r4, #12]
    9338:	e3a00001 	mov	r0, #1
    933c:	e8bd8070 	pop	{r4, r5, r6, pc}
    9340:	e3a00000 	mov	r0, #0
    9344:	e8bd8070 	pop	{r4, r5, r6, pc}
    9348:	e3a00000 	mov	r0, #0
    934c:	e8bd8070 	pop	{r4, r5, r6, pc}
    9350:	e3a00000 	mov	r0, #0
    9354:	e8bd8070 	pop	{r4, r5, r6, pc}
    9358:	e3a00000 	mov	r0, #0
    935c:	e8bd8070 	pop	{r4, r5, r6, pc}
    9360:	e3a00000 	mov	r0, #0
    9364:	e8bd8070 	pop	{r4, r5, r6, pc}
    9368:	e3a00000 	mov	r0, #0
    936c:	e8bd8070 	pop	{r4, r5, r6, pc}
    9370:	e3a00000 	mov	r0, #0
    9374:	e8bd8070 	pop	{r4, r5, r6, pc}
    9378:	e2450001 	sub	r0, r5, #1
    937c:	e3500004 	cmp	r0, #4
    9380:	979ff100 	ldrls	pc, [pc, r0, lsl #2]
    9384:	eafffff9 	b	9370 <USPiDeviceGetInformation+0x188>
    9388:	00009228 	andeq	r9, r0, r8, lsr #4
    938c:	00009244 	andeq	r9, r0, r4, asr #4
    9390:	00009260 	andeq	r9, r0, r0, ror #4
    9394:	00009280 	andeq	r9, r0, r0, lsl #5
    9398:	0000929c 	muleq	r0, ip, r2

0000939c <DWHCIDeviceCompletionRoutine>:
    939c:	e92d4010 	push	{r4, lr}
    93a0:	e2524000 	subs	r4, r2, #0
    93a4:	1a000005 	bne	93c0 <DWHCIDeviceCompletionRoutine+0x24>
    93a8:	e3090ce4 	movw	r0, #40164	; 0x9ce4
    93ac:	e3400001 	movt	r0, #1
    93b0:	e3091cf0 	movw	r1, #40176	; 0x9cf0
    93b4:	e3401001 	movt	r1, #1
    93b8:	e30022e1 	movw	r2, #737	; 0x2e1
    93bc:	eb003ade 	bl	17f3c <uspi_assertion_failed>
    93c0:	e3a03000 	mov	r3, #0
    93c4:	e5843048 	str	r3, [r4, #72]	; 0x48
    93c8:	e8bd8010 	pop	{r4, pc}

000093cc <DWHCIDevice>:
    93cc:	e92d4010 	push	{r4, lr}
    93d0:	e2504000 	subs	r4, r0, #0
    93d4:	1a000005 	bne	93f0 <DWHCIDevice+0x24>
    93d8:	e3090ce4 	movw	r0, #40164	; 0x9ce4
    93dc:	e3400001 	movt	r0, #1
    93e0:	e3091cf0 	movw	r1, #40176	; 0x9cf0
    93e4:	e3401001 	movt	r1, #1
    93e8:	e3a0205e 	mov	r2, #94	; 0x5e
    93ec:	eb003ad2 	bl	17f3c <uspi_assertion_failed>
    93f0:	e3a03000 	mov	r3, #0
    93f4:	e5843000 	str	r3, [r4]
    93f8:	e5843004 	str	r3, [r4, #4]
    93fc:	e5843048 	str	r3, [r4, #72]	; 0x48
    9400:	e284004c 	add	r0, r4, #76	; 0x4c
    9404:	e1a01004 	mov	r1, r4
    9408:	eb00237a 	bl	121f8 <DWHCIRootPort>
    940c:	e2843004 	add	r3, r4, #4
    9410:	e2842044 	add	r2, r4, #68	; 0x44
    9414:	e3a01000 	mov	r1, #0
    9418:	e5a31004 	str	r1, [r3, #4]!
    941c:	e1530002 	cmp	r3, r2
    9420:	1afffffc 	bne	9418 <DWHCIDevice+0x4c>
    9424:	e8bd8010 	pop	{r4, pc}

00009428 <_DWHCIDevice>:
    9428:	e92d4008 	push	{r3, lr}
    942c:	e280004c 	add	r0, r0, #76	; 0x4c
    9430:	eb002386 	bl	12250 <_DWHCIRootPort>
    9434:	e8bd8008 	pop	{r3, pc}

00009438 <DWHCIDeviceEnableGlobalInterrupts>:
    9438:	e52de004 	push	{lr}		; (str lr, [sp, #-4]!)
    943c:	e24dd014 	sub	sp, sp, #20
    9440:	e3500000 	cmp	r0, #0
    9444:	1a000005 	bne	9460 <DWHCIDeviceEnableGlobalInterrupts+0x28>
    9448:	e3090ce4 	movw	r0, #40164	; 0x9ce4
    944c:	e3400001 	movt	r0, #1
    9450:	e3091cf0 	movw	r1, #40176	; 0x9cf0
    9454:	e3401001 	movt	r1, #1
    9458:	e3002246 	movw	r2, #582	; 0x246
    945c:	eb003ab6 	bl	17f3c <uspi_assertion_failed>
    9460:	e28d0004 	add	r0, sp, #4
    9464:	e3a01008 	mov	r1, #8
    9468:	e3431f98 	movt	r1, #16280	; 0x3f98
    946c:	eb0009bb 	bl	bb60 <DWHCIRegister>
    9470:	e28d0004 	add	r0, sp, #4
    9474:	eb0009e3 	bl	bc08 <DWHCIRegisterRead>
    9478:	e28d0004 	add	r0, sp, #4
    947c:	e3a01001 	mov	r1, #1
    9480:	eb000a56 	bl	bde0 <DWHCIRegisterOr>
    9484:	e28d0004 	add	r0, sp, #4
    9488:	eb0009ed 	bl	bc44 <DWHCIRegisterWrite>
    948c:	e28d0004 	add	r0, sp, #4
    9490:	eb0009d0 	bl	bbd8 <_DWHCIRegister>
    9494:	e28dd014 	add	sp, sp, #20
    9498:	e49df004 	pop	{pc}		; (ldr pc, [sp], #4)

0000949c <DWHCIDeviceEnableCommonInterrupts>:
    949c:	e52de004 	push	{lr}		; (str lr, [sp, #-4]!)
    94a0:	e24dd014 	sub	sp, sp, #20
    94a4:	e3500000 	cmp	r0, #0
    94a8:	1a000005 	bne	94c4 <DWHCIDeviceEnableCommonInterrupts+0x28>
    94ac:	e3090ce4 	movw	r0, #40164	; 0x9ce4
    94b0:	e3400001 	movt	r0, #1
    94b4:	e3091cf0 	movw	r1, #40176	; 0x9cf0
    94b8:	e3401001 	movt	r1, #1
    94bc:	e3002253 	movw	r2, #595	; 0x253
    94c0:	eb003a9d 	bl	17f3c <uspi_assertion_failed>
    94c4:	e28d0004 	add	r0, sp, #4
    94c8:	e3a01014 	mov	r1, #20
    94cc:	e3431f98 	movt	r1, #16280	; 0x3f98
    94d0:	eb0009a2 	bl	bb60 <DWHCIRegister>
    94d4:	e28d0004 	add	r0, sp, #4
    94d8:	eb000aa5 	bl	bf74 <DWHCIRegisterSetAll>
    94dc:	e28d0004 	add	r0, sp, #4
    94e0:	eb0009d7 	bl	bc44 <DWHCIRegisterWrite>
    94e4:	e28d0004 	add	r0, sp, #4
    94e8:	eb0009ba 	bl	bbd8 <_DWHCIRegister>
    94ec:	e28dd014 	add	sp, sp, #20
    94f0:	e49df004 	pop	{pc}		; (ldr pc, [sp], #4)

000094f4 <DWHCIDeviceEnableHostInterrupts>:
    94f4:	e92d4010 	push	{r4, lr}
    94f8:	e24dd010 	sub	sp, sp, #16
    94fc:	e2504000 	subs	r4, r0, #0
    9500:	1a000005 	bne	951c <DWHCIDeviceEnableHostInterrupts+0x28>
    9504:	e3090ce4 	movw	r0, #40164	; 0x9ce4
    9508:	e3400001 	movt	r0, #1
    950c:	e3091cf0 	movw	r1, #40176	; 0x9cf0
    9510:	e3401001 	movt	r1, #1
    9514:	e300226b 	movw	r2, #619	; 0x26b
    9518:	eb003a87 	bl	17f3c <uspi_assertion_failed>
    951c:	e28d0004 	add	r0, sp, #4
    9520:	e3a01018 	mov	r1, #24
    9524:	e3431f98 	movt	r1, #16280	; 0x3f98
    9528:	e3a02000 	mov	r2, #0
    952c:	eb000999 	bl	bb98 <DWHCIRegister2>
    9530:	e28d0004 	add	r0, sp, #4
    9534:	eb0009c2 	bl	bc44 <DWHCIRegisterWrite>
    9538:	e1a00004 	mov	r0, r4
    953c:	ebffffd6 	bl	949c <DWHCIDeviceEnableCommonInterrupts>
    9540:	e28d0004 	add	r0, sp, #4
    9544:	eb0009af 	bl	bc08 <DWHCIRegisterRead>
    9548:	e28d0004 	add	r0, sp, #4
    954c:	e3a01402 	mov	r1, #33554432	; 0x2000000
    9550:	eb000a22 	bl	bde0 <DWHCIRegisterOr>
    9554:	e28d0004 	add	r0, sp, #4
    9558:	eb0009b9 	bl	bc44 <DWHCIRegisterWrite>
    955c:	e28d0004 	add	r0, sp, #4
    9560:	eb00099c 	bl	bbd8 <_DWHCIRegister>
    9564:	e28dd010 	add	sp, sp, #16
    9568:	e8bd8010 	pop	{r4, pc}

0000956c <DWHCIDeviceEnableChannelInterrupt>:
    956c:	e92d4010 	push	{r4, lr}
    9570:	e24dd010 	sub	sp, sp, #16
    9574:	e1a04001 	mov	r4, r1
    9578:	e3500000 	cmp	r0, #0
    957c:	1a000005 	bne	9598 <DWHCIDeviceEnableChannelInterrupt+0x2c>
    9580:	e3090ce4 	movw	r0, #40164	; 0x9ce4
    9584:	e3400001 	movt	r0, #1
    9588:	e3091cf0 	movw	r1, #40176	; 0x9cf0
    958c:	e3401001 	movt	r1, #1
    9590:	e300227f 	movw	r2, #639	; 0x27f
    9594:	eb003a68 	bl	17f3c <uspi_assertion_failed>
    9598:	e28d0004 	add	r0, sp, #4
    959c:	e3001418 	movw	r1, #1048	; 0x418
    95a0:	e3431f98 	movt	r1, #16280	; 0x3f98
    95a4:	eb00096d 	bl	bb60 <DWHCIRegister>
    95a8:	eb002979 	bl	13b94 <uspi_EnterCritical>
    95ac:	e28d0004 	add	r0, sp, #4
    95b0:	eb000994 	bl	bc08 <DWHCIRegisterRead>
    95b4:	e28d0004 	add	r0, sp, #4
    95b8:	e3a01001 	mov	r1, #1
    95bc:	e1a01411 	lsl	r1, r1, r4
    95c0:	eb000a06 	bl	bde0 <DWHCIRegisterOr>
    95c4:	e28d0004 	add	r0, sp, #4
    95c8:	eb00099d 	bl	bc44 <DWHCIRegisterWrite>
    95cc:	eb00297f 	bl	13bd0 <uspi_LeaveCritical>
    95d0:	e28d0004 	add	r0, sp, #4
    95d4:	eb00097f 	bl	bbd8 <_DWHCIRegister>
    95d8:	e28dd010 	add	sp, sp, #16
    95dc:	e8bd8010 	pop	{r4, pc}

000095e0 <DWHCIDeviceDisableChannelInterrupt>:
    95e0:	e92d4010 	push	{r4, lr}
    95e4:	e24dd010 	sub	sp, sp, #16
    95e8:	e1a04001 	mov	r4, r1
    95ec:	e3500000 	cmp	r0, #0
    95f0:	1a000005 	bne	960c <DWHCIDeviceDisableChannelInterrupt+0x2c>
    95f4:	e3090ce4 	movw	r0, #40164	; 0x9ce4
    95f8:	e3400001 	movt	r0, #1
    95fc:	e3091cf0 	movw	r1, #40176	; 0x9cf0
    9600:	e3401001 	movt	r1, #1
    9604:	e3002291 	movw	r2, #657	; 0x291
    9608:	eb003a4b 	bl	17f3c <uspi_assertion_failed>
    960c:	e28d0004 	add	r0, sp, #4
    9610:	e3001418 	movw	r1, #1048	; 0x418
    9614:	e3431f98 	movt	r1, #16280	; 0x3f98
    9618:	eb000950 	bl	bb60 <DWHCIRegister>
    961c:	eb00295c 	bl	13b94 <uspi_EnterCritical>
    9620:	e28d0004 	add	r0, sp, #4
    9624:	eb000977 	bl	bc08 <DWHCIRegisterRead>
    9628:	e28d0004 	add	r0, sp, #4
    962c:	e3a01001 	mov	r1, #1
    9630:	e1e01411 	mvn	r1, r1, lsl r4
    9634:	eb0009d2 	bl	bd84 <DWHCIRegisterAnd>
    9638:	e28d0004 	add	r0, sp, #4
    963c:	eb000980 	bl	bc44 <DWHCIRegisterWrite>
    9640:	eb002962 	bl	13bd0 <uspi_LeaveCritical>
    9644:	e28d0004 	add	r0, sp, #4
    9648:	eb000962 	bl	bbd8 <_DWHCIRegister>
    964c:	e28dd010 	add	sp, sp, #16
    9650:	e8bd8010 	pop	{r4, pc}

00009654 <DWHCIDeviceStartChannel>:
    9654:	e92d4070 	push	{r4, r5, r6, lr}
    9658:	e24dd048 	sub	sp, sp, #72	; 0x48
    965c:	e1a04001 	mov	r4, r1
    9660:	e2506000 	subs	r6, r0, #0
    9664:	1a000005 	bne	9680 <DWHCIDeviceStartChannel+0x2c>
    9668:	e3090ce4 	movw	r0, #40164	; 0x9ce4
    966c:	e3400001 	movt	r0, #1
    9670:	e3091cf0 	movw	r1, #40176	; 0x9cf0
    9674:	e3401001 	movt	r1, #1
    9678:	e3002342 	movw	r2, #834	; 0x342
    967c:	eb003a2e 	bl	17f3c <uspi_assertion_failed>
    9680:	e3540000 	cmp	r4, #0
    9684:	1a000005 	bne	96a0 <DWHCIDeviceStartChannel+0x4c>
    9688:	e3090d00 	movw	r0, #40192	; 0x9d00
    968c:	e3400001 	movt	r0, #1
    9690:	e3091cf0 	movw	r1, #40176	; 0x9cf0
    9694:	e3401001 	movt	r1, #1
    9698:	e3a02fd1 	mov	r2, #836	; 0x344
    969c:	eb003a26 	bl	17f3c <uspi_assertion_failed>
    96a0:	e1a00004 	mov	r0, r4
    96a4:	eb000b1d 	bl	c320 <DWHCITransferStageDataGetChannelNumber>
    96a8:	e1a05000 	mov	r5, r0
    96ac:	e5963000 	ldr	r3, [r6]
    96b0:	e1500003 	cmp	r0, r3
    96b4:	3a000005 	bcc	96d0 <DWHCIDeviceStartChannel+0x7c>
    96b8:	e3090d10 	movw	r0, #40208	; 0x9d10
    96bc:	e3400001 	movt	r0, #1
    96c0:	e3091cf0 	movw	r1, #40176	; 0x9cf0
    96c4:	e3401001 	movt	r1, #1
    96c8:	e3002346 	movw	r2, #838	; 0x346
    96cc:	eb003a1a 	bl	17f3c <uspi_assertion_failed>
    96d0:	e1a00004 	mov	r0, r4
    96d4:	e3a01001 	mov	r1, #1
    96d8:	eb000af7 	bl	c2bc <DWHCITransferStageDataSetSubState>
    96dc:	e1a05285 	lsl	r5, r5, #5
    96e0:	e28d003c 	add	r0, sp, #60	; 0x3c
    96e4:	e3001508 	movw	r1, #1288	; 0x508
    96e8:	e3431f98 	movt	r1, #16280	; 0x3f98
    96ec:	e0851001 	add	r1, r5, r1
    96f0:	eb00091a 	bl	bb60 <DWHCIRegister>
    96f4:	e28d003c 	add	r0, sp, #60	; 0x3c
    96f8:	eb000a1d 	bl	bf74 <DWHCIRegisterSetAll>
    96fc:	e28d003c 	add	r0, sp, #60	; 0x3c
    9700:	eb00094f 	bl	bc44 <DWHCIRegisterWrite>
    9704:	e28d0030 	add	r0, sp, #48	; 0x30
    9708:	e3a01e51 	mov	r1, #1296	; 0x510
    970c:	e3431f98 	movt	r1, #16280	; 0x3f98
    9710:	e0851001 	add	r1, r5, r1
    9714:	e3a02000 	mov	r2, #0
    9718:	eb00091e 	bl	bb98 <DWHCIRegister2>
    971c:	e1a00004 	mov	r0, r4
    9720:	eb000caa 	bl	c9d0 <DWHCITransferStageDataGetBytesToTransfer>
    9724:	e7f21050 	ubfx	r1, r0, #0, #19
    9728:	e28d0030 	add	r0, sp, #48	; 0x30
    972c:	eb0009ab 	bl	bde0 <DWHCIRegisterOr>
    9730:	e1a00004 	mov	r0, r4
    9734:	eb000cb0 	bl	c9fc <DWHCITransferStageDataGetPacketsToTransfer>
    9738:	e3a01000 	mov	r1, #0
    973c:	e3411ff8 	movt	r1, #8184	; 0x1ff8
    9740:	e0011980 	and	r1, r1, r0, lsl #19
    9744:	e28d0030 	add	r0, sp, #48	; 0x30
    9748:	eb0009a4 	bl	bde0 <DWHCIRegisterOr>
    974c:	e1a00004 	mov	r0, r4
    9750:	eb000c4b 	bl	c884 <DWHCITransferStageDataGetPID>
    9754:	e1a01e80 	lsl	r1, r0, #29
    9758:	e28d0030 	add	r0, sp, #48	; 0x30
    975c:	eb00099f 	bl	bde0 <DWHCIRegisterOr>
    9760:	e28d0030 	add	r0, sp, #48	; 0x30
    9764:	eb000936 	bl	bc44 <DWHCIRegisterWrite>
    9768:	e1a00004 	mov	r0, r4
    976c:	eb000c83 	bl	c980 <DWHCITransferStageDataGetDMAAddress>
    9770:	e2802103 	add	r2, r0, #-1073741824	; 0xc0000000
    9774:	e28d0024 	add	r0, sp, #36	; 0x24
    9778:	e3001514 	movw	r1, #1300	; 0x514
    977c:	e3431f98 	movt	r1, #16280	; 0x3f98
    9780:	e0851001 	add	r1, r5, r1
    9784:	eb000903 	bl	bb98 <DWHCIRegister2>
    9788:	e28d0024 	add	r0, sp, #36	; 0x24
    978c:	eb00092c 	bl	bc44 <DWHCIRegisterWrite>
    9790:	e1a00004 	mov	r0, r4
    9794:	eb000c79 	bl	c980 <DWHCITransferStageDataGetDMAAddress>
    9798:	e1a06000 	mov	r6, r0
    979c:	e1a00004 	mov	r0, r4
    97a0:	eb000c8a 	bl	c9d0 <DWHCITransferStageDataGetBytesToTransfer>
    97a4:	e1a01000 	mov	r1, r0
    97a8:	e1a00006 	mov	r0, r6
    97ac:	eb002920 	bl	13c34 <uspi_CleanAndInvalidateDataCacheRange>
    97b0:	f57ff05f 	dmb	sy
    97b4:	e28d0018 	add	r0, sp, #24
    97b8:	e3001504 	movw	r1, #1284	; 0x504
    97bc:	e3431f98 	movt	r1, #16280	; 0x3f98
    97c0:	e0851001 	add	r1, r5, r1
    97c4:	e3a02000 	mov	r2, #0
    97c8:	eb0008f2 	bl	bb98 <DWHCIRegister2>
    97cc:	e1a00004 	mov	r0, r4
    97d0:	eb000c94 	bl	ca28 <DWHCITransferStageDataIsSplit>
    97d4:	e3500000 	cmp	r0, #0
    97d8:	0a000018 	beq	9840 <DWHCIDeviceStartChannel+0x1ec>
    97dc:	e1a00004 	mov	r0, r4
    97e0:	eb000ccd 	bl	cb1c <DWHCITransferStageDataGetHubPortAddress>
    97e4:	e1a01000 	mov	r1, r0
    97e8:	e28d0018 	add	r0, sp, #24
    97ec:	eb00097b 	bl	bde0 <DWHCIRegisterOr>
    97f0:	e1a00004 	mov	r0, r4
    97f4:	eb000caa 	bl	caa4 <DWHCITransferStageDataGetHubAddress>
    97f8:	e1a01380 	lsl	r1, r0, #7
    97fc:	e28d0018 	add	r0, sp, #24
    9800:	eb000976 	bl	bde0 <DWHCIRegisterOr>
    9804:	e1a00004 	mov	r0, r4
    9808:	eb000ce1 	bl	cb94 <DWHCITransferStageDataGetSplitPosition>
    980c:	e1a01700 	lsl	r1, r0, #14
    9810:	e28d0018 	add	r0, sp, #24
    9814:	eb000971 	bl	bde0 <DWHCIRegisterOr>
    9818:	e1a00004 	mov	r0, r4
    981c:	eb000c8c 	bl	ca54 <DWHCITransferStageDataIsSplitComplete>
    9820:	e3500000 	cmp	r0, #0
    9824:	0a000002 	beq	9834 <DWHCIDeviceStartChannel+0x1e0>
    9828:	e28d0018 	add	r0, sp, #24
    982c:	e3a01801 	mov	r1, #65536	; 0x10000
    9830:	eb00096a 	bl	bde0 <DWHCIRegisterOr>
    9834:	e28d0018 	add	r0, sp, #24
    9838:	e3a01102 	mov	r1, #-2147483648	; 0x80000000
    983c:	eb000967 	bl	bde0 <DWHCIRegisterOr>
    9840:	e28d0018 	add	r0, sp, #24
    9844:	eb0008fe 	bl	bc44 <DWHCIRegisterWrite>
    9848:	e28d000c 	add	r0, sp, #12
    984c:	e3a01c05 	mov	r1, #1280	; 0x500
    9850:	e3431f98 	movt	r1, #16280	; 0x3f98
    9854:	e0851001 	add	r1, r5, r1
    9858:	eb0008c0 	bl	bb60 <DWHCIRegister>
    985c:	e28d000c 	add	r0, sp, #12
    9860:	eb0008e8 	bl	bc08 <DWHCIRegisterRead>
    9864:	e28d000c 	add	r0, sp, #12
    9868:	e3a01b3e 	mov	r1, #63488	; 0xf800
    986c:	e34f1fff 	movt	r1, #65535	; 0xffff
    9870:	eb000943 	bl	bd84 <DWHCIRegisterAnd>
    9874:	e1a00004 	mov	r0, r4
    9878:	eb000beb 	bl	c82c <DWHCITransferStageDataGetMaxPacketSize>
    987c:	e7ea1050 	ubfx	r1, r0, #0, #11
    9880:	e28d000c 	add	r0, sp, #12
    9884:	eb000955 	bl	bde0 <DWHCIRegisterOr>
    9888:	e28d000c 	add	r0, sp, #12
    988c:	e3e01603 	mvn	r1, #3145728	; 0x300000
    9890:	eb00093b 	bl	bd84 <DWHCIRegisterAnd>
    9894:	e28d000c 	add	r0, sp, #12
    9898:	e3a01601 	mov	r1, #1048576	; 0x100000
    989c:	eb00094f 	bl	bde0 <DWHCIRegisterOr>
    98a0:	e1a00004 	mov	r0, r4
    98a4:	eb000c1f 	bl	c928 <DWHCITransferStageDataIsDirectionIn>
    98a8:	e3500000 	cmp	r0, #0
    98ac:	0a000003 	beq	98c0 <DWHCIDeviceStartChannel+0x26c>
    98b0:	e28d000c 	add	r0, sp, #12
    98b4:	e3a01902 	mov	r1, #32768	; 0x8000
    98b8:	eb000948 	bl	bde0 <DWHCIRegisterOr>
    98bc:	ea000002 	b	98cc <DWHCIDeviceStartChannel+0x278>
    98c0:	e28d000c 	add	r0, sp, #12
    98c4:	e3e01902 	mvn	r1, #32768	; 0x8000
    98c8:	eb00092d 	bl	bd84 <DWHCIRegisterAnd>
    98cc:	e1a00004 	mov	r0, r4
    98d0:	eb000be0 	bl	c858 <DWHCITransferStageDataGetSpeed>
    98d4:	e3500000 	cmp	r0, #0
    98d8:	1a000003 	bne	98ec <DWHCIDeviceStartChannel+0x298>
    98dc:	e28d000c 	add	r0, sp, #12
    98e0:	e3a01802 	mov	r1, #131072	; 0x20000
    98e4:	eb00093d 	bl	bde0 <DWHCIRegisterOr>
    98e8:	ea000002 	b	98f8 <DWHCIDeviceStartChannel+0x2a4>
    98ec:	e28d000c 	add	r0, sp, #12
    98f0:	e3e01802 	mvn	r1, #131072	; 0x20000
    98f4:	eb000922 	bl	bd84 <DWHCIRegisterAnd>
    98f8:	e28d000c 	add	r0, sp, #12
    98fc:	e3e0157f 	mvn	r1, #532676608	; 0x1fc00000
    9900:	eb00091f 	bl	bd84 <DWHCIRegisterAnd>
    9904:	e1a00004 	mov	r0, r4
    9908:	eb000b75 	bl	c6e4 <DWHCITransferStageDataGetDeviceAddress>
    990c:	e1a01b00 	lsl	r1, r0, #22
    9910:	e28d000c 	add	r0, sp, #12
    9914:	eb000931 	bl	bde0 <DWHCIRegisterOr>
    9918:	e28d000c 	add	r0, sp, #12
    991c:	e3e01703 	mvn	r1, #786432	; 0xc0000
    9920:	eb000917 	bl	bd84 <DWHCIRegisterAnd>
    9924:	e1a00004 	mov	r0, r4
    9928:	eb000b82 	bl	c738 <DWHCITransferStageDataGetEndpointType>
    992c:	e1a01900 	lsl	r1, r0, #18
    9930:	e28d000c 	add	r0, sp, #12
    9934:	eb000929 	bl	bde0 <DWHCIRegisterOr>
    9938:	e28d000c 	add	r0, sp, #12
    993c:	e3e01b1e 	mvn	r1, #30720	; 0x7800
    9940:	eb00090f 	bl	bd84 <DWHCIRegisterAnd>
    9944:	e1a00004 	mov	r0, r4
    9948:	eb000ba2 	bl	c7d8 <DWHCITransferStageDataGetEndpointNumber>
    994c:	e1a01580 	lsl	r1, r0, #11
    9950:	e28d000c 	add	r0, sp, #12
    9954:	eb000921 	bl	bde0 <DWHCIRegisterOr>
    9958:	e1a00004 	mov	r0, r4
    995c:	eb000cf9 	bl	cd48 <DWHCITransferStageDataGetFrameScheduler>
    9960:	e2506000 	subs	r6, r0, #0
    9964:	0a00000e 	beq	99a4 <DWHCIDeviceStartChannel+0x350>
    9968:	e5963010 	ldr	r3, [r6, #16]
    996c:	e1a00006 	mov	r0, r6
    9970:	e12fff33 	blx	r3
    9974:	e5963014 	ldr	r3, [r6, #20]
    9978:	e1a00006 	mov	r0, r6
    997c:	e12fff33 	blx	r3
    9980:	e3500000 	cmp	r0, #0
    9984:	0a000003 	beq	9998 <DWHCIDeviceStartChannel+0x344>
    9988:	e28d000c 	add	r0, sp, #12
    998c:	e3a01202 	mov	r1, #536870912	; 0x20000000
    9990:	eb000912 	bl	bde0 <DWHCIRegisterOr>
    9994:	ea000002 	b	99a4 <DWHCIDeviceStartChannel+0x350>
    9998:	e28d000c 	add	r0, sp, #12
    999c:	e3e01202 	mvn	r1, #536870912	; 0x20000000
    99a0:	eb0008f7 	bl	bd84 <DWHCIRegisterAnd>
    99a4:	e1a0000d 	mov	r0, sp
    99a8:	e300150c 	movw	r1, #1292	; 0x50c
    99ac:	e3431f98 	movt	r1, #16280	; 0x3f98
    99b0:	e0851001 	add	r1, r5, r1
    99b4:	eb000869 	bl	bb60 <DWHCIRegister>
    99b8:	e1a00004 	mov	r0, r4
    99bc:	eb000c88 	bl	cbe4 <DWHCITransferStageDataGetStatusMask>
    99c0:	e1a01000 	mov	r1, r0
    99c4:	e1a0000d 	mov	r0, sp
    99c8:	eb0008c7 	bl	bcec <DWHCIRegisterSet>
    99cc:	e1a0000d 	mov	r0, sp
    99d0:	eb00089b 	bl	bc44 <DWHCIRegisterWrite>
    99d4:	e28d000c 	add	r0, sp, #12
    99d8:	e3a01102 	mov	r1, #-2147483648	; 0x80000000
    99dc:	eb0008ff 	bl	bde0 <DWHCIRegisterOr>
    99e0:	e28d000c 	add	r0, sp, #12
    99e4:	e3e01101 	mvn	r1, #1073741824	; 0x40000000
    99e8:	eb0008e5 	bl	bd84 <DWHCIRegisterAnd>
    99ec:	e28d000c 	add	r0, sp, #12
    99f0:	eb000893 	bl	bc44 <DWHCIRegisterWrite>
    99f4:	e1a0000d 	mov	r0, sp
    99f8:	eb000876 	bl	bbd8 <_DWHCIRegister>
    99fc:	e28d000c 	add	r0, sp, #12
    9a00:	eb000874 	bl	bbd8 <_DWHCIRegister>
    9a04:	e28d0018 	add	r0, sp, #24
    9a08:	eb000872 	bl	bbd8 <_DWHCIRegister>
    9a0c:	e28d0024 	add	r0, sp, #36	; 0x24
    9a10:	eb000870 	bl	bbd8 <_DWHCIRegister>
    9a14:	e28d0030 	add	r0, sp, #48	; 0x30
    9a18:	eb00086e 	bl	bbd8 <_DWHCIRegister>
    9a1c:	e28d003c 	add	r0, sp, #60	; 0x3c
    9a20:	eb00086c 	bl	bbd8 <_DWHCIRegister>
    9a24:	e28dd048 	add	sp, sp, #72	; 0x48
    9a28:	e8bd8070 	pop	{r4, r5, r6, pc}

00009a2c <DWHCIDeviceStartTransaction>:
    9a2c:	e92d4070 	push	{r4, r5, r6, lr}
    9a30:	e24dd018 	sub	sp, sp, #24
    9a34:	e1a05001 	mov	r5, r1
    9a38:	e2506000 	subs	r6, r0, #0
    9a3c:	1a000005 	bne	9a58 <DWHCIDeviceStartTransaction+0x2c>
    9a40:	e3090ce4 	movw	r0, #40164	; 0x9ce4
    9a44:	e3400001 	movt	r0, #1
    9a48:	e3091cf0 	movw	r1, #40176	; 0x9cf0
    9a4c:	e3401001 	movt	r1, #1
    9a50:	e300231f 	movw	r2, #799	; 0x31f
    9a54:	eb003938 	bl	17f3c <uspi_assertion_failed>
    9a58:	e3550000 	cmp	r5, #0
    9a5c:	1a000005 	bne	9a78 <DWHCIDeviceStartTransaction+0x4c>
    9a60:	e3090d00 	movw	r0, #40192	; 0x9d00
    9a64:	e3400001 	movt	r0, #1
    9a68:	e3091cf0 	movw	r1, #40176	; 0x9cf0
    9a6c:	e3401001 	movt	r1, #1
    9a70:	e3002321 	movw	r2, #801	; 0x321
    9a74:	eb003930 	bl	17f3c <uspi_assertion_failed>
    9a78:	e1a00005 	mov	r0, r5
    9a7c:	eb000a27 	bl	c320 <DWHCITransferStageDataGetChannelNumber>
    9a80:	e1a04000 	mov	r4, r0
    9a84:	e5963000 	ldr	r3, [r6]
    9a88:	e1500003 	cmp	r0, r3
    9a8c:	3a000005 	bcc	9aa8 <DWHCIDeviceStartTransaction+0x7c>
    9a90:	e3090d10 	movw	r0, #40208	; 0x9d10
    9a94:	e3400001 	movt	r0, #1
    9a98:	e3091cf0 	movw	r1, #40176	; 0x9cf0
    9a9c:	e3401001 	movt	r1, #1
    9aa0:	e3002323 	movw	r2, #803	; 0x323
    9aa4:	eb003924 	bl	17f3c <uspi_assertion_failed>
    9aa8:	e30c3028 	movw	r3, #49192	; 0xc028
    9aac:	e34031fc 	movt	r3, #508	; 0x1fc
    9ab0:	e0843003 	add	r3, r4, r3
    9ab4:	e1a04283 	lsl	r4, r3, #5
    9ab8:	e28d000c 	add	r0, sp, #12
    9abc:	e1a01004 	mov	r1, r4
    9ac0:	eb000826 	bl	bb60 <DWHCIRegister>
    9ac4:	e28d000c 	add	r0, sp, #12
    9ac8:	eb00084e 	bl	bc08 <DWHCIRegisterRead>
    9acc:	e28d000c 	add	r0, sp, #12
    9ad0:	e3a01102 	mov	r1, #-2147483648	; 0x80000000
    9ad4:	eb000892 	bl	bd24 <DWHCIRegisterIsSet>
    9ad8:	e3500000 	cmp	r0, #0
    9adc:	0a000015 	beq	9b38 <DWHCIDeviceStartTransaction+0x10c>
    9ae0:	e1a00005 	mov	r0, r5
    9ae4:	e3a01000 	mov	r1, #0
    9ae8:	eb0009f3 	bl	c2bc <DWHCITransferStageDataSetSubState>
    9aec:	e28d000c 	add	r0, sp, #12
    9af0:	e3e01102 	mvn	r1, #-2147483648	; 0x80000000
    9af4:	eb0008a2 	bl	bd84 <DWHCIRegisterAnd>
    9af8:	e28d000c 	add	r0, sp, #12
    9afc:	e3a01101 	mov	r1, #1073741824	; 0x40000000
    9b00:	eb0008b6 	bl	bde0 <DWHCIRegisterOr>
    9b04:	e28d000c 	add	r0, sp, #12
    9b08:	eb00084d 	bl	bc44 <DWHCIRegisterWrite>
    9b0c:	e1a0000d 	mov	r0, sp
    9b10:	e284100c 	add	r1, r4, #12
    9b14:	eb000811 	bl	bb60 <DWHCIRegister>
    9b18:	e1a0000d 	mov	r0, sp
    9b1c:	e3a01002 	mov	r1, #2
    9b20:	eb000871 	bl	bcec <DWHCIRegisterSet>
    9b24:	e1a0000d 	mov	r0, sp
    9b28:	eb000845 	bl	bc44 <DWHCIRegisterWrite>
    9b2c:	e1a0000d 	mov	r0, sp
    9b30:	eb000828 	bl	bbd8 <_DWHCIRegister>
    9b34:	ea000002 	b	9b44 <DWHCIDeviceStartTransaction+0x118>
    9b38:	e1a00006 	mov	r0, r6
    9b3c:	e1a01005 	mov	r1, r5
    9b40:	ebfffec3 	bl	9654 <DWHCIDeviceStartChannel>
    9b44:	e28d000c 	add	r0, sp, #12
    9b48:	eb000822 	bl	bbd8 <_DWHCIRegister>
    9b4c:	e28dd018 	add	sp, sp, #24
    9b50:	e8bd8070 	pop	{r4, r5, r6, pc}

00009b54 <DWHCIDeviceTimerHandler>:
    9b54:	e92d4070 	push	{r4, r5, r6, lr}
    9b58:	e1a04001 	mov	r4, r1
    9b5c:	e2525000 	subs	r5, r2, #0
    9b60:	1a000005 	bne	9b7c <DWHCIDeviceTimerHandler+0x28>
    9b64:	e3090ce4 	movw	r0, #40164	; 0x9ce4
    9b68:	e3400001 	movt	r0, #1
    9b6c:	e3091cf0 	movw	r1, #40176	; 0x9cf0
    9b70:	e3401001 	movt	r1, #1
    9b74:	e30024d7 	movw	r2, #1239	; 0x4d7
    9b78:	eb0038ef 	bl	17f3c <uspi_assertion_failed>
    9b7c:	e3540000 	cmp	r4, #0
    9b80:	1a000005 	bne	9b9c <DWHCIDeviceTimerHandler+0x48>
    9b84:	e3090d00 	movw	r0, #40192	; 0x9d00
    9b88:	e3400001 	movt	r0, #1
    9b8c:	e3091cf0 	movw	r1, #40176	; 0x9cf0
    9b90:	e3401001 	movt	r1, #1
    9b94:	e30024da 	movw	r2, #1242	; 0x4da
    9b98:	eb0038e7 	bl	17f3c <uspi_assertion_failed>
    9b9c:	f57ff05f 	dmb	sy
    9ba0:	e3540000 	cmp	r4, #0
    9ba4:	1a000005 	bne	9bc0 <DWHCIDeviceTimerHandler+0x6c>
    9ba8:	e3090d00 	movw	r0, #40192	; 0x9d00
    9bac:	e3400001 	movt	r0, #1
    9bb0:	e3091cf0 	movw	r1, #40176	; 0x9cf0
    9bb4:	e3401001 	movt	r1, #1
    9bb8:	e30024de 	movw	r2, #1246	; 0x4de
    9bbc:	eb0038de 	bl	17f3c <uspi_assertion_failed>
    9bc0:	e1a00004 	mov	r0, r4
    9bc4:	eb0009b1 	bl	c290 <DWHCITransferStageDataGetState>
    9bc8:	e3500003 	cmp	r0, #3
    9bcc:	0a000005 	beq	9be8 <DWHCIDeviceTimerHandler+0x94>
    9bd0:	e3090d30 	movw	r0, #40240	; 0x9d30
    9bd4:	e3400001 	movt	r0, #1
    9bd8:	e3091cf0 	movw	r1, #40176	; 0x9cf0
    9bdc:	e3401001 	movt	r1, #1
    9be0:	e30024df 	movw	r2, #1247	; 0x4df
    9be4:	eb0038d4 	bl	17f3c <uspi_assertion_failed>
    9be8:	e1a00004 	mov	r0, r4
    9bec:	eb000b8d 	bl	ca28 <DWHCITransferStageDataIsSplit>
    9bf0:	e3500000 	cmp	r0, #0
    9bf4:	0a000013 	beq	9c48 <DWHCIDeviceTimerHandler+0xf4>
    9bf8:	e1a00004 	mov	r0, r4
    9bfc:	e3a01001 	mov	r1, #1
    9c00:	eb000996 	bl	c260 <DWHCITransferStageDataSetState>
    9c04:	e1a00004 	mov	r0, r4
    9c08:	e3a01000 	mov	r1, #0
    9c0c:	eb00097e 	bl	c20c <DWHCITransferStageDataSetSplitComplete>
    9c10:	e1a00004 	mov	r0, r4
    9c14:	eb000c4b 	bl	cd48 <DWHCITransferStageDataGetFrameScheduler>
    9c18:	e2506000 	subs	r6, r0, #0
    9c1c:	1a000005 	bne	9c38 <DWHCIDeviceTimerHandler+0xe4>
    9c20:	e3090d78 	movw	r0, #40312	; 0x9d78
    9c24:	e3400001 	movt	r0, #1
    9c28:	e3091cf0 	movw	r1, #40176	; 0x9cf0
    9c2c:	e3401001 	movt	r1, #1
    9c30:	e30024e8 	movw	r2, #1256	; 0x4e8
    9c34:	eb0038c0 	bl	17f3c <uspi_assertion_failed>
    9c38:	e5963004 	ldr	r3, [r6, #4]
    9c3c:	e1a00006 	mov	r0, r6
    9c40:	e12fff33 	blx	r3
    9c44:	ea000002 	b	9c54 <DWHCIDeviceTimerHandler+0x100>
    9c48:	e1a00004 	mov	r0, r4
    9c4c:	e3a01000 	mov	r1, #0
    9c50:	eb000982 	bl	c260 <DWHCITransferStageDataSetState>
    9c54:	e1a00005 	mov	r0, r5
    9c58:	e1a01004 	mov	r1, r4
    9c5c:	ebffff72 	bl	9a2c <DWHCIDeviceStartTransaction>
    9c60:	f57ff05f 	dmb	sy
    9c64:	e8bd8070 	pop	{r4, r5, r6, pc}

00009c68 <DWHCIDeviceAllocateChannel>:
    9c68:	e92d4038 	push	{r3, r4, r5, lr}
    9c6c:	e2505000 	subs	r5, r0, #0
    9c70:	1a000005 	bne	9c8c <DWHCIDeviceAllocateChannel+0x24>
    9c74:	e3090ce4 	movw	r0, #40164	; 0x9ce4
    9c78:	e3400001 	movt	r0, #1
    9c7c:	e3091cf0 	movw	r1, #40176	; 0x9cf0
    9c80:	e3401001 	movt	r1, #1
    9c84:	e30024f7 	movw	r2, #1271	; 0x4f7
    9c88:	eb0038ab 	bl	17f3c <uspi_assertion_failed>
    9c8c:	eb0027c0 	bl	13b94 <uspi_EnterCritical>
    9c90:	e5951000 	ldr	r1, [r5]
    9c94:	e3510000 	cmp	r1, #0
    9c98:	0a000015 	beq	9cf4 <DWHCIDeviceAllocateChannel+0x8c>
    9c9c:	e5953004 	ldr	r3, [r5, #4]
    9ca0:	e3130001 	tst	r3, #1
    9ca4:	0a000006 	beq	9cc4 <DWHCIDeviceAllocateChannel+0x5c>
    9ca8:	e3a04000 	mov	r4, #0
    9cac:	e3a03001 	mov	r3, #1
    9cb0:	ea00000b 	b	9ce4 <DWHCIDeviceAllocateChannel+0x7c>
    9cb4:	e5952004 	ldr	r2, [r5, #4]
    9cb8:	e1120003 	tst	r2, r3
    9cbc:	1a000008 	bne	9ce4 <DWHCIDeviceAllocateChannel+0x7c>
    9cc0:	ea000001 	b	9ccc <DWHCIDeviceAllocateChannel+0x64>
    9cc4:	e3a04000 	mov	r4, #0
    9cc8:	e3a03001 	mov	r3, #1
    9ccc:	e5952004 	ldr	r2, [r5, #4]
    9cd0:	e1833002 	orr	r3, r3, r2
    9cd4:	e5853004 	str	r3, [r5, #4]
    9cd8:	eb0027bc 	bl	13bd0 <uspi_LeaveCritical>
    9cdc:	e1a00004 	mov	r0, r4
    9ce0:	e8bd8038 	pop	{r3, r4, r5, pc}
    9ce4:	e1a03083 	lsl	r3, r3, #1
    9ce8:	e2844001 	add	r4, r4, #1
    9cec:	e1540001 	cmp	r4, r1
    9cf0:	1affffef 	bne	9cb4 <DWHCIDeviceAllocateChannel+0x4c>
    9cf4:	eb0027b5 	bl	13bd0 <uspi_LeaveCritical>
    9cf8:	e3a00010 	mov	r0, #16
    9cfc:	e8bd8038 	pop	{r3, r4, r5, pc}

00009d00 <DWHCIDeviceFreeChannel>:
    9d00:	e92d4038 	push	{r3, r4, r5, lr}
    9d04:	e1a05001 	mov	r5, r1
    9d08:	e2504000 	subs	r4, r0, #0
    9d0c:	1a000005 	bne	9d28 <DWHCIDeviceFreeChannel+0x28>
    9d10:	e3090ce4 	movw	r0, #40164	; 0x9ce4
    9d14:	e3400001 	movt	r0, #1
    9d18:	e3091cf0 	movw	r1, #40176	; 0x9cf0
    9d1c:	e3401001 	movt	r1, #1
    9d20:	e3002511 	movw	r2, #1297	; 0x511
    9d24:	eb003884 	bl	17f3c <uspi_assertion_failed>
    9d28:	e5943000 	ldr	r3, [r4]
    9d2c:	e1530005 	cmp	r3, r5
    9d30:	8a000005 	bhi	9d4c <DWHCIDeviceFreeChannel+0x4c>
    9d34:	e3090d10 	movw	r0, #40208	; 0x9d10
    9d38:	e3400001 	movt	r0, #1
    9d3c:	e3091cf0 	movw	r1, #40176	; 0x9cf0
    9d40:	e3401001 	movt	r1, #1
    9d44:	e3002513 	movw	r2, #1299	; 0x513
    9d48:	eb00387b 	bl	17f3c <uspi_assertion_failed>
    9d4c:	e3a03001 	mov	r3, #1
    9d50:	e1a05513 	lsl	r5, r3, r5
    9d54:	eb00278e 	bl	13b94 <uspi_EnterCritical>
    9d58:	e5943004 	ldr	r3, [r4, #4]
    9d5c:	e1150003 	tst	r5, r3
    9d60:	1a000005 	bne	9d7c <DWHCIDeviceFreeChannel+0x7c>
    9d64:	e3090d90 	movw	r0, #40336	; 0x9d90
    9d68:	e3400001 	movt	r0, #1
    9d6c:	e3091cf0 	movw	r1, #40176	; 0x9cf0
    9d70:	e3401001 	movt	r1, #1
    9d74:	e3002518 	movw	r2, #1304	; 0x518
    9d78:	eb00386f 	bl	17f3c <uspi_assertion_failed>
    9d7c:	e5943004 	ldr	r3, [r4, #4]
    9d80:	e1c35005 	bic	r5, r3, r5
    9d84:	e5845004 	str	r5, [r4, #4]
    9d88:	eb002790 	bl	13bd0 <uspi_LeaveCritical>
    9d8c:	e8bd8038 	pop	{r3, r4, r5, pc}

00009d90 <DWHCIDeviceTransferStageAsync>:
    9d90:	e92d43f0 	push	{r4, r5, r6, r7, r8, r9, lr}
    9d94:	e24dd00c 	sub	sp, sp, #12
    9d98:	e1a07001 	mov	r7, r1
    9d9c:	e1a08002 	mov	r8, r2
    9da0:	e1a09003 	mov	r9, r3
    9da4:	e2504000 	subs	r4, r0, #0
    9da8:	1a000005 	bne	9dc4 <DWHCIDeviceTransferStageAsync+0x34>
    9dac:	e3090ce4 	movw	r0, #40164	; 0x9ce4
    9db0:	e3400001 	movt	r0, #1
    9db4:	e3091cf0 	movw	r1, #40176	; 0x9cf0
    9db8:	e3401001 	movt	r1, #1
    9dbc:	e3a02fba 	mov	r2, #744	; 0x2e8
    9dc0:	eb00385d 	bl	17f3c <uspi_assertion_failed>
    9dc4:	e3570000 	cmp	r7, #0
    9dc8:	1a000005 	bne	9de4 <DWHCIDeviceTransferStageAsync+0x54>
    9dcc:	e3090dbc 	movw	r0, #40380	; 0x9dbc
    9dd0:	e3400001 	movt	r0, #1
    9dd4:	e3091cf0 	movw	r1, #40176	; 0x9cf0
    9dd8:	e3401001 	movt	r1, #1
    9ddc:	e30022e9 	movw	r2, #745	; 0x2e9
    9de0:	eb003855 	bl	17f3c <uspi_assertion_failed>
    9de4:	e1a00004 	mov	r0, r4
    9de8:	ebffff9e 	bl	9c68 <DWHCIDeviceAllocateChannel>
    9dec:	e1a05000 	mov	r5, r0
    9df0:	e5941000 	ldr	r1, [r4]
    9df4:	e1500001 	cmp	r0, r1
    9df8:	23a07000 	movcs	r7, #0
    9dfc:	2a00004e 	bcs	9f3c <DWHCIDeviceTransferStageAsync+0x1ac>
    9e00:	e3a00054 	mov	r0, #84	; 0x54
    9e04:	eb002f96 	bl	15c64 <malloc>
    9e08:	e2506000 	subs	r6, r0, #0
    9e0c:	1a000005 	bne	9e28 <DWHCIDeviceTransferStageAsync+0x98>
    9e10:	e3090d00 	movw	r0, #40192	; 0x9d00
    9e14:	e3400001 	movt	r0, #1
    9e18:	e3091cf0 	movw	r1, #40176	; 0x9cf0
    9e1c:	e3401001 	movt	r1, #1
    9e20:	e30022f3 	movw	r2, #755	; 0x2f3
    9e24:	eb003844 	bl	17f3c <uspi_assertion_failed>
    9e28:	e58d9000 	str	r9, [sp]
    9e2c:	e1a00006 	mov	r0, r6
    9e30:	e1a01005 	mov	r1, r5
    9e34:	e1a02007 	mov	r2, r7
    9e38:	e1a03008 	mov	r3, r8
    9e3c:	eb00095b 	bl	c3b0 <DWHCITransferStageData>
    9e40:	e0848105 	add	r8, r4, r5, lsl #2
    9e44:	e5983008 	ldr	r3, [r8, #8]
    9e48:	e3530000 	cmp	r3, #0
    9e4c:	0a000005 	beq	9e68 <DWHCIDeviceTransferStageAsync+0xd8>
    9e50:	e3090dc8 	movw	r0, #40392	; 0x9dc8
    9e54:	e3400001 	movt	r0, #1
    9e58:	e3091cf0 	movw	r1, #40176	; 0x9cf0
    9e5c:	e3401001 	movt	r1, #1
    9e60:	e30022f6 	movw	r2, #758	; 0x2f6
    9e64:	eb003834 	bl	17f3c <uspi_assertion_failed>
    9e68:	e5886008 	str	r6, [r8, #8]
    9e6c:	e1a00004 	mov	r0, r4
    9e70:	e1a01005 	mov	r1, r5
    9e74:	ebfffdbc 	bl	956c <DWHCIDeviceEnableChannelInterrupt>
    9e78:	e1a00006 	mov	r0, r6
    9e7c:	eb000ae9 	bl	ca28 <DWHCITransferStageDataIsSplit>
    9e80:	e3500000 	cmp	r0, #0
    9e84:	1a000003 	bne	9e98 <DWHCIDeviceTransferStageAsync+0x108>
    9e88:	e1a00006 	mov	r0, r6
    9e8c:	e3a01000 	mov	r1, #0
    9e90:	eb0008f2 	bl	c260 <DWHCITransferStageDataSetState>
    9e94:	ea000023 	b	9f28 <DWHCIDeviceTransferStageAsync+0x198>
    9e98:	e1a00006 	mov	r0, r6
    9e9c:	eb00091d 	bl	c318 <DWHCITransferStageDataBeginSplitCycle>
    9ea0:	e2507000 	subs	r7, r0, #0
    9ea4:	1a00000c 	bne	9edc <DWHCIDeviceTransferStageAsync+0x14c>
    9ea8:	e1a00004 	mov	r0, r4
    9eac:	e1a01005 	mov	r1, r5
    9eb0:	ebfffdca 	bl	95e0 <DWHCIDeviceDisableChannelInterrupt>
    9eb4:	e1a00006 	mov	r0, r6
    9eb8:	eb00085d 	bl	c034 <_DWHCITransferStageData>
    9ebc:	e1a00006 	mov	r0, r6
    9ec0:	eb002fc3 	bl	15dd4 <free>
    9ec4:	e3a03000 	mov	r3, #0
    9ec8:	e5883008 	str	r3, [r8, #8]
    9ecc:	e1a00004 	mov	r0, r4
    9ed0:	e1a01005 	mov	r1, r5
    9ed4:	ebffff89 	bl	9d00 <DWHCIDeviceFreeChannel>
    9ed8:	ea000017 	b	9f3c <DWHCIDeviceTransferStageAsync+0x1ac>
    9edc:	e1a00006 	mov	r0, r6
    9ee0:	e3a01001 	mov	r1, #1
    9ee4:	eb0008dd 	bl	c260 <DWHCITransferStageDataSetState>
    9ee8:	e1a00006 	mov	r0, r6
    9eec:	e3a01000 	mov	r1, #0
    9ef0:	eb0008c5 	bl	c20c <DWHCITransferStageDataSetSplitComplete>
    9ef4:	e1a00006 	mov	r0, r6
    9ef8:	eb000b92 	bl	cd48 <DWHCITransferStageDataGetFrameScheduler>
    9efc:	e2505000 	subs	r5, r0, #0
    9f00:	1a000005 	bne	9f1c <DWHCIDeviceTransferStageAsync+0x18c>
    9f04:	e3090d78 	movw	r0, #40312	; 0x9d78
    9f08:	e3400001 	movt	r0, #1
    9f0c:	e3091cf0 	movw	r1, #40176	; 0x9cf0
    9f10:	e3401001 	movt	r1, #1
    9f14:	e3a02fc5 	mov	r2, #788	; 0x314
    9f18:	eb003807 	bl	17f3c <uspi_assertion_failed>
    9f1c:	e5953004 	ldr	r3, [r5, #4]
    9f20:	e1a00005 	mov	r0, r5
    9f24:	e12fff33 	blx	r3
    9f28:	e1a00004 	mov	r0, r4
    9f2c:	e1a01006 	mov	r1, r6
    9f30:	ebfffebd 	bl	9a2c <DWHCIDeviceStartTransaction>
    9f34:	e3a07001 	mov	r7, #1
    9f38:	eaffffff 	b	9f3c <DWHCIDeviceTransferStageAsync+0x1ac>
    9f3c:	e1a00007 	mov	r0, r7
    9f40:	e28dd00c 	add	sp, sp, #12
    9f44:	e8bd83f0 	pop	{r4, r5, r6, r7, r8, r9, pc}

00009f48 <DWHCIDeviceSubmitAsyncRequest>:
    9f48:	e92d4038 	push	{r3, r4, r5, lr}
    9f4c:	e1a04001 	mov	r4, r1
    9f50:	e2505000 	subs	r5, r0, #0
    9f54:	1a000005 	bne	9f70 <DWHCIDeviceSubmitAsyncRequest+0x28>
    9f58:	e3090ce4 	movw	r0, #40164	; 0x9ce4
    9f5c:	e3400001 	movt	r0, #1
    9f60:	e3091cf0 	movw	r1, #40176	; 0x9cf0
    9f64:	e3401001 	movt	r1, #1
    9f68:	e3002159 	movw	r2, #345	; 0x159
    9f6c:	eb0037f2 	bl	17f3c <uspi_assertion_failed>
    9f70:	f57ff05f 	dmb	sy
    9f74:	e3540000 	cmp	r4, #0
    9f78:	1a000005 	bne	9f94 <DWHCIDeviceSubmitAsyncRequest+0x4c>
    9f7c:	e3090dbc 	movw	r0, #40380	; 0x9dbc
    9f80:	e3400001 	movt	r0, #1
    9f84:	e3091cf0 	movw	r1, #40176	; 0x9cf0
    9f88:	e3401001 	movt	r1, #1
    9f8c:	e300215d 	movw	r2, #349	; 0x15d
    9f90:	eb0037e9 	bl	17f3c <uspi_assertion_failed>
    9f94:	e1a00004 	mov	r0, r4
    9f98:	eb0010b8 	bl	e280 <USBRequestGetEndpoint>
    9f9c:	eb000fd0 	bl	dee4 <USBEndpointGetType>
    9fa0:	e3500001 	cmp	r0, #1
    9fa4:	0a00000a 	beq	9fd4 <DWHCIDeviceSubmitAsyncRequest+0x8c>
    9fa8:	e1a00004 	mov	r0, r4
    9fac:	eb0010b3 	bl	e280 <USBRequestGetEndpoint>
    9fb0:	eb000fcb 	bl	dee4 <USBEndpointGetType>
    9fb4:	e3500002 	cmp	r0, #2
    9fb8:	0a000005 	beq	9fd4 <DWHCIDeviceSubmitAsyncRequest+0x8c>
    9fbc:	e3090dec 	movw	r0, #40428	; 0x9dec
    9fc0:	e3400001 	movt	r0, #1
    9fc4:	e3091cf0 	movw	r1, #40176	; 0x9cf0
    9fc8:	e3401001 	movt	r1, #1
    9fcc:	e300215f 	movw	r2, #351	; 0x15f
    9fd0:	eb0037d9 	bl	17f3c <uspi_assertion_failed>
    9fd4:	e1a00004 	mov	r0, r4
    9fd8:	eb001128 	bl	e480 <USBRequestGetBufLen>
    9fdc:	e3500000 	cmp	r0, #0
    9fe0:	1a000005 	bne	9ffc <DWHCIDeviceSubmitAsyncRequest+0xb4>
    9fe4:	e3090e80 	movw	r0, #40576	; 0x9e80
    9fe8:	e3400001 	movt	r0, #1
    9fec:	e3091cf0 	movw	r1, #40176	; 0x9cf0
    9ff0:	e3401001 	movt	r1, #1
    9ff4:	e3a02e16 	mov	r2, #352	; 0x160
    9ff8:	eb0037cf 	bl	17f3c <uspi_assertion_failed>
    9ffc:	e1a00004 	mov	r0, r4
    a000:	e3a01000 	mov	r1, #0
    a004:	eb0010b1 	bl	e2d0 <USBRequestSetStatus>
    a008:	e1a00004 	mov	r0, r4
    a00c:	eb00109b 	bl	e280 <USBRequestGetEndpoint>
    a010:	eb000fbe 	bl	df10 <USBEndpointIsDirectionIn>
    a014:	e1a02000 	mov	r2, r0
    a018:	e1a00005 	mov	r0, r5
    a01c:	e1a01004 	mov	r1, r4
    a020:	e3a03000 	mov	r3, #0
    a024:	ebffff59 	bl	9d90 <DWHCIDeviceTransferStageAsync>
    a028:	f57ff05f 	dmb	sy
    a02c:	e8bd8038 	pop	{r3, r4, r5, pc}

0000a030 <DWHCIDeviceTransferStage>:
    a030:	e92d40f8 	push	{r3, r4, r5, r6, r7, lr}
    a034:	e1a05001 	mov	r5, r1
    a038:	e1a07002 	mov	r7, r2
    a03c:	e1a06003 	mov	r6, r3
    a040:	e2504000 	subs	r4, r0, #0
    a044:	1a000005 	bne	a060 <DWHCIDeviceTransferStage+0x30>
    a048:	e3090ce4 	movw	r0, #40164	; 0x9ce4
    a04c:	e3400001 	movt	r0, #1
    a050:	e3091cf0 	movw	r1, #40176	; 0x9cf0
    a054:	e3401001 	movt	r1, #1
    a058:	e30022c7 	movw	r2, #711	; 0x2c7
    a05c:	eb0037b6 	bl	17f3c <uspi_assertion_failed>
    a060:	e3550000 	cmp	r5, #0
    a064:	1a000005 	bne	a080 <DWHCIDeviceTransferStage+0x50>
    a068:	e3090dbc 	movw	r0, #40380	; 0x9dbc
    a06c:	e3400001 	movt	r0, #1
    a070:	e3091cf0 	movw	r1, #40176	; 0x9cf0
    a074:	e3401001 	movt	r1, #1
    a078:	e30022c9 	movw	r2, #713	; 0x2c9
    a07c:	eb0037ae 	bl	17f3c <uspi_assertion_failed>
    a080:	e1a00005 	mov	r0, r5
    a084:	e309139c 	movw	r1, #37788	; 0x939c
    a088:	e3401000 	movt	r1, #0
    a08c:	e3a02000 	mov	r2, #0
    a090:	e1a03004 	mov	r3, r4
    a094:	eb001104 	bl	e4ac <USBRequestSetCompletionRoutine>
    a098:	e5943048 	ldr	r3, [r4, #72]	; 0x48
    a09c:	e3530000 	cmp	r3, #0
    a0a0:	0a000005 	beq	a0bc <DWHCIDeviceTransferStage+0x8c>
    a0a4:	e3090ea0 	movw	r0, #40608	; 0x9ea0
    a0a8:	e3400001 	movt	r0, #1
    a0ac:	e3091cf0 	movw	r1, #40176	; 0x9cf0
    a0b0:	e3401001 	movt	r1, #1
    a0b4:	e3a02fb3 	mov	r2, #716	; 0x2cc
    a0b8:	eb00379f 	bl	17f3c <uspi_assertion_failed>
    a0bc:	e3a03001 	mov	r3, #1
    a0c0:	e5843048 	str	r3, [r4, #72]	; 0x48
    a0c4:	e1a00004 	mov	r0, r4
    a0c8:	e1a01005 	mov	r1, r5
    a0cc:	e1a02007 	mov	r2, r7
    a0d0:	e1a03006 	mov	r3, r6
    a0d4:	ebffff2d 	bl	9d90 <DWHCIDeviceTransferStageAsync>
    a0d8:	e3500000 	cmp	r0, #0
    a0dc:	1a000002 	bne	a0ec <DWHCIDeviceTransferStage+0xbc>
    a0e0:	e3a03000 	mov	r3, #0
    a0e4:	e5843048 	str	r3, [r4, #72]	; 0x48
    a0e8:	e8bd80f8 	pop	{r3, r4, r5, r6, r7, pc}
    a0ec:	e5942048 	ldr	r2, [r4, #72]	; 0x48
    a0f0:	e3520000 	cmp	r2, #0
    a0f4:	1afffffc 	bne	a0ec <DWHCIDeviceTransferStage+0xbc>
    a0f8:	e1a00005 	mov	r0, r5
    a0fc:	eb00108b 	bl	e330 <USBRequestGetStatus>
    a100:	e8bd80f8 	pop	{r3, r4, r5, r6, r7, pc}

0000a104 <DWHCIDeviceSubmitBlockingRequest>:
    a104:	e92d4070 	push	{r4, r5, r6, lr}
    a108:	e1a04001 	mov	r4, r1
    a10c:	e2505000 	subs	r5, r0, #0
    a110:	1a000005 	bne	a12c <DWHCIDeviceSubmitBlockingRequest+0x28>
    a114:	e3090ce4 	movw	r0, #40164	; 0x9ce4
    a118:	e3400001 	movt	r0, #1
    a11c:	e3091cf0 	movw	r1, #40176	; 0x9cf0
    a120:	e3401001 	movt	r1, #1
    a124:	e300211a 	movw	r2, #282	; 0x11a
    a128:	eb003783 	bl	17f3c <uspi_assertion_failed>
    a12c:	f57ff05f 	dmb	sy
    a130:	e3540000 	cmp	r4, #0
    a134:	1a000005 	bne	a150 <DWHCIDeviceSubmitBlockingRequest+0x4c>
    a138:	e3090dbc 	movw	r0, #40380	; 0x9dbc
    a13c:	e3400001 	movt	r0, #1
    a140:	e3091cf0 	movw	r1, #40176	; 0x9cf0
    a144:	e3401001 	movt	r1, #1
    a148:	e300211e 	movw	r2, #286	; 0x11e
    a14c:	eb00377a 	bl	17f3c <uspi_assertion_failed>
    a150:	e1a00004 	mov	r0, r4
    a154:	e3a01000 	mov	r1, #0
    a158:	eb00105c 	bl	e2d0 <USBRequestSetStatus>
    a15c:	e1a00004 	mov	r0, r4
    a160:	eb001046 	bl	e280 <USBRequestGetEndpoint>
    a164:	eb000f5e 	bl	dee4 <USBEndpointGetType>
    a168:	e3500000 	cmp	r0, #0
    a16c:	1a000055 	bne	a2c8 <DWHCIDeviceSubmitBlockingRequest+0x1c4>
    a170:	e1a00004 	mov	r0, r4
    a174:	eb00108c 	bl	e3ac <USBRequestGetSetupData>
    a178:	e2506000 	subs	r6, r0, #0
    a17c:	1a000005 	bne	a198 <DWHCIDeviceSubmitBlockingRequest+0x94>
    a180:	e3090eb4 	movw	r0, #40628	; 0x9eb4
    a184:	e3400001 	movt	r0, #1
    a188:	e3091cf0 	movw	r1, #40176	; 0x9cf0
    a18c:	e3401001 	movt	r1, #1
    a190:	e3a02f49 	mov	r2, #292	; 0x124
    a194:	eb003768 	bl	17f3c <uspi_assertion_failed>
    a198:	e1d630d0 	ldrsb	r3, [r6]
    a19c:	e3530000 	cmp	r3, #0
    a1a0:	aa00001f 	bge	a224 <DWHCIDeviceSubmitBlockingRequest+0x120>
    a1a4:	e1a00004 	mov	r0, r4
    a1a8:	eb0010b4 	bl	e480 <USBRequestGetBufLen>
    a1ac:	e3500000 	cmp	r0, #0
    a1b0:	1a000005 	bne	a1cc <DWHCIDeviceSubmitBlockingRequest+0xc8>
    a1b4:	e3090e80 	movw	r0, #40576	; 0x9e80
    a1b8:	e3400001 	movt	r0, #1
    a1bc:	e3091cf0 	movw	r1, #40176	; 0x9cf0
    a1c0:	e3401001 	movt	r1, #1
    a1c4:	e3a02f4a 	mov	r2, #296	; 0x128
    a1c8:	eb00375b 	bl	17f3c <uspi_assertion_failed>
    a1cc:	e1a00005 	mov	r0, r5
    a1d0:	e1a01004 	mov	r1, r4
    a1d4:	e3a02000 	mov	r2, #0
    a1d8:	e1a03002 	mov	r3, r2
    a1dc:	ebffff93 	bl	a030 <DWHCIDeviceTransferStage>
    a1e0:	e3500000 	cmp	r0, #0
    a1e4:	08bd8070 	popeq	{r4, r5, r6, pc}
    a1e8:	e1a00005 	mov	r0, r5
    a1ec:	e1a01004 	mov	r1, r4
    a1f0:	e3a02001 	mov	r2, #1
    a1f4:	e3a03000 	mov	r3, #0
    a1f8:	ebffff8c 	bl	a030 <DWHCIDeviceTransferStage>
    a1fc:	e3500000 	cmp	r0, #0
    a200:	08bd8070 	popeq	{r4, r5, r6, pc}
    a204:	e1a00005 	mov	r0, r5
    a208:	e1a01004 	mov	r1, r4
    a20c:	e3a02000 	mov	r2, #0
    a210:	e3a03001 	mov	r3, #1
    a214:	ebffff85 	bl	a030 <DWHCIDeviceTransferStage>
    a218:	e3500000 	cmp	r0, #0
    a21c:	1a00004d 	bne	a358 <DWHCIDeviceSubmitBlockingRequest+0x254>
    a220:	e8bd8070 	pop	{r4, r5, r6, pc}
    a224:	e1a00004 	mov	r0, r4
    a228:	eb001094 	bl	e480 <USBRequestGetBufLen>
    a22c:	e3500000 	cmp	r0, #0
    a230:	1a00000e 	bne	a270 <DWHCIDeviceSubmitBlockingRequest+0x16c>
    a234:	e1a00005 	mov	r0, r5
    a238:	e1a01004 	mov	r1, r4
    a23c:	e3a02000 	mov	r2, #0
    a240:	e1a03002 	mov	r3, r2
    a244:	ebffff79 	bl	a030 <DWHCIDeviceTransferStage>
    a248:	e3500000 	cmp	r0, #0
    a24c:	08bd8070 	popeq	{r4, r5, r6, pc}
    a250:	e1a00005 	mov	r0, r5
    a254:	e1a01004 	mov	r1, r4
    a258:	e3a02001 	mov	r2, #1
    a25c:	e1a03002 	mov	r3, r2
    a260:	ebffff72 	bl	a030 <DWHCIDeviceTransferStage>
    a264:	e3500000 	cmp	r0, #0
    a268:	1a00003a 	bne	a358 <DWHCIDeviceSubmitBlockingRequest+0x254>
    a26c:	e8bd8070 	pop	{r4, r5, r6, pc}
    a270:	e1a00005 	mov	r0, r5
    a274:	e1a01004 	mov	r1, r4
    a278:	e3a02000 	mov	r2, #0
    a27c:	e1a03002 	mov	r3, r2
    a280:	ebffff6a 	bl	a030 <DWHCIDeviceTransferStage>
    a284:	e3500000 	cmp	r0, #0
    a288:	08bd8070 	popeq	{r4, r5, r6, pc}
    a28c:	e1a00005 	mov	r0, r5
    a290:	e1a01004 	mov	r1, r4
    a294:	e3a02000 	mov	r2, #0
    a298:	e1a03002 	mov	r3, r2
    a29c:	ebffff63 	bl	a030 <DWHCIDeviceTransferStage>
    a2a0:	e3500000 	cmp	r0, #0
    a2a4:	08bd8070 	popeq	{r4, r5, r6, pc}
    a2a8:	e1a00005 	mov	r0, r5
    a2ac:	e1a01004 	mov	r1, r4
    a2b0:	e3a02001 	mov	r2, #1
    a2b4:	e1a03002 	mov	r3, r2
    a2b8:	ebffff5c 	bl	a030 <DWHCIDeviceTransferStage>
    a2bc:	e3500000 	cmp	r0, #0
    a2c0:	1a000024 	bne	a358 <DWHCIDeviceSubmitBlockingRequest+0x254>
    a2c4:	e8bd8070 	pop	{r4, r5, r6, pc}
    a2c8:	e1a00004 	mov	r0, r4
    a2cc:	eb000feb 	bl	e280 <USBRequestGetEndpoint>
    a2d0:	eb000f03 	bl	dee4 <USBEndpointGetType>
    a2d4:	e3500001 	cmp	r0, #1
    a2d8:	0a00000a 	beq	a308 <DWHCIDeviceSubmitBlockingRequest+0x204>
    a2dc:	e1a00004 	mov	r0, r4
    a2e0:	eb000fe6 	bl	e280 <USBRequestGetEndpoint>
    a2e4:	eb000efe 	bl	dee4 <USBEndpointGetType>
    a2e8:	e3500002 	cmp	r0, #2
    a2ec:	0a000005 	beq	a308 <DWHCIDeviceSubmitBlockingRequest+0x204>
    a2f0:	e3090dec 	movw	r0, #40428	; 0x9dec
    a2f4:	e3400001 	movt	r0, #1
    a2f8:	e3091cf0 	movw	r1, #40176	; 0x9cf0
    a2fc:	e3401001 	movt	r1, #1
    a300:	e3002149 	movw	r2, #329	; 0x149
    a304:	eb00370c 	bl	17f3c <uspi_assertion_failed>
    a308:	e1a00004 	mov	r0, r4
    a30c:	eb00105b 	bl	e480 <USBRequestGetBufLen>
    a310:	e3500000 	cmp	r0, #0
    a314:	1a000005 	bne	a330 <DWHCIDeviceSubmitBlockingRequest+0x22c>
    a318:	e3090e80 	movw	r0, #40576	; 0x9e80
    a31c:	e3400001 	movt	r0, #1
    a320:	e3091cf0 	movw	r1, #40176	; 0x9cf0
    a324:	e3401001 	movt	r1, #1
    a328:	e300214a 	movw	r2, #330	; 0x14a
    a32c:	eb003702 	bl	17f3c <uspi_assertion_failed>
    a330:	e1a00004 	mov	r0, r4
    a334:	eb000fd1 	bl	e280 <USBRequestGetEndpoint>
    a338:	eb000ef4 	bl	df10 <USBEndpointIsDirectionIn>
    a33c:	e1a02000 	mov	r2, r0
    a340:	e1a00005 	mov	r0, r5
    a344:	e1a01004 	mov	r1, r4
    a348:	e3a03000 	mov	r3, #0
    a34c:	ebffff37 	bl	a030 <DWHCIDeviceTransferStage>
    a350:	e3500000 	cmp	r0, #0
    a354:	08bd8070 	popeq	{r4, r5, r6, pc}
    a358:	f57ff05f 	dmb	sy
    a35c:	e3a00001 	mov	r0, #1
    a360:	e8bd8070 	pop	{r4, r5, r6, pc}

0000a364 <DWHCIDeviceControlMessage>:
    a364:	e92d43f0 	push	{r4, r5, r6, r7, r8, r9, lr}
    a368:	e24dd034 	sub	sp, sp, #52	; 0x34
    a36c:	e1a07001 	mov	r7, r1
    a370:	e1a09002 	mov	r9, r2
    a374:	e1a08003 	mov	r8, r3
    a378:	e1dd55bc 	ldrh	r5, [sp, #92]	; 0x5c
    a37c:	e2506000 	subs	r6, r0, #0
    a380:	1a000005 	bne	a39c <DWHCIDeviceControlMessage+0x38>
    a384:	e3090ce4 	movw	r0, #40164	; 0x9ce4
    a388:	e3400001 	movt	r0, #1
    a38c:	e3091cf0 	movw	r1, #40176	; 0x9cf0
    a390:	e3401001 	movt	r1, #1
    a394:	e3a020e9 	mov	r2, #233	; 0xe9
    a398:	eb0036e7 	bl	17f3c <uspi_assertion_failed>
    a39c:	e3a00008 	mov	r0, #8
    a3a0:	eb002e2f 	bl	15c64 <malloc>
    a3a4:	e2504000 	subs	r4, r0, #0
    a3a8:	1a000005 	bne	a3c4 <DWHCIDeviceControlMessage+0x60>
    a3ac:	e3090eb4 	movw	r0, #40628	; 0x9eb4
    a3b0:	e3400001 	movt	r0, #1
    a3b4:	e3091cf0 	movw	r1, #40176	; 0x9cf0
    a3b8:	e3401001 	movt	r1, #1
    a3bc:	e3a020ec 	mov	r2, #236	; 0xec
    a3c0:	eb0036dd 	bl	17f3c <uspi_assertion_failed>
    a3c4:	e5c49000 	strb	r9, [r4]
    a3c8:	e5c48001 	strb	r8, [r4, #1]
    a3cc:	e1dd35b0 	ldrh	r3, [sp, #80]	; 0x50
    a3d0:	e1c430b2 	strh	r3, [r4, #2]
    a3d4:	e1dd35b4 	ldrh	r3, [sp, #84]	; 0x54
    a3d8:	e1c430b4 	strh	r3, [r4, #4]
    a3dc:	e1c450b6 	strh	r5, [r4, #6]
    a3e0:	e58d4000 	str	r4, [sp]
    a3e4:	e28d000c 	add	r0, sp, #12
    a3e8:	e1a01007 	mov	r1, r7
    a3ec:	e59d2058 	ldr	r2, [sp, #88]	; 0x58
    a3f0:	e1a03005 	mov	r3, r5
    a3f4:	eb000f66 	bl	e194 <USBRequest>
    a3f8:	e1a00006 	mov	r0, r6
    a3fc:	e28d100c 	add	r1, sp, #12
    a400:	ebffff3f 	bl	a104 <DWHCIDeviceSubmitBlockingRequest>
    a404:	e3500000 	cmp	r0, #0
    a408:	0a000003 	beq	a41c <DWHCIDeviceControlMessage+0xb8>
    a40c:	e28d000c 	add	r0, sp, #12
    a410:	eb000fd1 	bl	e35c <USBRequestGetResultLength>
    a414:	e1a05000 	mov	r5, r0
    a418:	ea000000 	b	a420 <DWHCIDeviceControlMessage+0xbc>
    a41c:	e3e05000 	mvn	r5, #0
    a420:	e1a00004 	mov	r0, r4
    a424:	eb002e6a 	bl	15dd4 <free>
    a428:	e28d000c 	add	r0, sp, #12
    a42c:	eb000f84 	bl	e244 <_USBRequest>
    a430:	e1a00005 	mov	r0, r5
    a434:	e28dd034 	add	sp, sp, #52	; 0x34
    a438:	e8bd83f0 	pop	{r4, r5, r6, r7, r8, r9, pc}

0000a43c <DWHCIDeviceGetDescriptor>:
    a43c:	e92d40f0 	push	{r4, r5, r6, r7, lr}
    a440:	e24dd014 	sub	sp, sp, #20
    a444:	e1a05001 	mov	r5, r1
    a448:	e1a07002 	mov	r7, r2
    a44c:	e1a04003 	mov	r4, r3
    a450:	e2506000 	subs	r6, r0, #0
    a454:	1a000005 	bne	a470 <DWHCIDeviceGetDescriptor+0x34>
    a458:	e3090ce4 	movw	r0, #40164	; 0x9ce4
    a45c:	e3400001 	movt	r0, #1
    a460:	e3091cf0 	movw	r1, #40176	; 0x9cf0
    a464:	e3401001 	movt	r1, #1
    a468:	e3a020c1 	mov	r2, #193	; 0xc1
    a46c:	eb0036b2 	bl	17f3c <uspi_assertion_failed>
    a470:	e1844407 	orr	r4, r4, r7, lsl #8
    a474:	e58d4000 	str	r4, [sp]
    a478:	e3a03000 	mov	r3, #0
    a47c:	e58d3004 	str	r3, [sp, #4]
    a480:	e59d3028 	ldr	r3, [sp, #40]	; 0x28
    a484:	e58d3008 	str	r3, [sp, #8]
    a488:	e1dd32bc 	ldrh	r3, [sp, #44]	; 0x2c
    a48c:	e58d300c 	str	r3, [sp, #12]
    a490:	e1a00006 	mov	r0, r6
    a494:	e1a01005 	mov	r1, r5
    a498:	e5dd2030 	ldrb	r2, [sp, #48]	; 0x30
    a49c:	e3a03006 	mov	r3, #6
    a4a0:	ebffffaf 	bl	a364 <DWHCIDeviceControlMessage>
    a4a4:	e28dd014 	add	sp, sp, #20
    a4a8:	e8bd80f0 	pop	{r4, r5, r6, r7, pc}

0000a4ac <DWHCIDeviceSetAddress>:
    a4ac:	e92d4070 	push	{r4, r5, r6, lr}
    a4b0:	e24dd010 	sub	sp, sp, #16
    a4b4:	e1a04001 	mov	r4, r1
    a4b8:	e1a06002 	mov	r6, r2
    a4bc:	e2505000 	subs	r5, r0, #0
    a4c0:	1a000005 	bne	a4dc <DWHCIDeviceSetAddress+0x30>
    a4c4:	e3090ce4 	movw	r0, #40164	; 0x9ce4
    a4c8:	e3400001 	movt	r0, #1
    a4cc:	e3091cf0 	movw	r1, #40176	; 0x9cf0
    a4d0:	e3401001 	movt	r1, #1
    a4d4:	e3a020cb 	mov	r2, #203	; 0xcb
    a4d8:	eb003697 	bl	17f3c <uspi_assertion_failed>
    a4dc:	e58d6000 	str	r6, [sp]
    a4e0:	e3a02000 	mov	r2, #0
    a4e4:	e58d2004 	str	r2, [sp, #4]
    a4e8:	e58d2008 	str	r2, [sp, #8]
    a4ec:	e58d200c 	str	r2, [sp, #12]
    a4f0:	e1a00005 	mov	r0, r5
    a4f4:	e1a01004 	mov	r1, r4
    a4f8:	e3a03005 	mov	r3, #5
    a4fc:	ebffff98 	bl	a364 <DWHCIDeviceControlMessage>
    a500:	e3500000 	cmp	r0, #0
    a504:	b3a00000 	movlt	r0, #0
    a508:	ba000003 	blt	a51c <DWHCIDeviceSetAddress+0x70>
    a50c:	e3a00032 	mov	r0, #50	; 0x32
    a510:	eb003612 	bl	17d60 <MsDelay>
    a514:	e3a00001 	mov	r0, #1
    a518:	eaffffff 	b	a51c <DWHCIDeviceSetAddress+0x70>
    a51c:	e28dd010 	add	sp, sp, #16
    a520:	e8bd8070 	pop	{r4, r5, r6, pc}

0000a524 <DWHCIDeviceSetConfiguration>:
    a524:	e92d4070 	push	{r4, r5, r6, lr}
    a528:	e24dd010 	sub	sp, sp, #16
    a52c:	e1a04001 	mov	r4, r1
    a530:	e1a06002 	mov	r6, r2
    a534:	e2505000 	subs	r5, r0, #0
    a538:	1a000005 	bne	a554 <DWHCIDeviceSetConfiguration+0x30>
    a53c:	e3090ce4 	movw	r0, #40164	; 0x9ce4
    a540:	e3400001 	movt	r0, #1
    a544:	e3091cf0 	movw	r1, #40176	; 0x9cf0
    a548:	e3401001 	movt	r1, #1
    a54c:	e3a020d9 	mov	r2, #217	; 0xd9
    a550:	eb003679 	bl	17f3c <uspi_assertion_failed>
    a554:	e58d6000 	str	r6, [sp]
    a558:	e3a02000 	mov	r2, #0
    a55c:	e58d2004 	str	r2, [sp, #4]
    a560:	e58d2008 	str	r2, [sp, #8]
    a564:	e58d200c 	str	r2, [sp, #12]
    a568:	e1a00005 	mov	r0, r5
    a56c:	e1a01004 	mov	r1, r4
    a570:	e3a03009 	mov	r3, #9
    a574:	ebffff7a 	bl	a364 <DWHCIDeviceControlMessage>
    a578:	e3500000 	cmp	r0, #0
    a57c:	b3a00000 	movlt	r0, #0
    a580:	ba000003 	blt	a594 <DWHCIDeviceSetConfiguration+0x70>
    a584:	e3a00032 	mov	r0, #50	; 0x32
    a588:	eb0035f4 	bl	17d60 <MsDelay>
    a58c:	e3a00001 	mov	r0, #1
    a590:	eaffffff 	b	a594 <DWHCIDeviceSetConfiguration+0x70>
    a594:	e28dd010 	add	sp, sp, #16
    a598:	e8bd8070 	pop	{r4, r5, r6, pc}

0000a59c <DWHCIDeviceTransfer>:
    a59c:	e92d40f0 	push	{r4, r5, r6, r7, lr}
    a5a0:	e24dd034 	sub	sp, sp, #52	; 0x34
    a5a4:	e1a07001 	mov	r7, r1
    a5a8:	e1a06002 	mov	r6, r2
    a5ac:	e1a05003 	mov	r5, r3
    a5b0:	e2504000 	subs	r4, r0, #0
    a5b4:	1a000005 	bne	a5d0 <DWHCIDeviceTransfer+0x34>
    a5b8:	e3090ce4 	movw	r0, #40164	; 0x9ce4
    a5bc:	e3400001 	movt	r0, #1
    a5c0:	e3091cf0 	movw	r1, #40176	; 0x9cf0
    a5c4:	e3401001 	movt	r1, #1
    a5c8:	e3002107 	movw	r2, #263	; 0x107
    a5cc:	eb00365a 	bl	17f3c <uspi_assertion_failed>
    a5d0:	e3a03000 	mov	r3, #0
    a5d4:	e58d3000 	str	r3, [sp]
    a5d8:	e28d000c 	add	r0, sp, #12
    a5dc:	e1a01007 	mov	r1, r7
    a5e0:	e1a02006 	mov	r2, r6
    a5e4:	e1a03005 	mov	r3, r5
    a5e8:	eb000ee9 	bl	e194 <USBRequest>
    a5ec:	e1a00004 	mov	r0, r4
    a5f0:	e28d100c 	add	r1, sp, #12
    a5f4:	ebfffec2 	bl	a104 <DWHCIDeviceSubmitBlockingRequest>
    a5f8:	e3500000 	cmp	r0, #0
    a5fc:	0a000003 	beq	a610 <DWHCIDeviceTransfer+0x74>
    a600:	e28d000c 	add	r0, sp, #12
    a604:	eb000f54 	bl	e35c <USBRequestGetResultLength>
    a608:	e1a04000 	mov	r4, r0
    a60c:	ea000000 	b	a614 <DWHCIDeviceTransfer+0x78>
    a610:	e3e04000 	mvn	r4, #0
    a614:	e28d000c 	add	r0, sp, #12
    a618:	eb000f09 	bl	e244 <_USBRequest>
    a61c:	e1a00004 	mov	r0, r4
    a620:	e28dd034 	add	sp, sp, #52	; 0x34
    a624:	e8bd80f0 	pop	{r4, r5, r6, r7, pc}

0000a628 <DWHCIDeviceChannelInterruptHandler>:
    a628:	e92d4ff0 	push	{r4, r5, r6, r7, r8, r9, sl, fp, lr}
    a62c:	e24dd01c 	sub	sp, sp, #28
    a630:	e1a06001 	mov	r6, r1
    a634:	e2505000 	subs	r5, r0, #0
    a638:	1a000005 	bne	a654 <DWHCIDeviceChannelInterruptHandler+0x2c>
    a63c:	e3090ce4 	movw	r0, #40164	; 0x9ce4
    a640:	e3400001 	movt	r0, #1
    a644:	e3091cf0 	movw	r1, #40176	; 0x9cf0
    a648:	e3401001 	movt	r1, #1
    a64c:	e3a02fef 	mov	r2, #956	; 0x3bc
    a650:	eb003639 	bl	17f3c <uspi_assertion_failed>
    a654:	e0857106 	add	r7, r5, r6, lsl #2
    a658:	e5974008 	ldr	r4, [r7, #8]
    a65c:	e3540000 	cmp	r4, #0
    a660:	1a000005 	bne	a67c <DWHCIDeviceChannelInterruptHandler+0x54>
    a664:	e3090d00 	movw	r0, #40192	; 0x9d00
    a668:	e3400001 	movt	r0, #1
    a66c:	e3091cf0 	movw	r1, #40176	; 0x9cf0
    a670:	e3401001 	movt	r1, #1
    a674:	e30023bf 	movw	r2, #959	; 0x3bf
    a678:	eb00362f 	bl	17f3c <uspi_assertion_failed>
    a67c:	e1a00004 	mov	r0, r4
    a680:	eb0009b0 	bl	cd48 <DWHCITransferStageDataGetFrameScheduler>
    a684:	e1a09000 	mov	r9, r0
    a688:	e1a00004 	mov	r0, r4
    a68c:	eb000999 	bl	ccf8 <DWHCITransferStageDataGetURB>
    a690:	e2508000 	subs	r8, r0, #0
    a694:	1a000005 	bne	a6b0 <DWHCIDeviceChannelInterruptHandler+0x88>
    a698:	e3090dbc 	movw	r0, #40380	; 0x9dbc
    a69c:	e3400001 	movt	r0, #1
    a6a0:	e3091cf0 	movw	r1, #40176	; 0x9cf0
    a6a4:	e3401001 	movt	r1, #1
    a6a8:	e30023c2 	movw	r2, #962	; 0x3c2
    a6ac:	eb003622 	bl	17f3c <uspi_assertion_failed>
    a6b0:	e1a00004 	mov	r0, r4
    a6b4:	eb00070c 	bl	c2ec <DWHCITransferStageDataGetSubState>
    a6b8:	e3500000 	cmp	r0, #0
    a6bc:	0a000002 	beq	a6cc <DWHCIDeviceChannelInterruptHandler+0xa4>
    a6c0:	e3500001 	cmp	r0, #1
    a6c4:	0a000004 	beq	a6dc <DWHCIDeviceChannelInterruptHandler+0xb4>
    a6c8:	ea000042 	b	a7d8 <DWHCIDeviceChannelInterruptHandler+0x1b0>
    a6cc:	e1a00005 	mov	r0, r5
    a6d0:	e1a01004 	mov	r1, r4
    a6d4:	ebfffbde 	bl	9654 <DWHCIDeviceStartChannel>
    a6d8:	ea000149 	b	ac04 <DWHCIDeviceChannelInterruptHandler+0x5dc>
    a6dc:	e1a00004 	mov	r0, r4
    a6e0:	eb0008a6 	bl	c980 <DWHCITransferStageDataGetDMAAddress>
    a6e4:	e1a0a000 	mov	sl, r0
    a6e8:	e1a00004 	mov	r0, r4
    a6ec:	eb0008b7 	bl	c9d0 <DWHCITransferStageDataGetBytesToTransfer>
    a6f0:	e1a01000 	mov	r1, r0
    a6f4:	e1a0000a 	mov	r0, sl
    a6f8:	eb00254d 	bl	13c34 <uspi_CleanAndInvalidateDataCacheRange>
    a6fc:	f57ff05f 	dmb	sy
    a700:	e1a0a286 	lsl	sl, r6, #5
    a704:	e1a0000d 	mov	r0, sp
    a708:	e3a01e51 	mov	r1, #1296	; 0x510
    a70c:	e3431f98 	movt	r1, #16280	; 0x3f98
    a710:	e08a1001 	add	r1, sl, r1
    a714:	eb000511 	bl	bb60 <DWHCIRegister>
    a718:	e1a0000d 	mov	r0, sp
    a71c:	eb000539 	bl	bc08 <DWHCIRegisterRead>
    a720:	e28d000c 	add	r0, sp, #12
    a724:	e3001508 	movw	r1, #1288	; 0x508
    a728:	e3431f98 	movt	r1, #16280	; 0x3f98
    a72c:	e08a1001 	add	r1, sl, r1
    a730:	eb00050a 	bl	bb60 <DWHCIRegister>
    a734:	e28d000c 	add	r0, sp, #12
    a738:	eb000532 	bl	bc08 <DWHCIRegisterRead>
    a73c:	e3500002 	cmp	r0, #2
    a740:	1a000003 	bne	a754 <DWHCIDeviceChannelInterruptHandler+0x12c>
    a744:	e1a00005 	mov	r0, r5
    a748:	e1a01004 	mov	r1, r4
    a74c:	ebfffcb6 	bl	9a2c <DWHCIDeviceStartTransaction>
    a750:	ea00012b 	b	ac04 <DWHCIDeviceChannelInterruptHandler+0x5dc>
    a754:	e1a00004 	mov	r0, r4
    a758:	eb0006fb 	bl	c34c <DWHCITransferStageDataIsPeriodic>
    a75c:	e3500000 	cmp	r0, #0
    a760:	0a00000a 	beq	a790 <DWHCIDeviceChannelInterruptHandler+0x168>
    a764:	e1a0000d 	mov	r0, sp
    a768:	eb00054b 	bl	bc9c <DWHCIRegisterGet>
    a76c:	e7e10ed0 	ubfx	r0, r0, #29, #2
    a770:	e3500003 	cmp	r0, #3
    a774:	1a000005 	bne	a790 <DWHCIDeviceChannelInterruptHandler+0x168>
    a778:	e3090ec0 	movw	r0, #40640	; 0x9ec0
    a77c:	e3400001 	movt	r0, #1
    a780:	e3091cf0 	movw	r1, #40176	; 0x9cf0
    a784:	e3401001 	movt	r1, #1
    a788:	e30023df 	movw	r2, #991	; 0x3df
    a78c:	eb0035ea 	bl	17f3c <uspi_assertion_failed>
    a790:	e28d000c 	add	r0, sp, #12
    a794:	eb00051b 	bl	bc08 <DWHCIRegisterRead>
    a798:	e1a0b000 	mov	fp, r0
    a79c:	e1a0000d 	mov	r0, sp
    a7a0:	eb00053d 	bl	bc9c <DWHCIRegisterGet>
    a7a4:	e1a0a000 	mov	sl, r0
    a7a8:	e1a0000d 	mov	r0, sp
    a7ac:	eb00053a 	bl	bc9c <DWHCIRegisterGet>
    a7b0:	e7f23050 	ubfx	r3, r0, #0, #19
    a7b4:	e1a00004 	mov	r0, r4
    a7b8:	e1a0100b 	mov	r1, fp
    a7bc:	e7e929da 	ubfx	r2, sl, #19, #10
    a7c0:	eb00063a 	bl	c0b0 <DWHCITransferStageDataTransactionComplete>
    a7c4:	e28d000c 	add	r0, sp, #12
    a7c8:	eb000502 	bl	bbd8 <_DWHCIRegister>
    a7cc:	e1a0000d 	mov	r0, sp
    a7d0:	eb000500 	bl	bbd8 <_DWHCIRegister>
    a7d4:	ea000005 	b	a7f0 <DWHCIDeviceChannelInterruptHandler+0x1c8>
    a7d8:	e30b0e18 	movw	r0, #48664	; 0xbe18
    a7dc:	e3400001 	movt	r0, #1
    a7e0:	e3091cf0 	movw	r1, #40176	; 0x9cf0
    a7e4:	e3401001 	movt	r1, #1
    a7e8:	e30023ea 	movw	r2, #1002	; 0x3ea
    a7ec:	eb0035d2 	bl	17f3c <uspi_assertion_failed>
    a7f0:	e1a00004 	mov	r0, r4
    a7f4:	eb0006a5 	bl	c290 <DWHCITransferStageDataGetState>
    a7f8:	e3500001 	cmp	r0, #1
    a7fc:	0a000046 	beq	a91c <DWHCIDeviceChannelInterruptHandler+0x2f4>
    a800:	3a000002 	bcc	a810 <DWHCIDeviceChannelInterruptHandler+0x1e8>
    a804:	e3500002 	cmp	r0, #2
    a808:	0a000074 	beq	a9e0 <DWHCIDeviceChannelInterruptHandler+0x3b8>
    a80c:	ea0000f6 	b	abec <DWHCIDeviceChannelInterruptHandler+0x5c4>
    a810:	e1a00004 	mov	r0, r4
    a814:	eb000908 	bl	cc3c <DWHCITransferStageDataGetTransactionStatus>
    a818:	e1a03000 	mov	r3, r0
    a81c:	e300278c 	movw	r2, #1932	; 0x78c
    a820:	e1100002 	tst	r0, r2
    a824:	0a000009 	beq	a850 <DWHCIDeviceChannelInterruptHandler+0x228>
    a828:	e3090cdc 	movw	r0, #40156	; 0x9cdc
    a82c:	e3400001 	movt	r0, #1
    a830:	e3a01001 	mov	r1, #1
    a834:	e3092f58 	movw	r2, #40792	; 0x9f58
    a838:	e3402001 	movt	r2, #1
    a83c:	eb0035ac 	bl	17ef4 <LogWrite>
    a840:	e1a00008 	mov	r0, r8
    a844:	e3a01000 	mov	r1, #0
    a848:	eb000ea0 	bl	e2d0 <USBRequestSetStatus>
    a84c:	ea000023 	b	a8e0 <DWHCIDeviceChannelInterruptHandler+0x2b8>
    a850:	e3100050 	tst	r0, #80	; 0x50
    a854:	0a000015 	beq	a8b0 <DWHCIDeviceChannelInterruptHandler+0x288>
    a858:	e1a00004 	mov	r0, r4
    a85c:	eb0006ba 	bl	c34c <DWHCITransferStageDataIsPeriodic>
    a860:	e3500000 	cmp	r0, #0
    a864:	0a000011 	beq	a8b0 <DWHCIDeviceChannelInterruptHandler+0x288>
    a868:	e1a00004 	mov	r0, r4
    a86c:	e3a01003 	mov	r1, #3
    a870:	eb00067a 	bl	c260 <DWHCITransferStageDataSetState>
    a874:	e1a00008 	mov	r0, r8
    a878:	eb000e80 	bl	e280 <USBRequestGetEndpoint>
    a87c:	eb000dc5 	bl	df98 <USBEndpointGetInterval>
    a880:	e3a03064 	mov	r3, #100	; 0x64
    a884:	e0000093 	mul	r0, r3, r0
    a888:	e3042dd3 	movw	r2, #19923	; 0x4dd3
    a88c:	e3412062 	movt	r2, #4194	; 0x1062
    a890:	e0832290 	umull	r2, r3, r0, r2
    a894:	e1a00323 	lsr	r0, r3, #6
    a898:	e3091b54 	movw	r1, #39764	; 0x9b54
    a89c:	e3401000 	movt	r1, #0
    a8a0:	e1a02004 	mov	r2, r4
    a8a4:	e1a03005 	mov	r3, r5
    a8a8:	eb003538 	bl	17d90 <StartKernelTimer>
    a8ac:	ea0000d4 	b	ac04 <DWHCIDeviceChannelInterruptHandler+0x5dc>
    a8b0:	e1a00004 	mov	r0, r4
    a8b4:	eb000826 	bl	c954 <DWHCITransferStageDataIsStatusStage>
    a8b8:	e3500000 	cmp	r0, #0
    a8bc:	1a000004 	bne	a8d4 <DWHCIDeviceChannelInterruptHandler+0x2ac>
    a8c0:	e1a00004 	mov	r0, r4
    a8c4:	eb0008fd 	bl	ccc0 <DWHCITransferStageDataGetResultLen>
    a8c8:	e1a01000 	mov	r1, r0
    a8cc:	e1a00008 	mov	r0, r8
    a8d0:	eb000e8a 	bl	e300 <USBRequestSetResultLen>
    a8d4:	e1a00008 	mov	r0, r8
    a8d8:	e3a01001 	mov	r1, #1
    a8dc:	eb000e7b 	bl	e2d0 <USBRequestSetStatus>
    a8e0:	e1a00005 	mov	r0, r5
    a8e4:	e1a01006 	mov	r1, r6
    a8e8:	ebfffb3c 	bl	95e0 <DWHCIDeviceDisableChannelInterrupt>
    a8ec:	e1a00004 	mov	r0, r4
    a8f0:	eb0005cf 	bl	c034 <_DWHCITransferStageData>
    a8f4:	e1a00004 	mov	r0, r4
    a8f8:	eb002d35 	bl	15dd4 <free>
    a8fc:	e3a03000 	mov	r3, #0
    a900:	e5873008 	str	r3, [r7, #8]
    a904:	e1a00005 	mov	r0, r5
    a908:	e1a01006 	mov	r1, r6
    a90c:	ebfffcfb 	bl	9d00 <DWHCIDeviceFreeChannel>
    a910:	e1a00008 	mov	r0, r8
    a914:	eb000efc 	bl	e50c <USBRequestCallCompletionRoutine>
    a918:	ea0000b9 	b	ac04 <DWHCIDeviceChannelInterruptHandler+0x5dc>
    a91c:	e1a00004 	mov	r0, r4
    a920:	eb0008c5 	bl	cc3c <DWHCITransferStageDataGetTransactionStatus>
    a924:	e1a03000 	mov	r3, r0
    a928:	e30027dc 	movw	r2, #2012	; 0x7dc
    a92c:	e1100002 	tst	r0, r2
    a930:	0a000017 	beq	a994 <DWHCIDeviceChannelInterruptHandler+0x36c>
    a934:	e3090cdc 	movw	r0, #40156	; 0x9cdc
    a938:	e3400001 	movt	r0, #1
    a93c:	e3a01001 	mov	r1, #1
    a940:	e3092f58 	movw	r2, #40792	; 0x9f58
    a944:	e3402001 	movt	r2, #1
    a948:	eb003569 	bl	17ef4 <LogWrite>
    a94c:	e1a00008 	mov	r0, r8
    a950:	e3a01000 	mov	r1, #0
    a954:	eb000e5d 	bl	e2d0 <USBRequestSetStatus>
    a958:	e1a00005 	mov	r0, r5
    a95c:	e1a01006 	mov	r1, r6
    a960:	ebfffb1e 	bl	95e0 <DWHCIDeviceDisableChannelInterrupt>
    a964:	e1a00004 	mov	r0, r4
    a968:	eb0005b1 	bl	c034 <_DWHCITransferStageData>
    a96c:	e1a00004 	mov	r0, r4
    a970:	eb002d17 	bl	15dd4 <free>
    a974:	e3a03000 	mov	r3, #0
    a978:	e5873008 	str	r3, [r7, #8]
    a97c:	e1a00005 	mov	r0, r5
    a980:	e1a01006 	mov	r1, r6
    a984:	ebfffcdd 	bl	9d00 <DWHCIDeviceFreeChannel>
    a988:	e1a00008 	mov	r0, r8
    a98c:	eb000ede 	bl	e50c <USBRequestCallCompletionRoutine>
    a990:	ea00009b 	b	ac04 <DWHCIDeviceChannelInterruptHandler+0x5dc>
    a994:	e599200c 	ldr	r2, [r9, #12]
    a998:	e1a00009 	mov	r0, r9
    a99c:	e1a01003 	mov	r1, r3
    a9a0:	e12fff32 	blx	r2
    a9a4:	e1a00004 	mov	r0, r4
    a9a8:	e3a01002 	mov	r1, #2
    a9ac:	eb00062b 	bl	c260 <DWHCITransferStageDataSetState>
    a9b0:	e1a00004 	mov	r0, r4
    a9b4:	e3a01001 	mov	r1, #1
    a9b8:	eb000613 	bl	c20c <DWHCITransferStageDataSetSplitComplete>
    a9bc:	e5993008 	ldr	r3, [r9, #8]
    a9c0:	e1a00009 	mov	r0, r9
    a9c4:	e12fff33 	blx	r3
    a9c8:	e3500000 	cmp	r0, #0
    a9cc:	0a00002e 	beq	aa8c <DWHCIDeviceChannelInterruptHandler+0x464>
    a9d0:	e1a00005 	mov	r0, r5
    a9d4:	e1a01004 	mov	r1, r4
    a9d8:	ebfffc13 	bl	9a2c <DWHCIDeviceStartTransaction>
    a9dc:	ea000088 	b	ac04 <DWHCIDeviceChannelInterruptHandler+0x5dc>
    a9e0:	e1a00004 	mov	r0, r4
    a9e4:	eb000894 	bl	cc3c <DWHCITransferStageDataGetTransactionStatus>
    a9e8:	e1a03000 	mov	r3, r0
    a9ec:	e300278c 	movw	r2, #1932	; 0x78c
    a9f0:	e1100002 	tst	r0, r2
    a9f4:	0a000017 	beq	aa58 <DWHCIDeviceChannelInterruptHandler+0x430>
    a9f8:	e3090cdc 	movw	r0, #40156	; 0x9cdc
    a9fc:	e3400001 	movt	r0, #1
    aa00:	e3a01001 	mov	r1, #1
    aa04:	e3092f58 	movw	r2, #40792	; 0x9f58
    aa08:	e3402001 	movt	r2, #1
    aa0c:	eb003538 	bl	17ef4 <LogWrite>
    aa10:	e1a00008 	mov	r0, r8
    aa14:	e3a01000 	mov	r1, #0
    aa18:	eb000e2c 	bl	e2d0 <USBRequestSetStatus>
    aa1c:	e1a00005 	mov	r0, r5
    aa20:	e1a01006 	mov	r1, r6
    aa24:	ebfffaed 	bl	95e0 <DWHCIDeviceDisableChannelInterrupt>
    aa28:	e1a00004 	mov	r0, r4
    aa2c:	eb000580 	bl	c034 <_DWHCITransferStageData>
    aa30:	e1a00004 	mov	r0, r4
    aa34:	eb002ce6 	bl	15dd4 <free>
    aa38:	e3a03000 	mov	r3, #0
    aa3c:	e5873008 	str	r3, [r7, #8]
    aa40:	e1a00005 	mov	r0, r5
    aa44:	e1a01006 	mov	r1, r6
    aa48:	ebfffcac 	bl	9d00 <DWHCIDeviceFreeChannel>
    aa4c:	e1a00008 	mov	r0, r8
    aa50:	eb000ead 	bl	e50c <USBRequestCallCompletionRoutine>
    aa54:	ea00006a 	b	ac04 <DWHCIDeviceChannelInterruptHandler+0x5dc>
    aa58:	e599200c 	ldr	r2, [r9, #12]
    aa5c:	e1a00009 	mov	r0, r9
    aa60:	e1a01003 	mov	r1, r3
    aa64:	e12fff32 	blx	r2
    aa68:	e5993008 	ldr	r3, [r9, #8]
    aa6c:	e1a00009 	mov	r0, r9
    aa70:	e12fff33 	blx	r3
    aa74:	e3500000 	cmp	r0, #0
    aa78:	0a000003 	beq	aa8c <DWHCIDeviceChannelInterruptHandler+0x464>
    aa7c:	e1a00005 	mov	r0, r5
    aa80:	e1a01004 	mov	r1, r4
    aa84:	ebfffbe8 	bl	9a2c <DWHCIDeviceStartTransaction>
    aa88:	ea00005d 	b	ac04 <DWHCIDeviceChannelInterruptHandler+0x5dc>
    aa8c:	e1a00004 	mov	r0, r4
    aa90:	eb00087d 	bl	cc8c <DWHCITransferStageDataIsStageComplete>
    aa94:	e3500000 	cmp	r0, #0
    aa98:	1a000038 	bne	ab80 <DWHCIDeviceChannelInterruptHandler+0x558>
    aa9c:	e1a00004 	mov	r0, r4
    aaa0:	eb00061c 	bl	c318 <DWHCITransferStageDataBeginSplitCycle>
    aaa4:	e3500000 	cmp	r0, #0
    aaa8:	1a000011 	bne	aaf4 <DWHCIDeviceChannelInterruptHandler+0x4cc>
    aaac:	e1a00008 	mov	r0, r8
    aab0:	e3a01000 	mov	r1, #0
    aab4:	eb000e05 	bl	e2d0 <USBRequestSetStatus>
    aab8:	e1a00005 	mov	r0, r5
    aabc:	e1a01006 	mov	r1, r6
    aac0:	ebfffac6 	bl	95e0 <DWHCIDeviceDisableChannelInterrupt>
    aac4:	e1a00004 	mov	r0, r4
    aac8:	eb000559 	bl	c034 <_DWHCITransferStageData>
    aacc:	e1a00004 	mov	r0, r4
    aad0:	eb002cbf 	bl	15dd4 <free>
    aad4:	e3a03000 	mov	r3, #0
    aad8:	e5873008 	str	r3, [r7, #8]
    aadc:	e1a00005 	mov	r0, r5
    aae0:	e1a01006 	mov	r1, r6
    aae4:	ebfffc85 	bl	9d00 <DWHCIDeviceFreeChannel>
    aae8:	e1a00008 	mov	r0, r8
    aaec:	eb000e86 	bl	e50c <USBRequestCallCompletionRoutine>
    aaf0:	ea000043 	b	ac04 <DWHCIDeviceChannelInterruptHandler+0x5dc>
    aaf4:	e1a00004 	mov	r0, r4
    aaf8:	eb000613 	bl	c34c <DWHCITransferStageDataIsPeriodic>
    aafc:	e3500000 	cmp	r0, #0
    ab00:	1a00000c 	bne	ab38 <DWHCIDeviceChannelInterruptHandler+0x510>
    ab04:	e1a00004 	mov	r0, r4
    ab08:	e3a01001 	mov	r1, #1
    ab0c:	eb0005d3 	bl	c260 <DWHCITransferStageDataSetState>
    ab10:	e1a00004 	mov	r0, r4
    ab14:	e3a01000 	mov	r1, #0
    ab18:	eb0005bb 	bl	c20c <DWHCITransferStageDataSetSplitComplete>
    ab1c:	e5993004 	ldr	r3, [r9, #4]
    ab20:	e1a00009 	mov	r0, r9
    ab24:	e12fff33 	blx	r3
    ab28:	e1a00005 	mov	r0, r5
    ab2c:	e1a01004 	mov	r1, r4
    ab30:	ebfffbbd 	bl	9a2c <DWHCIDeviceStartTransaction>
    ab34:	ea000032 	b	ac04 <DWHCIDeviceChannelInterruptHandler+0x5dc>
    ab38:	e1a00004 	mov	r0, r4
    ab3c:	e3a01003 	mov	r1, #3
    ab40:	eb0005c6 	bl	c260 <DWHCITransferStageDataSetState>
    ab44:	e1a00008 	mov	r0, r8
    ab48:	eb000dcc 	bl	e280 <USBRequestGetEndpoint>
    ab4c:	eb000d11 	bl	df98 <USBEndpointGetInterval>
    ab50:	e3a03064 	mov	r3, #100	; 0x64
    ab54:	e0000093 	mul	r0, r3, r0
    ab58:	e3043dd3 	movw	r3, #19923	; 0x4dd3
    ab5c:	e3413062 	movt	r3, #4194	; 0x1062
    ab60:	e0810390 	umull	r0, r1, r0, r3
    ab64:	e1a00321 	lsr	r0, r1, #6
    ab68:	e3091b54 	movw	r1, #39764	; 0x9b54
    ab6c:	e3401000 	movt	r1, #0
    ab70:	e1a02004 	mov	r2, r4
    ab74:	e1a03005 	mov	r3, r5
    ab78:	eb003484 	bl	17d90 <StartKernelTimer>
    ab7c:	ea000020 	b	ac04 <DWHCIDeviceChannelInterruptHandler+0x5dc>
    ab80:	e1a00005 	mov	r0, r5
    ab84:	e1a01006 	mov	r1, r6
    ab88:	ebfffa94 	bl	95e0 <DWHCIDeviceDisableChannelInterrupt>
    ab8c:	e1a00004 	mov	r0, r4
    ab90:	eb00076f 	bl	c954 <DWHCITransferStageDataIsStatusStage>
    ab94:	e3500000 	cmp	r0, #0
    ab98:	1a000004 	bne	abb0 <DWHCIDeviceChannelInterruptHandler+0x588>
    ab9c:	e1a00004 	mov	r0, r4
    aba0:	eb000846 	bl	ccc0 <DWHCITransferStageDataGetResultLen>
    aba4:	e1a01000 	mov	r1, r0
    aba8:	e1a00008 	mov	r0, r8
    abac:	eb000dd3 	bl	e300 <USBRequestSetResultLen>
    abb0:	e1a00008 	mov	r0, r8
    abb4:	e3a01001 	mov	r1, #1
    abb8:	eb000dc4 	bl	e2d0 <USBRequestSetStatus>
    abbc:	e1a00004 	mov	r0, r4
    abc0:	eb00051b 	bl	c034 <_DWHCITransferStageData>
    abc4:	e1a00004 	mov	r0, r4
    abc8:	eb002c81 	bl	15dd4 <free>
    abcc:	e3a03000 	mov	r3, #0
    abd0:	e5873008 	str	r3, [r7, #8]
    abd4:	e1a00005 	mov	r0, r5
    abd8:	e1a01006 	mov	r1, r6
    abdc:	ebfffc47 	bl	9d00 <DWHCIDeviceFreeChannel>
    abe0:	e1a00008 	mov	r0, r8
    abe4:	eb000e48 	bl	e50c <USBRequestCallCompletionRoutine>
    abe8:	ea000005 	b	ac04 <DWHCIDeviceChannelInterruptHandler+0x5dc>
    abec:	e30b0e18 	movw	r0, #48664	; 0xbe18
    abf0:	e3400001 	movt	r0, #1
    abf4:	e3091cf0 	movw	r1, #40176	; 0x9cf0
    abf8:	e3401001 	movt	r1, #1
    abfc:	e3002492 	movw	r2, #1170	; 0x492
    ac00:	eb0034cd 	bl	17f3c <uspi_assertion_failed>
    ac04:	e28dd01c 	add	sp, sp, #28
    ac08:	e8bd8ff0 	pop	{r4, r5, r6, r7, r8, r9, sl, fp, pc}

0000ac0c <DWHCIDeviceInterruptHandler>:
    ac0c:	e92d41f0 	push	{r4, r5, r6, r7, r8, lr}
    ac10:	e24dd028 	sub	sp, sp, #40	; 0x28
    ac14:	e2507000 	subs	r7, r0, #0
    ac18:	1a000005 	bne	ac34 <DWHCIDeviceInterruptHandler+0x28>
    ac1c:	e3090ce4 	movw	r0, #40164	; 0x9ce4
    ac20:	e3400001 	movt	r0, #1
    ac24:	e3091cf0 	movw	r1, #40176	; 0x9cf0
    ac28:	e3401001 	movt	r1, #1
    ac2c:	e300249a 	movw	r2, #1178	; 0x49a
    ac30:	eb0034c1 	bl	17f3c <uspi_assertion_failed>
    ac34:	f57ff05f 	dmb	sy
    ac38:	e28d001c 	add	r0, sp, #28
    ac3c:	e3a01014 	mov	r1, #20
    ac40:	e3431f98 	movt	r1, #16280	; 0x3f98
    ac44:	eb0003c5 	bl	bb60 <DWHCIRegister>
    ac48:	e28d001c 	add	r0, sp, #28
    ac4c:	eb0003ed 	bl	bc08 <DWHCIRegisterRead>
    ac50:	e28d001c 	add	r0, sp, #28
    ac54:	eb000410 	bl	bc9c <DWHCIRegisterGet>
    ac58:	e3100402 	tst	r0, #33554432	; 0x2000000
    ac5c:	0a000026 	beq	acfc <DWHCIDeviceInterruptHandler+0xf0>
    ac60:	e28d0004 	add	r0, sp, #4
    ac64:	e3001414 	movw	r1, #1044	; 0x414
    ac68:	e3431f98 	movt	r1, #16280	; 0x3f98
    ac6c:	eb0003bb 	bl	bb60 <DWHCIRegister>
    ac70:	e28d0004 	add	r0, sp, #4
    ac74:	eb0003e3 	bl	bc08 <DWHCIRegisterRead>
    ac78:	e28d0004 	add	r0, sp, #4
    ac7c:	eb0003f0 	bl	bc44 <DWHCIRegisterWrite>
    ac80:	e5973000 	ldr	r3, [r7]
    ac84:	e3530000 	cmp	r3, #0
    ac88:	0a000019 	beq	acf4 <DWHCIDeviceInterruptHandler+0xe8>
    ac8c:	e300650c 	movw	r6, #1292	; 0x50c
    ac90:	e3436f98 	movt	r6, #16280	; 0x3f98
    ac94:	e3a04000 	mov	r4, #0
    ac98:	e3a05001 	mov	r5, #1
    ac9c:	e1a08004 	mov	r8, r4
    aca0:	e28d0004 	add	r0, sp, #4
    aca4:	eb0003fc 	bl	bc9c <DWHCIRegisterGet>
    aca8:	e1100005 	tst	r0, r5
    acac:	0a00000a 	beq	acdc <DWHCIDeviceInterruptHandler+0xd0>
    acb0:	e28d0010 	add	r0, sp, #16
    acb4:	e1a01006 	mov	r1, r6
    acb8:	e1a02008 	mov	r2, r8
    acbc:	eb0003b5 	bl	bb98 <DWHCIRegister2>
    acc0:	e28d0010 	add	r0, sp, #16
    acc4:	eb0003de 	bl	bc44 <DWHCIRegisterWrite>
    acc8:	e1a00007 	mov	r0, r7
    accc:	e1a01004 	mov	r1, r4
    acd0:	ebfffe54 	bl	a628 <DWHCIDeviceChannelInterruptHandler>
    acd4:	e28d0010 	add	r0, sp, #16
    acd8:	eb0003be 	bl	bbd8 <_DWHCIRegister>
    acdc:	e1a05085 	lsl	r5, r5, #1
    ace0:	e2844001 	add	r4, r4, #1
    ace4:	e2866020 	add	r6, r6, #32
    ace8:	e5973000 	ldr	r3, [r7]
    acec:	e1530004 	cmp	r3, r4
    acf0:	8affffea 	bhi	aca0 <DWHCIDeviceInterruptHandler+0x94>
    acf4:	e28d0004 	add	r0, sp, #4
    acf8:	eb0003b6 	bl	bbd8 <_DWHCIRegister>
    acfc:	e28d001c 	add	r0, sp, #28
    ad00:	eb0003cf 	bl	bc44 <DWHCIRegisterWrite>
    ad04:	f57ff05f 	dmb	sy
    ad08:	e28d001c 	add	r0, sp, #28
    ad0c:	eb0003b1 	bl	bbd8 <_DWHCIRegister>
    ad10:	e28dd028 	add	sp, sp, #40	; 0x28
    ad14:	e8bd81f0 	pop	{r4, r5, r6, r7, r8, pc}

0000ad18 <DWHCIDeviceWaitForBit>:
    ad18:	e92d41f0 	push	{r4, r5, r6, r7, r8, lr}
    ad1c:	e1a05001 	mov	r5, r1
    ad20:	e1a06002 	mov	r6, r2
    ad24:	e1a07003 	mov	r7, r3
    ad28:	e59d4018 	ldr	r4, [sp, #24]
    ad2c:	e3500000 	cmp	r0, #0
    ad30:	1a000005 	bne	ad4c <DWHCIDeviceWaitForBit+0x34>
    ad34:	e3090ce4 	movw	r0, #40164	; 0x9ce4
    ad38:	e3400001 	movt	r0, #1
    ad3c:	e3091cf0 	movw	r1, #40176	; 0x9cf0
    ad40:	e3401001 	movt	r1, #1
    ad44:	e3a02e52 	mov	r2, #1312	; 0x520
    ad48:	eb00347b 	bl	17f3c <uspi_assertion_failed>
    ad4c:	e3550000 	cmp	r5, #0
    ad50:	1a000005 	bne	ad6c <DWHCIDeviceWaitForBit+0x54>
    ad54:	e3090f7c 	movw	r0, #40828	; 0x9f7c
    ad58:	e3400001 	movt	r0, #1
    ad5c:	e3091cf0 	movw	r1, #40176	; 0x9cf0
    ad60:	e3401001 	movt	r1, #1
    ad64:	e3002522 	movw	r2, #1314	; 0x522
    ad68:	eb003473 	bl	17f3c <uspi_assertion_failed>
    ad6c:	e3560000 	cmp	r6, #0
    ad70:	1a000005 	bne	ad8c <DWHCIDeviceWaitForBit+0x74>
    ad74:	e3090f8c 	movw	r0, #40844	; 0x9f8c
    ad78:	e3400001 	movt	r0, #1
    ad7c:	e3091cf0 	movw	r1, #40176	; 0x9cf0
    ad80:	e3401001 	movt	r1, #1
    ad84:	e3002523 	movw	r2, #1315	; 0x523
    ad88:	eb00346b 	bl	17f3c <uspi_assertion_failed>
    ad8c:	e3540000 	cmp	r4, #0
    ad90:	1a00000b 	bne	adc4 <DWHCIDeviceWaitForBit+0xac>
    ad94:	e3090f98 	movw	r0, #40856	; 0x9f98
    ad98:	e3400001 	movt	r0, #1
    ad9c:	e3091cf0 	movw	r1, #40176	; 0x9cf0
    ada0:	e3401001 	movt	r1, #1
    ada4:	e3002524 	movw	r2, #1316	; 0x524
    ada8:	eb003463 	bl	17f3c <uspi_assertion_failed>
    adac:	ea000004 	b	adc4 <DWHCIDeviceWaitForBit+0xac>
    adb0:	e1a00008 	mov	r0, r8
    adb4:	eb0033e9 	bl	17d60 <MsDelay>
    adb8:	e2544001 	subs	r4, r4, #1
    adbc:	1a000001 	bne	adc8 <DWHCIDeviceWaitForBit+0xb0>
    adc0:	ea00000c 	b	adf8 <DWHCIDeviceWaitForBit+0xe0>
    adc4:	e3a08001 	mov	r8, #1
    adc8:	e1a00005 	mov	r0, r5
    adcc:	eb00038d 	bl	bc08 <DWHCIRegisterRead>
    add0:	e1100006 	tst	r0, r6
    add4:	116fcf17 	clzne	ip, r7
    add8:	11a0c2ac 	lsrne	ip, ip, #5
    addc:	1a000001 	bne	ade8 <DWHCIDeviceWaitForBit+0xd0>
    ade0:	e297c000 	adds	ip, r7, #0
    ade4:	13a0c001 	movne	ip, #1
    ade8:	e35c0000 	cmp	ip, #0
    adec:	1affffef 	bne	adb0 <DWHCIDeviceWaitForBit+0x98>
    adf0:	e3a00001 	mov	r0, #1
    adf4:	e8bd81f0 	pop	{r4, r5, r6, r7, r8, pc}
    adf8:	e3a00000 	mov	r0, #0
    adfc:	e8bd81f0 	pop	{r4, r5, r6, r7, r8, pc}

0000ae00 <DWHCIDeviceEnableRootPort>:
    ae00:	e92d4010 	push	{r4, lr}
    ae04:	e24dd018 	sub	sp, sp, #24
    ae08:	e2504000 	subs	r4, r0, #0
    ae0c:	1a000005 	bne	ae28 <DWHCIDeviceEnableRootPort+0x28>
    ae10:	e3090ce4 	movw	r0, #40164	; 0x9ce4
    ae14:	e3400001 	movt	r0, #1
    ae18:	e3091cf0 	movw	r1, #40176	; 0x9cf0
    ae1c:	e3401001 	movt	r1, #1
    ae20:	e3002202 	movw	r2, #514	; 0x202
    ae24:	eb003444 	bl	17f3c <uspi_assertion_failed>
    ae28:	e28d000c 	add	r0, sp, #12
    ae2c:	e3a01d11 	mov	r1, #1088	; 0x440
    ae30:	e3431f98 	movt	r1, #16280	; 0x3f98
    ae34:	eb000349 	bl	bb60 <DWHCIRegister>
    ae38:	e3a03014 	mov	r3, #20
    ae3c:	e58d3000 	str	r3, [sp]
    ae40:	e1a00004 	mov	r0, r4
    ae44:	e28d100c 	add	r1, sp, #12
    ae48:	e3a02001 	mov	r2, #1
    ae4c:	e1a03002 	mov	r3, r2
    ae50:	ebffffb0 	bl	ad18 <DWHCIDeviceWaitForBit>
    ae54:	e2504000 	subs	r4, r0, #0
    ae58:	1a000002 	bne	ae68 <DWHCIDeviceEnableRootPort+0x68>
    ae5c:	e28d000c 	add	r0, sp, #12
    ae60:	eb00035c 	bl	bbd8 <_DWHCIRegister>
    ae64:	ea00001c 	b	aedc <DWHCIDeviceEnableRootPort+0xdc>
    ae68:	e3a00064 	mov	r0, #100	; 0x64
    ae6c:	eb0033bb 	bl	17d60 <MsDelay>
    ae70:	e28d000c 	add	r0, sp, #12
    ae74:	eb000363 	bl	bc08 <DWHCIRegisterRead>
    ae78:	e28d000c 	add	r0, sp, #12
    ae7c:	e3e0102e 	mvn	r1, #46	; 0x2e
    ae80:	eb0003bf 	bl	bd84 <DWHCIRegisterAnd>
    ae84:	e28d000c 	add	r0, sp, #12
    ae88:	e3a01c01 	mov	r1, #256	; 0x100
    ae8c:	eb0003d3 	bl	bde0 <DWHCIRegisterOr>
    ae90:	e28d000c 	add	r0, sp, #12
    ae94:	eb00036a 	bl	bc44 <DWHCIRegisterWrite>
    ae98:	e3a00032 	mov	r0, #50	; 0x32
    ae9c:	eb0033af 	bl	17d60 <MsDelay>
    aea0:	e28d000c 	add	r0, sp, #12
    aea4:	eb000357 	bl	bc08 <DWHCIRegisterRead>
    aea8:	e28d000c 	add	r0, sp, #12
    aeac:	e3e0102e 	mvn	r1, #46	; 0x2e
    aeb0:	eb0003b3 	bl	bd84 <DWHCIRegisterAnd>
    aeb4:	e28d000c 	add	r0, sp, #12
    aeb8:	e3e01c01 	mvn	r1, #256	; 0x100
    aebc:	eb0003b0 	bl	bd84 <DWHCIRegisterAnd>
    aec0:	e28d000c 	add	r0, sp, #12
    aec4:	eb00035e 	bl	bc44 <DWHCIRegisterWrite>
    aec8:	e3a00014 	mov	r0, #20
    aecc:	eb0033a3 	bl	17d60 <MsDelay>
    aed0:	e28d000c 	add	r0, sp, #12
    aed4:	eb00033f 	bl	bbd8 <_DWHCIRegister>
    aed8:	e3a04001 	mov	r4, #1
    aedc:	e1a00004 	mov	r0, r4
    aee0:	e28dd018 	add	sp, sp, #24
    aee4:	e8bd8010 	pop	{r4, pc}

0000aee8 <DWHCIDeviceReset>:
    aee8:	e92d4030 	push	{r4, r5, lr}
    aeec:	e24dd01c 	sub	sp, sp, #28
    aef0:	e2505000 	subs	r5, r0, #0
    aef4:	1a000005 	bne	af10 <DWHCIDeviceReset+0x28>
    aef8:	e3090ce4 	movw	r0, #40164	; 0x9ce4
    aefc:	e3400001 	movt	r0, #1
    af00:	e3091cf0 	movw	r1, #40176	; 0x9cf0
    af04:	e3401001 	movt	r1, #1
    af08:	e3002225 	movw	r2, #549	; 0x225
    af0c:	eb00340a 	bl	17f3c <uspi_assertion_failed>
    af10:	e28d000c 	add	r0, sp, #12
    af14:	e3a01010 	mov	r1, #16
    af18:	e3431f98 	movt	r1, #16280	; 0x3f98
    af1c:	e3a02000 	mov	r2, #0
    af20:	eb00031c 	bl	bb98 <DWHCIRegister2>
    af24:	e3a03064 	mov	r3, #100	; 0x64
    af28:	e58d3000 	str	r3, [sp]
    af2c:	e1a00005 	mov	r0, r5
    af30:	e28d100c 	add	r1, sp, #12
    af34:	e3a02102 	mov	r2, #-2147483648	; 0x80000000
    af38:	e3a03001 	mov	r3, #1
    af3c:	ebffff75 	bl	ad18 <DWHCIDeviceWaitForBit>
    af40:	e2504000 	subs	r4, r0, #0
    af44:	1a000002 	bne	af54 <DWHCIDeviceReset+0x6c>
    af48:	e28d000c 	add	r0, sp, #12
    af4c:	eb000321 	bl	bbd8 <_DWHCIRegister>
    af50:	ea000015 	b	afac <DWHCIDeviceReset+0xc4>
    af54:	e28d000c 	add	r0, sp, #12
    af58:	e3a01001 	mov	r1, #1
    af5c:	eb00039f 	bl	bde0 <DWHCIRegisterOr>
    af60:	e28d000c 	add	r0, sp, #12
    af64:	eb000336 	bl	bc44 <DWHCIRegisterWrite>
    af68:	e3a0300a 	mov	r3, #10
    af6c:	e58d3000 	str	r3, [sp]
    af70:	e1a00005 	mov	r0, r5
    af74:	e28d100c 	add	r1, sp, #12
    af78:	e3a02001 	mov	r2, #1
    af7c:	e3a03000 	mov	r3, #0
    af80:	ebffff64 	bl	ad18 <DWHCIDeviceWaitForBit>
    af84:	e2504000 	subs	r4, r0, #0
    af88:	1a000002 	bne	af98 <DWHCIDeviceReset+0xb0>
    af8c:	e28d000c 	add	r0, sp, #12
    af90:	eb000310 	bl	bbd8 <_DWHCIRegister>
    af94:	ea000004 	b	afac <DWHCIDeviceReset+0xc4>
    af98:	e3a00064 	mov	r0, #100	; 0x64
    af9c:	eb00336f 	bl	17d60 <MsDelay>
    afa0:	e28d000c 	add	r0, sp, #12
    afa4:	eb00030b 	bl	bbd8 <_DWHCIRegister>
    afa8:	e3a04001 	mov	r4, #1
    afac:	e1a00004 	mov	r0, r4
    afb0:	e28dd01c 	add	sp, sp, #28
    afb4:	e8bd8030 	pop	{r4, r5, pc}

0000afb8 <DWHCIDeviceInitCore>:
    afb8:	e92d4030 	push	{r4, r5, lr}
    afbc:	e24dd02c 	sub	sp, sp, #44	; 0x2c
    afc0:	e2504000 	subs	r4, r0, #0
    afc4:	1a000005 	bne	afe0 <DWHCIDeviceInitCore+0x28>
    afc8:	e3090ce4 	movw	r0, #40164	; 0x9ce4
    afcc:	e3400001 	movt	r0, #1
    afd0:	e3091cf0 	movw	r1, #40176	; 0x9cf0
    afd4:	e3401001 	movt	r1, #1
    afd8:	e300216d 	movw	r2, #365	; 0x16d
    afdc:	eb0033d6 	bl	17f3c <uspi_assertion_failed>
    afe0:	e28d001c 	add	r0, sp, #28
    afe4:	e3a0100c 	mov	r1, #12
    afe8:	e3431f98 	movt	r1, #16280	; 0x3f98
    afec:	eb0002db 	bl	bb60 <DWHCIRegister>
    aff0:	e28d001c 	add	r0, sp, #28
    aff4:	eb000303 	bl	bc08 <DWHCIRegisterRead>
    aff8:	e28d001c 	add	r0, sp, #28
    affc:	e3e01601 	mvn	r1, #1048576	; 0x100000
    b000:	eb00035f 	bl	bd84 <DWHCIRegisterAnd>
    b004:	e28d001c 	add	r0, sp, #28
    b008:	e3e01501 	mvn	r1, #4194304	; 0x400000
    b00c:	eb00035c 	bl	bd84 <DWHCIRegisterAnd>
    b010:	e28d001c 	add	r0, sp, #28
    b014:	eb00030a 	bl	bc44 <DWHCIRegisterWrite>
    b018:	e1a00004 	mov	r0, r4
    b01c:	ebffffb1 	bl	aee8 <DWHCIDeviceReset>
    b020:	e2505000 	subs	r5, r0, #0
    b024:	1a000006 	bne	b044 <DWHCIDeviceInitCore+0x8c>
    b028:	e3090cdc 	movw	r0, #40156	; 0x9cdc
    b02c:	e3400001 	movt	r0, #1
    b030:	e3a01001 	mov	r1, #1
    b034:	e3092fa8 	movw	r2, #40872	; 0x9fa8
    b038:	e3402001 	movt	r2, #1
    b03c:	eb0033ac 	bl	17ef4 <LogWrite>
    b040:	ea000070 	b	b208 <DWHCIDeviceInitCore+0x250>
    b044:	e28d001c 	add	r0, sp, #28
    b048:	eb0002ee 	bl	bc08 <DWHCIRegisterRead>
    b04c:	e28d001c 	add	r0, sp, #28
    b050:	e3e01010 	mvn	r1, #16
    b054:	eb00034a 	bl	bd84 <DWHCIRegisterAnd>
    b058:	e28d001c 	add	r0, sp, #28
    b05c:	e3e01008 	mvn	r1, #8
    b060:	eb000347 	bl	bd84 <DWHCIRegisterAnd>
    b064:	e28d001c 	add	r0, sp, #28
    b068:	eb0002f5 	bl	bc44 <DWHCIRegisterWrite>
    b06c:	e28d0010 	add	r0, sp, #16
    b070:	e3a01048 	mov	r1, #72	; 0x48
    b074:	e3431f98 	movt	r1, #16280	; 0x3f98
    b078:	eb0002b8 	bl	bb60 <DWHCIRegister>
    b07c:	e28d0010 	add	r0, sp, #16
    b080:	eb0002e0 	bl	bc08 <DWHCIRegisterRead>
    b084:	e28d0010 	add	r0, sp, #16
    b088:	eb000303 	bl	bc9c <DWHCIRegisterGet>
    b08c:	e7e101d0 	ubfx	r0, r0, #3, #2
    b090:	e3500002 	cmp	r0, #2
    b094:	0a000005 	beq	b0b0 <DWHCIDeviceInitCore+0xf8>
    b098:	e3090fb8 	movw	r0, #40888	; 0x9fb8
    b09c:	e3400001 	movt	r0, #1
    b0a0:	e3091cf0 	movw	r1, #40176	; 0x9cf0
    b0a4:	e3401001 	movt	r1, #1
    b0a8:	e3002185 	movw	r2, #389	; 0x185
    b0ac:	eb0033a2 	bl	17f3c <uspi_assertion_failed>
    b0b0:	e28d001c 	add	r0, sp, #28
    b0b4:	eb0002d3 	bl	bc08 <DWHCIRegisterRead>
    b0b8:	e28d0010 	add	r0, sp, #16
    b0bc:	eb0002f6 	bl	bc9c <DWHCIRegisterGet>
    b0c0:	e7e10350 	ubfx	r0, r0, #6, #2
    b0c4:	e3500002 	cmp	r0, #2
    b0c8:	1a00000b 	bne	b0fc <DWHCIDeviceInitCore+0x144>
    b0cc:	e28d0010 	add	r0, sp, #16
    b0d0:	eb0002f1 	bl	bc9c <DWHCIRegisterGet>
    b0d4:	e7e10450 	ubfx	r0, r0, #8, #2
    b0d8:	e3500001 	cmp	r0, #1
    b0dc:	1a000006 	bne	b0fc <DWHCIDeviceInitCore+0x144>
    b0e0:	e28d001c 	add	r0, sp, #28
    b0e4:	e3a01802 	mov	r1, #131072	; 0x20000
    b0e8:	eb00033c 	bl	bde0 <DWHCIRegisterOr>
    b0ec:	e28d001c 	add	r0, sp, #28
    b0f0:	e3a01702 	mov	r1, #524288	; 0x80000
    b0f4:	eb000339 	bl	bde0 <DWHCIRegisterOr>
    b0f8:	ea000005 	b	b114 <DWHCIDeviceInitCore+0x15c>
    b0fc:	e28d001c 	add	r0, sp, #28
    b100:	e3e01802 	mvn	r1, #131072	; 0x20000
    b104:	eb00031e 	bl	bd84 <DWHCIRegisterAnd>
    b108:	e28d001c 	add	r0, sp, #28
    b10c:	e3e01702 	mvn	r1, #524288	; 0x80000
    b110:	eb00031b 	bl	bd84 <DWHCIRegisterAnd>
    b114:	e28d001c 	add	r0, sp, #28
    b118:	eb0002c9 	bl	bc44 <DWHCIRegisterWrite>
    b11c:	e5943000 	ldr	r3, [r4]
    b120:	e3530000 	cmp	r3, #0
    b124:	0a000005 	beq	b140 <DWHCIDeviceInitCore+0x188>
    b128:	e30a0000 	movw	r0, #40960	; 0xa000
    b12c:	e3400001 	movt	r0, #1
    b130:	e3091cf0 	movw	r1, #40176	; 0x9cf0
    b134:	e3401001 	movt	r1, #1
    b138:	e3002195 	movw	r2, #405	; 0x195
    b13c:	eb00337e 	bl	17f3c <uspi_assertion_failed>
    b140:	e28d0010 	add	r0, sp, #16
    b144:	eb0002d4 	bl	bc9c <DWHCIRegisterGet>
    b148:	e7e30750 	ubfx	r0, r0, #14, #4
    b14c:	e2803001 	add	r3, r0, #1
    b150:	e5843000 	str	r3, [r4]
    b154:	e2400003 	sub	r0, r0, #3
    b158:	e350000c 	cmp	r0, #12
    b15c:	9a000005 	bls	b178 <DWHCIDeviceInitCore+0x1c0>
    b160:	e30a0018 	movw	r0, #40984	; 0xa018
    b164:	e3400001 	movt	r0, #1
    b168:	e3091cf0 	movw	r1, #40176	; 0x9cf0
    b16c:	e3401001 	movt	r1, #1
    b170:	e3002197 	movw	r2, #407	; 0x197
    b174:	eb003370 	bl	17f3c <uspi_assertion_failed>
    b178:	e28d0004 	add	r0, sp, #4
    b17c:	e3a01008 	mov	r1, #8
    b180:	e3431f98 	movt	r1, #16280	; 0x3f98
    b184:	eb000275 	bl	bb60 <DWHCIRegister>
    b188:	e28d0004 	add	r0, sp, #4
    b18c:	eb00029d 	bl	bc08 <DWHCIRegisterRead>
    b190:	e28d0004 	add	r0, sp, #4
    b194:	e3a01020 	mov	r1, #32
    b198:	eb000310 	bl	bde0 <DWHCIRegisterOr>
    b19c:	e28d0004 	add	r0, sp, #4
    b1a0:	e3a01010 	mov	r1, #16
    b1a4:	eb00030d 	bl	bde0 <DWHCIRegisterOr>
    b1a8:	e28d0004 	add	r0, sp, #4
    b1ac:	e3e01006 	mvn	r1, #6
    b1b0:	eb0002f3 	bl	bd84 <DWHCIRegisterAnd>
    b1b4:	e28d0004 	add	r0, sp, #4
    b1b8:	eb0002a1 	bl	bc44 <DWHCIRegisterWrite>
    b1bc:	e28d001c 	add	r0, sp, #28
    b1c0:	eb000290 	bl	bc08 <DWHCIRegisterRead>
    b1c4:	e28d001c 	add	r0, sp, #28
    b1c8:	e3e01c02 	mvn	r1, #512	; 0x200
    b1cc:	eb0002ec 	bl	bd84 <DWHCIRegisterAnd>
    b1d0:	e28d001c 	add	r0, sp, #28
    b1d4:	e3e01c01 	mvn	r1, #256	; 0x100
    b1d8:	eb0002e9 	bl	bd84 <DWHCIRegisterAnd>
    b1dc:	e28d001c 	add	r0, sp, #28
    b1e0:	eb000297 	bl	bc44 <DWHCIRegisterWrite>
    b1e4:	e1a00004 	mov	r0, r4
    b1e8:	ebfff8ab 	bl	949c <DWHCIDeviceEnableCommonInterrupts>
    b1ec:	e28d0004 	add	r0, sp, #4
    b1f0:	eb000278 	bl	bbd8 <_DWHCIRegister>
    b1f4:	e28d0010 	add	r0, sp, #16
    b1f8:	eb000276 	bl	bbd8 <_DWHCIRegister>
    b1fc:	e28d001c 	add	r0, sp, #28
    b200:	eb000274 	bl	bbd8 <_DWHCIRegister>
    b204:	e3a05001 	mov	r5, #1
    b208:	e1a00005 	mov	r0, r5
    b20c:	e28dd02c 	add	sp, sp, #44	; 0x2c
    b210:	e8bd8030 	pop	{r4, r5, pc}

0000b214 <DWHCIDeviceFlushTxFIFO>:
    b214:	e92d4030 	push	{r4, r5, lr}
    b218:	e24dd01c 	sub	sp, sp, #28
    b21c:	e1a05001 	mov	r5, r1
    b220:	e2504000 	subs	r4, r0, #0
    b224:	1a000005 	bne	b240 <DWHCIDeviceFlushTxFIFO+0x2c>
    b228:	e3090ce4 	movw	r0, #40164	; 0x9ce4
    b22c:	e3400001 	movt	r0, #1
    b230:	e3091cf0 	movw	r1, #40176	; 0x9cf0
    b234:	e3401001 	movt	r1, #1
    b238:	e30022a3 	movw	r2, #675	; 0x2a3
    b23c:	eb00333e 	bl	17f3c <uspi_assertion_failed>
    b240:	e28d000c 	add	r0, sp, #12
    b244:	e3a01010 	mov	r1, #16
    b248:	e3431f98 	movt	r1, #16280	; 0x3f98
    b24c:	e3a02000 	mov	r2, #0
    b250:	eb000250 	bl	bb98 <DWHCIRegister2>
    b254:	e28d000c 	add	r0, sp, #12
    b258:	e3a01020 	mov	r1, #32
    b25c:	eb0002df 	bl	bde0 <DWHCIRegisterOr>
    b260:	e28d000c 	add	r0, sp, #12
    b264:	e3e01d1f 	mvn	r1, #1984	; 0x7c0
    b268:	eb0002c5 	bl	bd84 <DWHCIRegisterAnd>
    b26c:	e28d000c 	add	r0, sp, #12
    b270:	e1a01305 	lsl	r1, r5, #6
    b274:	eb0002d9 	bl	bde0 <DWHCIRegisterOr>
    b278:	e28d000c 	add	r0, sp, #12
    b27c:	eb000270 	bl	bc44 <DWHCIRegisterWrite>
    b280:	e3a0300a 	mov	r3, #10
    b284:	e58d3000 	str	r3, [sp]
    b288:	e1a00004 	mov	r0, r4
    b28c:	e28d100c 	add	r1, sp, #12
    b290:	e3a02020 	mov	r2, #32
    b294:	e3a03000 	mov	r3, #0
    b298:	ebfffe9e 	bl	ad18 <DWHCIDeviceWaitForBit>
    b29c:	e3500000 	cmp	r0, #0
    b2a0:	0a000001 	beq	b2ac <DWHCIDeviceFlushTxFIFO+0x98>
    b2a4:	e3a00001 	mov	r0, #1
    b2a8:	eb0032b2 	bl	17d78 <usDelay>
    b2ac:	e28d000c 	add	r0, sp, #12
    b2b0:	eb000248 	bl	bbd8 <_DWHCIRegister>
    b2b4:	e28dd01c 	add	sp, sp, #28
    b2b8:	e8bd8030 	pop	{r4, r5, pc}

0000b2bc <DWHCIDeviceFlushRxFIFO>:
    b2bc:	e92d4010 	push	{r4, lr}
    b2c0:	e24dd018 	sub	sp, sp, #24
    b2c4:	e2504000 	subs	r4, r0, #0
    b2c8:	1a000005 	bne	b2e4 <DWHCIDeviceFlushRxFIFO+0x28>
    b2cc:	e3090ce4 	movw	r0, #40164	; 0x9ce4
    b2d0:	e3400001 	movt	r0, #1
    b2d4:	e3091cf0 	movw	r1, #40176	; 0x9cf0
    b2d8:	e3401001 	movt	r1, #1
    b2dc:	e30022b6 	movw	r2, #694	; 0x2b6
    b2e0:	eb003315 	bl	17f3c <uspi_assertion_failed>
    b2e4:	e28d000c 	add	r0, sp, #12
    b2e8:	e3a01010 	mov	r1, #16
    b2ec:	e3431f98 	movt	r1, #16280	; 0x3f98
    b2f0:	e3a02000 	mov	r2, #0
    b2f4:	eb000227 	bl	bb98 <DWHCIRegister2>
    b2f8:	e28d000c 	add	r0, sp, #12
    b2fc:	e3a01010 	mov	r1, #16
    b300:	eb0002b6 	bl	bde0 <DWHCIRegisterOr>
    b304:	e28d000c 	add	r0, sp, #12
    b308:	eb00024d 	bl	bc44 <DWHCIRegisterWrite>
    b30c:	e3a0300a 	mov	r3, #10
    b310:	e58d3000 	str	r3, [sp]
    b314:	e1a00004 	mov	r0, r4
    b318:	e28d100c 	add	r1, sp, #12
    b31c:	e3a02010 	mov	r2, #16
    b320:	e3a03000 	mov	r3, #0
    b324:	ebfffe7b 	bl	ad18 <DWHCIDeviceWaitForBit>
    b328:	e3500000 	cmp	r0, #0
    b32c:	0a000001 	beq	b338 <DWHCIDeviceFlushRxFIFO+0x7c>
    b330:	e3a00001 	mov	r0, #1
    b334:	eb00328f 	bl	17d78 <usDelay>
    b338:	e28d000c 	add	r0, sp, #12
    b33c:	eb000225 	bl	bbd8 <_DWHCIRegister>
    b340:	e28dd018 	add	sp, sp, #24
    b344:	e8bd8010 	pop	{r4, pc}

0000b348 <DWHCIDeviceInitHost>:
    b348:	e92d4010 	push	{r4, lr}
    b34c:	e24dd060 	sub	sp, sp, #96	; 0x60
    b350:	e2504000 	subs	r4, r0, #0
    b354:	1a000005 	bne	b370 <DWHCIDeviceInitHost+0x28>
    b358:	e3090ce4 	movw	r0, #40164	; 0x9ce4
    b35c:	e3400001 	movt	r0, #1
    b360:	e3091cf0 	movw	r1, #40176	; 0x9cf0
    b364:	e3401001 	movt	r1, #1
    b368:	e3a02f6d 	mov	r2, #436	; 0x1b4
    b36c:	eb0032f2 	bl	17f3c <uspi_assertion_failed>
    b370:	e28d0054 	add	r0, sp, #84	; 0x54
    b374:	e3a01c0e 	mov	r1, #3584	; 0xe00
    b378:	e3431f98 	movt	r1, #16280	; 0x3f98
    b37c:	e3a02000 	mov	r2, #0
    b380:	eb000204 	bl	bb98 <DWHCIRegister2>
    b384:	e28d0054 	add	r0, sp, #84	; 0x54
    b388:	eb00022d 	bl	bc44 <DWHCIRegisterWrite>
    b38c:	e28d0048 	add	r0, sp, #72	; 0x48
    b390:	e3a01b01 	mov	r1, #1024	; 0x400
    b394:	e3431f98 	movt	r1, #16280	; 0x3f98
    b398:	eb0001f0 	bl	bb60 <DWHCIRegister>
    b39c:	e28d0048 	add	r0, sp, #72	; 0x48
    b3a0:	eb000218 	bl	bc08 <DWHCIRegisterRead>
    b3a4:	e28d0048 	add	r0, sp, #72	; 0x48
    b3a8:	e3e01003 	mvn	r1, #3
    b3ac:	eb000274 	bl	bd84 <DWHCIRegisterAnd>
    b3b0:	e28d003c 	add	r0, sp, #60	; 0x3c
    b3b4:	e3a01048 	mov	r1, #72	; 0x48
    b3b8:	e3431f98 	movt	r1, #16280	; 0x3f98
    b3bc:	eb0001e7 	bl	bb60 <DWHCIRegister>
    b3c0:	e28d0030 	add	r0, sp, #48	; 0x30
    b3c4:	e3a0100c 	mov	r1, #12
    b3c8:	e3431f98 	movt	r1, #16280	; 0x3f98
    b3cc:	eb0001e3 	bl	bb60 <DWHCIRegister>
    b3d0:	e28d003c 	add	r0, sp, #60	; 0x3c
    b3d4:	eb00020b 	bl	bc08 <DWHCIRegisterRead>
    b3d8:	e7e10350 	ubfx	r0, r0, #6, #2
    b3dc:	e3500002 	cmp	r0, #2
    b3e0:	1a00000c 	bne	b418 <DWHCIDeviceInitHost+0xd0>
    b3e4:	e28d003c 	add	r0, sp, #60	; 0x3c
    b3e8:	eb00022b 	bl	bc9c <DWHCIRegisterGet>
    b3ec:	e7e10450 	ubfx	r0, r0, #8, #2
    b3f0:	e3500001 	cmp	r0, #1
    b3f4:	1a000007 	bne	b418 <DWHCIDeviceInitHost+0xd0>
    b3f8:	e28d0030 	add	r0, sp, #48	; 0x30
    b3fc:	eb000201 	bl	bc08 <DWHCIRegisterRead>
    b400:	e3100802 	tst	r0, #131072	; 0x20000
    b404:	0a000003 	beq	b418 <DWHCIDeviceInitHost+0xd0>
    b408:	e28d0048 	add	r0, sp, #72	; 0x48
    b40c:	e3a01001 	mov	r1, #1
    b410:	eb000272 	bl	bde0 <DWHCIRegisterOr>
    b414:	ea000002 	b	b424 <DWHCIDeviceInitHost+0xdc>
    b418:	e28d0048 	add	r0, sp, #72	; 0x48
    b41c:	e3a01000 	mov	r1, #0
    b420:	eb00026e 	bl	bde0 <DWHCIRegisterOr>
    b424:	e28d0048 	add	r0, sp, #72	; 0x48
    b428:	eb000205 	bl	bc44 <DWHCIRegisterWrite>
    b42c:	e28d0024 	add	r0, sp, #36	; 0x24
    b430:	e3a01024 	mov	r1, #36	; 0x24
    b434:	e3431f98 	movt	r1, #16280	; 0x3f98
    b438:	e3a02b01 	mov	r2, #1024	; 0x400
    b43c:	eb0001d5 	bl	bb98 <DWHCIRegister2>
    b440:	e28d0024 	add	r0, sp, #36	; 0x24
    b444:	eb0001fe 	bl	bc44 <DWHCIRegisterWrite>
    b448:	e28d0018 	add	r0, sp, #24
    b44c:	e3a01028 	mov	r1, #40	; 0x28
    b450:	e3431f98 	movt	r1, #16280	; 0x3f98
    b454:	e3a02000 	mov	r2, #0
    b458:	eb0001ce 	bl	bb98 <DWHCIRegister2>
    b45c:	e28d0018 	add	r0, sp, #24
    b460:	e3a01b01 	mov	r1, #1024	; 0x400
    b464:	eb00025d 	bl	bde0 <DWHCIRegisterOr>
    b468:	e28d0018 	add	r0, sp, #24
    b46c:	e3a01301 	mov	r1, #67108864	; 0x4000000
    b470:	eb00025a 	bl	bde0 <DWHCIRegisterOr>
    b474:	e28d0018 	add	r0, sp, #24
    b478:	eb0001f1 	bl	bc44 <DWHCIRegisterWrite>
    b47c:	e28d000c 	add	r0, sp, #12
    b480:	e3a01c01 	mov	r1, #256	; 0x100
    b484:	e3431f98 	movt	r1, #16280	; 0x3f98
    b488:	e3a02000 	mov	r2, #0
    b48c:	eb0001c1 	bl	bb98 <DWHCIRegister2>
    b490:	e28d000c 	add	r0, sp, #12
    b494:	e3a01b02 	mov	r1, #2048	; 0x800
    b498:	eb000250 	bl	bde0 <DWHCIRegisterOr>
    b49c:	e28d000c 	add	r0, sp, #12
    b4a0:	e3a01301 	mov	r1, #67108864	; 0x4000000
    b4a4:	eb00024d 	bl	bde0 <DWHCIRegisterOr>
    b4a8:	e28d000c 	add	r0, sp, #12
    b4ac:	eb0001e4 	bl	bc44 <DWHCIRegisterWrite>
    b4b0:	e1a00004 	mov	r0, r4
    b4b4:	e3a01010 	mov	r1, #16
    b4b8:	ebffff55 	bl	b214 <DWHCIDeviceFlushTxFIFO>
    b4bc:	e1a00004 	mov	r0, r4
    b4c0:	ebffff7d 	bl	b2bc <DWHCIDeviceFlushRxFIFO>
    b4c4:	e1a0000d 	mov	r0, sp
    b4c8:	e3a01d11 	mov	r1, #1088	; 0x440
    b4cc:	e3431f98 	movt	r1, #16280	; 0x3f98
    b4d0:	eb0001a2 	bl	bb60 <DWHCIRegister>
    b4d4:	e1a0000d 	mov	r0, sp
    b4d8:	eb0001ca 	bl	bc08 <DWHCIRegisterRead>
    b4dc:	e1a0000d 	mov	r0, sp
    b4e0:	e3e0102e 	mvn	r1, #46	; 0x2e
    b4e4:	eb000226 	bl	bd84 <DWHCIRegisterAnd>
    b4e8:	e1a0000d 	mov	r0, sp
    b4ec:	eb0001ea 	bl	bc9c <DWHCIRegisterGet>
    b4f0:	e3100a01 	tst	r0, #4096	; 0x1000
    b4f4:	1a000004 	bne	b50c <DWHCIDeviceInitHost+0x1c4>
    b4f8:	e1a0000d 	mov	r0, sp
    b4fc:	e3a01a01 	mov	r1, #4096	; 0x1000
    b500:	eb000236 	bl	bde0 <DWHCIRegisterOr>
    b504:	e1a0000d 	mov	r0, sp
    b508:	eb0001cd 	bl	bc44 <DWHCIRegisterWrite>
    b50c:	e1a00004 	mov	r0, r4
    b510:	ebfff7f7 	bl	94f4 <DWHCIDeviceEnableHostInterrupts>
    b514:	e1a0000d 	mov	r0, sp
    b518:	eb0001ae 	bl	bbd8 <_DWHCIRegister>
    b51c:	e28d000c 	add	r0, sp, #12
    b520:	eb0001ac 	bl	bbd8 <_DWHCIRegister>
    b524:	e28d0018 	add	r0, sp, #24
    b528:	eb0001aa 	bl	bbd8 <_DWHCIRegister>
    b52c:	e28d0024 	add	r0, sp, #36	; 0x24
    b530:	eb0001a8 	bl	bbd8 <_DWHCIRegister>
    b534:	e28d0030 	add	r0, sp, #48	; 0x30
    b538:	eb0001a6 	bl	bbd8 <_DWHCIRegister>
    b53c:	e28d003c 	add	r0, sp, #60	; 0x3c
    b540:	eb0001a4 	bl	bbd8 <_DWHCIRegister>
    b544:	e28d0048 	add	r0, sp, #72	; 0x48
    b548:	eb0001a2 	bl	bbd8 <_DWHCIRegister>
    b54c:	e28d0054 	add	r0, sp, #84	; 0x54
    b550:	eb0001a0 	bl	bbd8 <_DWHCIRegister>
    b554:	e3a00001 	mov	r0, #1
    b558:	e28dd060 	add	sp, sp, #96	; 0x60
    b55c:	e8bd8010 	pop	{r4, pc}

0000b560 <DWHCIDeviceInitialize>:
    b560:	e92d4030 	push	{r4, r5, lr}
    b564:	e24dd01c 	sub	sp, sp, #28
    b568:	e2505000 	subs	r5, r0, #0
    b56c:	1a000005 	bne	b588 <DWHCIDeviceInitialize+0x28>
    b570:	e3090ce4 	movw	r0, #40164	; 0x9ce4
    b574:	e3400001 	movt	r0, #1
    b578:	e3091cf0 	movw	r1, #40176	; 0x9cf0
    b57c:	e3401001 	movt	r1, #1
    b580:	e3a02072 	mov	r2, #114	; 0x72
    b584:	eb00326c 	bl	17f3c <uspi_assertion_failed>
    b588:	f57ff05f 	dmb	sy
    b58c:	e28d000c 	add	r0, sp, #12
    b590:	e3a01040 	mov	r1, #64	; 0x40
    b594:	e3431f98 	movt	r1, #16280	; 0x3f98
    b598:	eb000170 	bl	bb60 <DWHCIRegister>
    b59c:	e28d000c 	add	r0, sp, #12
    b5a0:	eb000198 	bl	bc08 <DWHCIRegisterRead>
    b5a4:	e302380a 	movw	r3, #10250	; 0x280a
    b5a8:	e3443f54 	movt	r3, #20308	; 0x4f54
    b5ac:	e1500003 	cmp	r0, r3
    b5b0:	0a00000c 	beq	b5e8 <DWHCIDeviceInitialize+0x88>
    b5b4:	e28d000c 	add	r0, sp, #12
    b5b8:	eb0001b7 	bl	bc9c <DWHCIRegisterGet>
    b5bc:	e1a03000 	mov	r3, r0
    b5c0:	e3090cdc 	movw	r0, #40156	; 0x9cdc
    b5c4:	e3400001 	movt	r0, #1
    b5c8:	e3a01001 	mov	r1, #1
    b5cc:	e30a205c 	movw	r2, #41052	; 0xa05c
    b5d0:	e3402001 	movt	r2, #1
    b5d4:	eb003246 	bl	17ef4 <LogWrite>
    b5d8:	e28d000c 	add	r0, sp, #12
    b5dc:	eb00017d 	bl	bbd8 <_DWHCIRegister>
    b5e0:	e3a04000 	mov	r4, #0
    b5e4:	ea000062 	b	b774 <DWHCIDeviceInitialize+0x214>
    b5e8:	e3a00003 	mov	r0, #3
    b5ec:	eb003205 	bl	17e08 <SetPowerStateOn>
    b5f0:	e2504000 	subs	r4, r0, #0
    b5f4:	1a000008 	bne	b61c <DWHCIDeviceInitialize+0xbc>
    b5f8:	e3090cdc 	movw	r0, #40156	; 0x9cdc
    b5fc:	e3400001 	movt	r0, #1
    b600:	e3a01001 	mov	r1, #1
    b604:	e30a2074 	movw	r2, #41076	; 0xa074
    b608:	e3402001 	movt	r2, #1
    b60c:	eb003238 	bl	17ef4 <LogWrite>
    b610:	e28d000c 	add	r0, sp, #12
    b614:	eb00016f 	bl	bbd8 <_DWHCIRegister>
    b618:	ea000055 	b	b774 <DWHCIDeviceInitialize+0x214>
    b61c:	e1a0000d 	mov	r0, sp
    b620:	e3a01008 	mov	r1, #8
    b624:	e3431f98 	movt	r1, #16280	; 0x3f98
    b628:	eb00014c 	bl	bb60 <DWHCIRegister>
    b62c:	e1a0000d 	mov	r0, sp
    b630:	eb000174 	bl	bc08 <DWHCIRegisterRead>
    b634:	e1a0000d 	mov	r0, sp
    b638:	e3e01001 	mvn	r1, #1
    b63c:	eb0001d0 	bl	bd84 <DWHCIRegisterAnd>
    b640:	e1a0000d 	mov	r0, sp
    b644:	eb00017e 	bl	bc44 <DWHCIRegisterWrite>
    b648:	e3a00009 	mov	r0, #9
    b64c:	e30a1c0c 	movw	r1, #44044	; 0xac0c
    b650:	e3401000 	movt	r1, #0
    b654:	e1a02005 	mov	r2, r5
    b658:	eb0031e0 	bl	17de0 <ConnectInterrupt>
    b65c:	e1a00005 	mov	r0, r5
    b660:	ebfffe54 	bl	afb8 <DWHCIDeviceInitCore>
    b664:	e2504000 	subs	r4, r0, #0
    b668:	1a00000a 	bne	b698 <DWHCIDeviceInitialize+0x138>
    b66c:	e3090cdc 	movw	r0, #40156	; 0x9cdc
    b670:	e3400001 	movt	r0, #1
    b674:	e3a01001 	mov	r1, #1
    b678:	e30a2084 	movw	r2, #41092	; 0xa084
    b67c:	e3402001 	movt	r2, #1
    b680:	eb00321b 	bl	17ef4 <LogWrite>
    b684:	e1a0000d 	mov	r0, sp
    b688:	eb000152 	bl	bbd8 <_DWHCIRegister>
    b68c:	e28d000c 	add	r0, sp, #12
    b690:	eb000150 	bl	bbd8 <_DWHCIRegister>
    b694:	ea000036 	b	b774 <DWHCIDeviceInitialize+0x214>
    b698:	e1a00005 	mov	r0, r5
    b69c:	ebfff765 	bl	9438 <DWHCIDeviceEnableGlobalInterrupts>
    b6a0:	e1a00005 	mov	r0, r5
    b6a4:	ebffff27 	bl	b348 <DWHCIDeviceInitHost>
    b6a8:	e2504000 	subs	r4, r0, #0
    b6ac:	1a00000a 	bne	b6dc <DWHCIDeviceInitialize+0x17c>
    b6b0:	e3090cdc 	movw	r0, #40156	; 0x9cdc
    b6b4:	e3400001 	movt	r0, #1
    b6b8:	e3a01001 	mov	r1, #1
    b6bc:	e30a209c 	movw	r2, #41116	; 0xa09c
    b6c0:	e3402001 	movt	r2, #1
    b6c4:	eb00320a 	bl	17ef4 <LogWrite>
    b6c8:	e1a0000d 	mov	r0, sp
    b6cc:	eb000141 	bl	bbd8 <_DWHCIRegister>
    b6d0:	e28d000c 	add	r0, sp, #12
    b6d4:	eb00013f 	bl	bbd8 <_DWHCIRegister>
    b6d8:	ea000025 	b	b774 <DWHCIDeviceInitialize+0x214>
    b6dc:	e1a00005 	mov	r0, r5
    b6e0:	ebfffdc6 	bl	ae00 <DWHCIDeviceEnableRootPort>
    b6e4:	e3500000 	cmp	r0, #0
    b6e8:	1a00000b 	bne	b71c <DWHCIDeviceInitialize+0x1bc>
    b6ec:	e3090cdc 	movw	r0, #40156	; 0x9cdc
    b6f0:	e3400001 	movt	r0, #1
    b6f4:	e3a01002 	mov	r1, #2
    b6f8:	e30a20b4 	movw	r2, #41140	; 0xa0b4
    b6fc:	e3402001 	movt	r2, #1
    b700:	eb0031fb 	bl	17ef4 <LogWrite>
    b704:	e1a0000d 	mov	r0, sp
    b708:	eb000132 	bl	bbd8 <_DWHCIRegister>
    b70c:	e28d000c 	add	r0, sp, #12
    b710:	eb000130 	bl	bbd8 <_DWHCIRegister>
    b714:	e3a04001 	mov	r4, #1
    b718:	ea000015 	b	b774 <DWHCIDeviceInitialize+0x214>
    b71c:	e285004c 	add	r0, r5, #76	; 0x4c
    b720:	eb001ade 	bl	122a0 <DWHCIRootPortInitialize>
    b724:	e3500000 	cmp	r0, #0
    b728:	1a00000b 	bne	b75c <DWHCIDeviceInitialize+0x1fc>
    b72c:	e3090cdc 	movw	r0, #40156	; 0x9cdc
    b730:	e3400001 	movt	r0, #1
    b734:	e3a01002 	mov	r1, #2
    b738:	e30a20d8 	movw	r2, #41176	; 0xa0d8
    b73c:	e3402001 	movt	r2, #1
    b740:	eb0031eb 	bl	17ef4 <LogWrite>
    b744:	e1a0000d 	mov	r0, sp
    b748:	eb000122 	bl	bbd8 <_DWHCIRegister>
    b74c:	e28d000c 	add	r0, sp, #12
    b750:	eb000120 	bl	bbd8 <_DWHCIRegister>
    b754:	e3a04001 	mov	r4, #1
    b758:	ea000005 	b	b774 <DWHCIDeviceInitialize+0x214>
    b75c:	f57ff05f 	dmb	sy
    b760:	e1a0000d 	mov	r0, sp
    b764:	eb00011b 	bl	bbd8 <_DWHCIRegister>
    b768:	e28d000c 	add	r0, sp, #12
    b76c:	eb000119 	bl	bbd8 <_DWHCIRegister>
    b770:	e3a04001 	mov	r4, #1
    b774:	e1a00004 	mov	r0, r4
    b778:	e28dd01c 	add	sp, sp, #28
    b77c:	e8bd8030 	pop	{r4, r5, pc}

0000b780 <DWHCIDeviceGetPortSpeed>:
    b780:	e92d4010 	push	{r4, lr}
    b784:	e24dd010 	sub	sp, sp, #16
    b788:	e3500000 	cmp	r0, #0
    b78c:	1a000005 	bne	b7a8 <DWHCIDeviceGetPortSpeed+0x28>
    b790:	e3090ce4 	movw	r0, #40164	; 0x9ce4
    b794:	e3400001 	movt	r0, #1
    b798:	e3091cf0 	movw	r1, #40176	; 0x9cf0
    b79c:	e3401001 	movt	r1, #1
    b7a0:	e3002539 	movw	r2, #1337	; 0x539
    b7a4:	eb0031e4 	bl	17f3c <uspi_assertion_failed>
    b7a8:	e28d0004 	add	r0, sp, #4
    b7ac:	e3a01d11 	mov	r1, #1088	; 0x440
    b7b0:	e3431f98 	movt	r1, #16280	; 0x3f98
    b7b4:	eb0000e9 	bl	bb60 <DWHCIRegister>
    b7b8:	e28d0004 	add	r0, sp, #4
    b7bc:	eb000111 	bl	bc08 <DWHCIRegisterRead>
    b7c0:	e7e108d0 	ubfx	r0, r0, #17, #2
    b7c4:	e3500001 	cmp	r0, #1
    b7c8:	03a04001 	moveq	r4, #1
    b7cc:	0a000005 	beq	b7e8 <DWHCIDeviceGetPortSpeed+0x68>
    b7d0:	33a04002 	movcc	r4, #2
    b7d4:	3a000003 	bcc	b7e8 <DWHCIDeviceGetPortSpeed+0x68>
    b7d8:	e3500002 	cmp	r0, #2
    b7dc:	03a04000 	moveq	r4, #0
    b7e0:	13a04003 	movne	r4, #3
    b7e4:	eaffffff 	b	b7e8 <DWHCIDeviceGetPortSpeed+0x68>
    b7e8:	e28d0004 	add	r0, sp, #4
    b7ec:	eb0000f9 	bl	bbd8 <_DWHCIRegister>
    b7f0:	e1a00004 	mov	r0, r4
    b7f4:	e28dd010 	add	sp, sp, #16
    b7f8:	e8bd8010 	pop	{r4, pc}

0000b7fc <DWHCIDeviceOvercurrentDetected>:
    b7fc:	e52de004 	push	{lr}		; (str lr, [sp, #-4]!)
    b800:	e24dd014 	sub	sp, sp, #20
    b804:	e3500000 	cmp	r0, #0
    b808:	1a000005 	bne	b824 <DWHCIDeviceOvercurrentDetected+0x28>
    b80c:	e3090ce4 	movw	r0, #40164	; 0x9ce4
    b810:	e3400001 	movt	r0, #1
    b814:	e3091cf0 	movw	r1, #40176	; 0x9cf0
    b818:	e3401001 	movt	r1, #1
    b81c:	e3002559 	movw	r2, #1369	; 0x559
    b820:	eb0031c5 	bl	17f3c <uspi_assertion_failed>
    b824:	e28d0004 	add	r0, sp, #4
    b828:	e3a01d11 	mov	r1, #1088	; 0x440
    b82c:	e3431f98 	movt	r1, #16280	; 0x3f98
    b830:	eb0000ca 	bl	bb60 <DWHCIRegister>
    b834:	e28d0004 	add	r0, sp, #4
    b838:	eb0000f2 	bl	bc08 <DWHCIRegisterRead>
    b83c:	e3100010 	tst	r0, #16
    b840:	0a000003 	beq	b854 <DWHCIDeviceOvercurrentDetected+0x58>
    b844:	e28d0004 	add	r0, sp, #4
    b848:	eb0000e2 	bl	bbd8 <_DWHCIRegister>
    b84c:	e3a00001 	mov	r0, #1
    b850:	ea000002 	b	b860 <DWHCIDeviceOvercurrentDetected+0x64>
    b854:	e28d0004 	add	r0, sp, #4
    b858:	eb0000de 	bl	bbd8 <_DWHCIRegister>
    b85c:	e3a00000 	mov	r0, #0
    b860:	e28dd014 	add	sp, sp, #20
    b864:	e49df004 	pop	{pc}		; (ldr pc, [sp], #4)

0000b868 <DWHCIDeviceDisableRootPort>:
    b868:	e52de004 	push	{lr}		; (str lr, [sp, #-4]!)
    b86c:	e24dd014 	sub	sp, sp, #20
    b870:	e3500000 	cmp	r0, #0
    b874:	1a000005 	bne	b890 <DWHCIDeviceDisableRootPort+0x28>
    b878:	e3090ce4 	movw	r0, #40164	; 0x9ce4
    b87c:	e3400001 	movt	r0, #1
    b880:	e3091cf0 	movw	r1, #40176	; 0x9cf0
    b884:	e3401001 	movt	r1, #1
    b888:	e300256c 	movw	r2, #1388	; 0x56c
    b88c:	eb0031aa 	bl	17f3c <uspi_assertion_failed>
    b890:	e28d0004 	add	r0, sp, #4
    b894:	e3a01d11 	mov	r1, #1088	; 0x440
    b898:	e3431f98 	movt	r1, #16280	; 0x3f98
    b89c:	eb0000af 	bl	bb60 <DWHCIRegister>
    b8a0:	e28d0004 	add	r0, sp, #4
    b8a4:	eb0000d7 	bl	bc08 <DWHCIRegisterRead>
    b8a8:	e28d0004 	add	r0, sp, #4
    b8ac:	e3e01a01 	mvn	r1, #4096	; 0x1000
    b8b0:	eb000133 	bl	bd84 <DWHCIRegisterAnd>
    b8b4:	e28d0004 	add	r0, sp, #4
    b8b8:	eb0000e1 	bl	bc44 <DWHCIRegisterWrite>
    b8bc:	e28d0004 	add	r0, sp, #4
    b8c0:	eb0000c4 	bl	bbd8 <_DWHCIRegister>
    b8c4:	e28dd014 	add	sp, sp, #20
    b8c8:	e49df004 	pop	{pc}		; (ldr pc, [sp], #4)

0000b8cc <DWHCIDeviceDumpRegister>:
    b8cc:	e92d4030 	push	{r4, r5, lr}
    b8d0:	e24dd01c 	sub	sp, sp, #28
    b8d4:	e1a04001 	mov	r4, r1
    b8d8:	e1a05002 	mov	r5, r2
    b8dc:	e3500000 	cmp	r0, #0
    b8e0:	1a000005 	bne	b8fc <DWHCIDeviceDumpRegister+0x30>
    b8e4:	e3090ce4 	movw	r0, #40164	; 0x9ce4
    b8e8:	e3400001 	movt	r0, #1
    b8ec:	e3091cf0 	movw	r1, #40176	; 0x9cf0
    b8f0:	e3401001 	movt	r1, #1
    b8f4:	e300257c 	movw	r2, #1404	; 0x57c
    b8f8:	eb00318f 	bl	17f3c <uspi_assertion_failed>
    b8fc:	e28d000c 	add	r0, sp, #12
    b900:	e1a01005 	mov	r1, r5
    b904:	eb000095 	bl	bb60 <DWHCIRegister>
    b908:	f57ff05f 	dmb	sy
    b90c:	e28d000c 	add	r0, sp, #12
    b910:	eb0000bc 	bl	bc08 <DWHCIRegisterRead>
    b914:	e1a03000 	mov	r3, r0
    b918:	e58d4000 	str	r4, [sp]
    b91c:	e3090cdc 	movw	r0, #40156	; 0x9cdc
    b920:	e3400001 	movt	r0, #1
    b924:	e3a01004 	mov	r1, #4
    b928:	e30a20f4 	movw	r2, #41204	; 0xa0f4
    b92c:	e3402001 	movt	r2, #1
    b930:	eb00316f 	bl	17ef4 <LogWrite>
    b934:	e28d000c 	add	r0, sp, #12
    b938:	eb0000a6 	bl	bbd8 <_DWHCIRegister>
    b93c:	e28dd01c 	add	sp, sp, #28
    b940:	e8bd8030 	pop	{r4, r5, pc}

0000b944 <DWHCIDeviceDumpStatus>:
    b944:	e92d4070 	push	{r4, r5, r6, lr}
    b948:	e1a06001 	mov	r6, r1
    b94c:	e2504000 	subs	r4, r0, #0
    b950:	1a000005 	bne	b96c <DWHCIDeviceDumpStatus+0x28>
    b954:	e3090ce4 	movw	r0, #40164	; 0x9ce4
    b958:	e3400001 	movt	r0, #1
    b95c:	e3091cf0 	movw	r1, #40176	; 0x9cf0
    b960:	e3401001 	movt	r1, #1
    b964:	e300258a 	movw	r2, #1418	; 0x58a
    b968:	eb003173 	bl	17f3c <uspi_assertion_failed>
    b96c:	e1a00004 	mov	r0, r4
    b970:	e30a1100 	movw	r1, #41216	; 0xa100
    b974:	e3401001 	movt	r1, #1
    b978:	e3a02000 	mov	r2, #0
    b97c:	e3432f98 	movt	r2, #16280	; 0x3f98
    b980:	ebffffd1 	bl	b8cc <DWHCIDeviceDumpRegister>
    b984:	e1a00004 	mov	r0, r4
    b988:	e30a110c 	movw	r1, #41228	; 0xa10c
    b98c:	e3401001 	movt	r1, #1
    b990:	e3a02008 	mov	r2, #8
    b994:	e3432f98 	movt	r2, #16280	; 0x3f98
    b998:	ebffffcb 	bl	b8cc <DWHCIDeviceDumpRegister>
    b99c:	e1a00004 	mov	r0, r4
    b9a0:	e30a1114 	movw	r1, #41236	; 0xa114
    b9a4:	e3401001 	movt	r1, #1
    b9a8:	e3a0200c 	mov	r2, #12
    b9ac:	e3432f98 	movt	r2, #16280	; 0x3f98
    b9b0:	ebffffc5 	bl	b8cc <DWHCIDeviceDumpRegister>
    b9b4:	e1a00004 	mov	r0, r4
    b9b8:	e30a111c 	movw	r1, #41244	; 0xa11c
    b9bc:	e3401001 	movt	r1, #1
    b9c0:	e3a02010 	mov	r2, #16
    b9c4:	e3432f98 	movt	r2, #16280	; 0x3f98
    b9c8:	ebffffbf 	bl	b8cc <DWHCIDeviceDumpRegister>
    b9cc:	e1a00004 	mov	r0, r4
    b9d0:	e30a1124 	movw	r1, #41252	; 0xa124
    b9d4:	e3401001 	movt	r1, #1
    b9d8:	e3a02014 	mov	r2, #20
    b9dc:	e3432f98 	movt	r2, #16280	; 0x3f98
    b9e0:	ebffffb9 	bl	b8cc <DWHCIDeviceDumpRegister>
    b9e4:	e1a00004 	mov	r0, r4
    b9e8:	e30a1130 	movw	r1, #41264	; 0xa130
    b9ec:	e3401001 	movt	r1, #1
    b9f0:	e3a02018 	mov	r2, #24
    b9f4:	e3432f98 	movt	r2, #16280	; 0x3f98
    b9f8:	ebffffb3 	bl	b8cc <DWHCIDeviceDumpRegister>
    b9fc:	e1a00004 	mov	r0, r4
    ba00:	e30a113c 	movw	r1, #41276	; 0xa13c
    ba04:	e3401001 	movt	r1, #1
    ba08:	e3a02024 	mov	r2, #36	; 0x24
    ba0c:	e3432f98 	movt	r2, #16280	; 0x3f98
    ba10:	ebffffad 	bl	b8cc <DWHCIDeviceDumpRegister>
    ba14:	e1a00004 	mov	r0, r4
    ba18:	e30a1148 	movw	r1, #41288	; 0xa148
    ba1c:	e3401001 	movt	r1, #1
    ba20:	e3a02028 	mov	r2, #40	; 0x28
    ba24:	e3432f98 	movt	r2, #16280	; 0x3f98
    ba28:	ebffffa7 	bl	b8cc <DWHCIDeviceDumpRegister>
    ba2c:	e1a00004 	mov	r0, r4
    ba30:	e30a115c 	movw	r1, #41308	; 0xa15c
    ba34:	e3401001 	movt	r1, #1
    ba38:	e3a0202c 	mov	r2, #44	; 0x2c
    ba3c:	e3432f98 	movt	r2, #16280	; 0x3f98
    ba40:	ebffffa1 	bl	b8cc <DWHCIDeviceDumpRegister>
    ba44:	e1a00004 	mov	r0, r4
    ba48:	e30a116c 	movw	r1, #41324	; 0xa16c
    ba4c:	e3401001 	movt	r1, #1
    ba50:	e3a02c01 	mov	r2, #256	; 0x100
    ba54:	e3432f98 	movt	r2, #16280	; 0x3f98
    ba58:	ebffff9b 	bl	b8cc <DWHCIDeviceDumpRegister>
    ba5c:	e1a00004 	mov	r0, r4
    ba60:	e30a1184 	movw	r1, #41348	; 0xa184
    ba64:	e3401001 	movt	r1, #1
    ba68:	e3a02b01 	mov	r2, #1024	; 0x400
    ba6c:	e3432f98 	movt	r2, #16280	; 0x3f98
    ba70:	ebffff95 	bl	b8cc <DWHCIDeviceDumpRegister>
    ba74:	e1a00004 	mov	r0, r4
    ba78:	e30a1190 	movw	r1, #41360	; 0xa190
    ba7c:	e3401001 	movt	r1, #1
    ba80:	e3a02e41 	mov	r2, #1040	; 0x410
    ba84:	e3432f98 	movt	r2, #16280	; 0x3f98
    ba88:	ebffff8f 	bl	b8cc <DWHCIDeviceDumpRegister>
    ba8c:	e1a00004 	mov	r0, r4
    ba90:	e30a11a8 	movw	r1, #41384	; 0xa1a8
    ba94:	e3401001 	movt	r1, #1
    ba98:	e3002414 	movw	r2, #1044	; 0x414
    ba9c:	e3432f98 	movt	r2, #16280	; 0x3f98
    baa0:	ebffff89 	bl	b8cc <DWHCIDeviceDumpRegister>
    baa4:	e1a00004 	mov	r0, r4
    baa8:	e30a11bc 	movw	r1, #41404	; 0xa1bc
    baac:	e3401001 	movt	r1, #1
    bab0:	e3002418 	movw	r2, #1048	; 0x418
    bab4:	e3432f98 	movt	r2, #16280	; 0x3f98
    bab8:	ebffff83 	bl	b8cc <DWHCIDeviceDumpRegister>
    babc:	e1a00004 	mov	r0, r4
    bac0:	e30a11d4 	movw	r1, #41428	; 0xa1d4
    bac4:	e3401001 	movt	r1, #1
    bac8:	e3a02d11 	mov	r2, #1088	; 0x440
    bacc:	e3432f98 	movt	r2, #16280	; 0x3f98
    bad0:	ebffff7d 	bl	b8cc <DWHCIDeviceDumpRegister>
    bad4:	e30c5028 	movw	r5, #49192	; 0xc028
    bad8:	e34051fc 	movt	r5, #508	; 0x1fc
    badc:	e0865005 	add	r5, r6, r5
    bae0:	e1a05285 	lsl	r5, r5, #5
    bae4:	e1a00004 	mov	r0, r4
    bae8:	e30a11e0 	movw	r1, #41440	; 0xa1e0
    baec:	e3401001 	movt	r1, #1
    baf0:	e1a02005 	mov	r2, r5
    baf4:	ebffff74 	bl	b8cc <DWHCIDeviceDumpRegister>
    baf8:	e1a00004 	mov	r0, r4
    bafc:	e30a11f8 	movw	r1, #41464	; 0xa1f8
    bb00:	e3401001 	movt	r1, #1
    bb04:	e2852004 	add	r2, r5, #4
    bb08:	ebffff6f 	bl	b8cc <DWHCIDeviceDumpRegister>
    bb0c:	e1a00004 	mov	r0, r4
    bb10:	e30a1210 	movw	r1, #41488	; 0xa210
    bb14:	e3401001 	movt	r1, #1
    bb18:	e2852008 	add	r2, r5, #8
    bb1c:	ebffff6a 	bl	b8cc <DWHCIDeviceDumpRegister>
    bb20:	e1a00004 	mov	r0, r4
    bb24:	e30a1224 	movw	r1, #41508	; 0xa224
    bb28:	e3401001 	movt	r1, #1
    bb2c:	e285200c 	add	r2, r5, #12
    bb30:	ebffff65 	bl	b8cc <DWHCIDeviceDumpRegister>
    bb34:	e1a00004 	mov	r0, r4
    bb38:	e30a123c 	movw	r1, #41532	; 0xa23c
    bb3c:	e3401001 	movt	r1, #1
    bb40:	e2852010 	add	r2, r5, #16
    bb44:	ebffff60 	bl	b8cc <DWHCIDeviceDumpRegister>
    bb48:	e1a00004 	mov	r0, r4
    bb4c:	e30a1254 	movw	r1, #41556	; 0xa254
    bb50:	e3401001 	movt	r1, #1
    bb54:	e2852014 	add	r2, r5, #20
    bb58:	ebffff5b 	bl	b8cc <DWHCIDeviceDumpRegister>
    bb5c:	e8bd8070 	pop	{r4, r5, r6, pc}

0000bb60 <DWHCIRegister>:
    bb60:	e92d4038 	push	{r3, r4, r5, lr}
    bb64:	e1a05001 	mov	r5, r1
    bb68:	e2504000 	subs	r4, r0, #0
    bb6c:	1a000005 	bne	bb88 <DWHCIRegister+0x28>
    bb70:	e3090ce4 	movw	r0, #40164	; 0x9ce4
    bb74:	e3400001 	movt	r0, #1
    bb78:	e30a126c 	movw	r1, #41580	; 0xa26c
    bb7c:	e3401001 	movt	r1, #1
    bb80:	e3a0201a 	mov	r2, #26
    bb84:	eb0030ec 	bl	17f3c <uspi_assertion_failed>
    bb88:	e3a03000 	mov	r3, #0
    bb8c:	e5843000 	str	r3, [r4]
    bb90:	e5845004 	str	r5, [r4, #4]
    bb94:	e8bd8038 	pop	{r3, r4, r5, pc}

0000bb98 <DWHCIRegister2>:
    bb98:	e92d4070 	push	{r4, r5, r6, lr}
    bb9c:	e1a06001 	mov	r6, r1
    bba0:	e1a05002 	mov	r5, r2
    bba4:	e2504000 	subs	r4, r0, #0
    bba8:	1a000005 	bne	bbc4 <DWHCIRegister2+0x2c>
    bbac:	e3090ce4 	movw	r0, #40164	; 0x9ce4
    bbb0:	e3400001 	movt	r0, #1
    bbb4:	e30a126c 	movw	r1, #41580	; 0xa26c
    bbb8:	e3401001 	movt	r1, #1
    bbbc:	e3a02021 	mov	r2, #33	; 0x21
    bbc0:	eb0030dd 	bl	17f3c <uspi_assertion_failed>
    bbc4:	e3a03001 	mov	r3, #1
    bbc8:	e5843000 	str	r3, [r4]
    bbcc:	e5846004 	str	r6, [r4, #4]
    bbd0:	e5845008 	str	r5, [r4, #8]
    bbd4:	e8bd8070 	pop	{r4, r5, r6, pc}

0000bbd8 <_DWHCIRegister>:
    bbd8:	e92d4010 	push	{r4, lr}
    bbdc:	e2504000 	subs	r4, r0, #0
    bbe0:	1a000005 	bne	bbfc <_DWHCIRegister+0x24>
    bbe4:	e3090ce4 	movw	r0, #40164	; 0x9ce4
    bbe8:	e3400001 	movt	r0, #1
    bbec:	e30a126c 	movw	r1, #41580	; 0xa26c
    bbf0:	e3401001 	movt	r1, #1
    bbf4:	e3a02029 	mov	r2, #41	; 0x29
    bbf8:	eb0030cf 	bl	17f3c <uspi_assertion_failed>
    bbfc:	e3a03000 	mov	r3, #0
    bc00:	e5843000 	str	r3, [r4]
    bc04:	e8bd8010 	pop	{r4, pc}

0000bc08 <DWHCIRegisterRead>:
    bc08:	e92d4010 	push	{r4, lr}
    bc0c:	e2504000 	subs	r4, r0, #0
    bc10:	1a000005 	bne	bc2c <DWHCIRegisterRead+0x24>
    bc14:	e3090ce4 	movw	r0, #40164	; 0x9ce4
    bc18:	e3400001 	movt	r0, #1
    bc1c:	e30a126c 	movw	r1, #41580	; 0xa26c
    bc20:	e3401001 	movt	r1, #1
    bc24:	e3a0202f 	mov	r2, #47	; 0x2f
    bc28:	eb0030c3 	bl	17f3c <uspi_assertion_failed>
    bc2c:	e5943004 	ldr	r3, [r4, #4]
    bc30:	e5930000 	ldr	r0, [r3]
    bc34:	e5840008 	str	r0, [r4, #8]
    bc38:	e3a03001 	mov	r3, #1
    bc3c:	e5843000 	str	r3, [r4]
    bc40:	e8bd8010 	pop	{r4, pc}

0000bc44 <DWHCIRegisterWrite>:
    bc44:	e92d4010 	push	{r4, lr}
    bc48:	e2504000 	subs	r4, r0, #0
    bc4c:	1a000005 	bne	bc68 <DWHCIRegisterWrite+0x24>
    bc50:	e3090ce4 	movw	r0, #40164	; 0x9ce4
    bc54:	e3400001 	movt	r0, #1
    bc58:	e30a126c 	movw	r1, #41580	; 0xa26c
    bc5c:	e3401001 	movt	r1, #1
    bc60:	e3a02038 	mov	r2, #56	; 0x38
    bc64:	eb0030b4 	bl	17f3c <uspi_assertion_failed>
    bc68:	e5943000 	ldr	r3, [r4]
    bc6c:	e3530000 	cmp	r3, #0
    bc70:	1a000005 	bne	bc8c <DWHCIRegisterWrite+0x48>
    bc74:	e30a027c 	movw	r0, #41596	; 0xa27c
    bc78:	e3400001 	movt	r0, #1
    bc7c:	e30a126c 	movw	r1, #41580	; 0xa26c
    bc80:	e3401001 	movt	r1, #1
    bc84:	e3a02039 	mov	r2, #57	; 0x39
    bc88:	eb0030ab 	bl	17f3c <uspi_assertion_failed>
    bc8c:	e5942008 	ldr	r2, [r4, #8]
    bc90:	e5943004 	ldr	r3, [r4, #4]
    bc94:	e5832000 	str	r2, [r3]
    bc98:	e8bd8010 	pop	{r4, pc}

0000bc9c <DWHCIRegisterGet>:
    bc9c:	e92d4010 	push	{r4, lr}
    bca0:	e2504000 	subs	r4, r0, #0
    bca4:	1a000005 	bne	bcc0 <DWHCIRegisterGet+0x24>
    bca8:	e3090ce4 	movw	r0, #40164	; 0x9ce4
    bcac:	e3400001 	movt	r0, #1
    bcb0:	e30a126c 	movw	r1, #41580	; 0xa26c
    bcb4:	e3401001 	movt	r1, #1
    bcb8:	e3a0203f 	mov	r2, #63	; 0x3f
    bcbc:	eb00309e 	bl	17f3c <uspi_assertion_failed>
    bcc0:	e5943000 	ldr	r3, [r4]
    bcc4:	e3530000 	cmp	r3, #0
    bcc8:	1a000005 	bne	bce4 <DWHCIRegisterGet+0x48>
    bccc:	e30a027c 	movw	r0, #41596	; 0xa27c
    bcd0:	e3400001 	movt	r0, #1
    bcd4:	e30a126c 	movw	r1, #41580	; 0xa26c
    bcd8:	e3401001 	movt	r1, #1
    bcdc:	e3a02040 	mov	r2, #64	; 0x40
    bce0:	eb003095 	bl	17f3c <uspi_assertion_failed>
    bce4:	e5940008 	ldr	r0, [r4, #8]
    bce8:	e8bd8010 	pop	{r4, pc}

0000bcec <DWHCIRegisterSet>:
    bcec:	e92d4038 	push	{r3, r4, r5, lr}
    bcf0:	e1a05001 	mov	r5, r1
    bcf4:	e2504000 	subs	r4, r0, #0
    bcf8:	1a000005 	bne	bd14 <DWHCIRegisterSet+0x28>
    bcfc:	e3090ce4 	movw	r0, #40164	; 0x9ce4
    bd00:	e3400001 	movt	r0, #1
    bd04:	e30a126c 	movw	r1, #41580	; 0xa26c
    bd08:	e3401001 	movt	r1, #1
    bd0c:	e3a02046 	mov	r2, #70	; 0x46
    bd10:	eb003089 	bl	17f3c <uspi_assertion_failed>
    bd14:	e5845008 	str	r5, [r4, #8]
    bd18:	e3a03001 	mov	r3, #1
    bd1c:	e5843000 	str	r3, [r4]
    bd20:	e8bd8038 	pop	{r3, r4, r5, pc}

0000bd24 <DWHCIRegisterIsSet>:
    bd24:	e92d4038 	push	{r3, r4, r5, lr}
    bd28:	e1a05001 	mov	r5, r1
    bd2c:	e2504000 	subs	r4, r0, #0
    bd30:	1a000005 	bne	bd4c <DWHCIRegisterIsSet+0x28>
    bd34:	e3090ce4 	movw	r0, #40164	; 0x9ce4
    bd38:	e3400001 	movt	r0, #1
    bd3c:	e30a126c 	movw	r1, #41580	; 0xa26c
    bd40:	e3401001 	movt	r1, #1
    bd44:	e3a0204d 	mov	r2, #77	; 0x4d
    bd48:	eb00307b 	bl	17f3c <uspi_assertion_failed>
    bd4c:	e5943000 	ldr	r3, [r4]
    bd50:	e3530000 	cmp	r3, #0
    bd54:	1a000005 	bne	bd70 <DWHCIRegisterIsSet+0x4c>
    bd58:	e30a027c 	movw	r0, #41596	; 0xa27c
    bd5c:	e3400001 	movt	r0, #1
    bd60:	e30a126c 	movw	r1, #41580	; 0xa26c
    bd64:	e3401001 	movt	r1, #1
    bd68:	e3a0204e 	mov	r2, #78	; 0x4e
    bd6c:	eb003072 	bl	17f3c <uspi_assertion_failed>
    bd70:	e5943008 	ldr	r3, [r4, #8]
    bd74:	e1150003 	tst	r5, r3
    bd78:	13a00001 	movne	r0, #1
    bd7c:	03a00000 	moveq	r0, #0
    bd80:	e8bd8038 	pop	{r3, r4, r5, pc}

0000bd84 <DWHCIRegisterAnd>:
    bd84:	e92d4038 	push	{r3, r4, r5, lr}
    bd88:	e1a05001 	mov	r5, r1
    bd8c:	e2504000 	subs	r4, r0, #0
    bd90:	1a000005 	bne	bdac <DWHCIRegisterAnd+0x28>
    bd94:	e3090ce4 	movw	r0, #40164	; 0x9ce4
    bd98:	e3400001 	movt	r0, #1
    bd9c:	e30a126c 	movw	r1, #41580	; 0xa26c
    bda0:	e3401001 	movt	r1, #1
    bda4:	e3a02054 	mov	r2, #84	; 0x54
    bda8:	eb003063 	bl	17f3c <uspi_assertion_failed>
    bdac:	e5943000 	ldr	r3, [r4]
    bdb0:	e3530000 	cmp	r3, #0
    bdb4:	1a000005 	bne	bdd0 <DWHCIRegisterAnd+0x4c>
    bdb8:	e30a027c 	movw	r0, #41596	; 0xa27c
    bdbc:	e3400001 	movt	r0, #1
    bdc0:	e30a126c 	movw	r1, #41580	; 0xa26c
    bdc4:	e3401001 	movt	r1, #1
    bdc8:	e3a02055 	mov	r2, #85	; 0x55
    bdcc:	eb00305a 	bl	17f3c <uspi_assertion_failed>
    bdd0:	e5943008 	ldr	r3, [r4, #8]
    bdd4:	e0055003 	and	r5, r5, r3
    bdd8:	e5845008 	str	r5, [r4, #8]
    bddc:	e8bd8038 	pop	{r3, r4, r5, pc}

0000bde0 <DWHCIRegisterOr>:
    bde0:	e92d4038 	push	{r3, r4, r5, lr}
    bde4:	e1a05001 	mov	r5, r1
    bde8:	e2504000 	subs	r4, r0, #0
    bdec:	1a000005 	bne	be08 <DWHCIRegisterOr+0x28>
    bdf0:	e3090ce4 	movw	r0, #40164	; 0x9ce4
    bdf4:	e3400001 	movt	r0, #1
    bdf8:	e30a126c 	movw	r1, #41580	; 0xa26c
    bdfc:	e3401001 	movt	r1, #1
    be00:	e3a0205b 	mov	r2, #91	; 0x5b
    be04:	eb00304c 	bl	17f3c <uspi_assertion_failed>
    be08:	e5943000 	ldr	r3, [r4]
    be0c:	e3530000 	cmp	r3, #0
    be10:	1a000005 	bne	be2c <DWHCIRegisterOr+0x4c>
    be14:	e30a027c 	movw	r0, #41596	; 0xa27c
    be18:	e3400001 	movt	r0, #1
    be1c:	e30a126c 	movw	r1, #41580	; 0xa26c
    be20:	e3401001 	movt	r1, #1
    be24:	e3a0205c 	mov	r2, #92	; 0x5c
    be28:	eb003043 	bl	17f3c <uspi_assertion_failed>
    be2c:	e5943008 	ldr	r3, [r4, #8]
    be30:	e1835005 	orr	r5, r3, r5
    be34:	e5845008 	str	r5, [r4, #8]
    be38:	e8bd8038 	pop	{r3, r4, r5, pc}

0000be3c <DWHCIRegisterClearBit>:
    be3c:	e92d4038 	push	{r3, r4, r5, lr}
    be40:	e1a05001 	mov	r5, r1
    be44:	e2504000 	subs	r4, r0, #0
    be48:	1a000005 	bne	be64 <DWHCIRegisterClearBit+0x28>
    be4c:	e3090ce4 	movw	r0, #40164	; 0x9ce4
    be50:	e3400001 	movt	r0, #1
    be54:	e30a126c 	movw	r1, #41580	; 0xa26c
    be58:	e3401001 	movt	r1, #1
    be5c:	e3a02062 	mov	r2, #98	; 0x62
    be60:	eb003035 	bl	17f3c <uspi_assertion_failed>
    be64:	e5943000 	ldr	r3, [r4]
    be68:	e3530000 	cmp	r3, #0
    be6c:	1a000005 	bne	be88 <DWHCIRegisterClearBit+0x4c>
    be70:	e30a027c 	movw	r0, #41596	; 0xa27c
    be74:	e3400001 	movt	r0, #1
    be78:	e30a126c 	movw	r1, #41580	; 0xa26c
    be7c:	e3401001 	movt	r1, #1
    be80:	e3a02063 	mov	r2, #99	; 0x63
    be84:	eb00302c 	bl	17f3c <uspi_assertion_failed>
    be88:	e355001f 	cmp	r5, #31
    be8c:	9a000005 	bls	bea8 <DWHCIRegisterClearBit+0x6c>
    be90:	e30a028c 	movw	r0, #41612	; 0xa28c
    be94:	e3400001 	movt	r0, #1
    be98:	e30a126c 	movw	r1, #41580	; 0xa26c
    be9c:	e3401001 	movt	r1, #1
    bea0:	e3a02064 	mov	r2, #100	; 0x64
    bea4:	eb003024 	bl	17f3c <uspi_assertion_failed>
    bea8:	e5943008 	ldr	r3, [r4, #8]
    beac:	e3a01001 	mov	r1, #1
    beb0:	e1c31511 	bic	r1, r3, r1, lsl r5
    beb4:	e5841008 	str	r1, [r4, #8]
    beb8:	e8bd8038 	pop	{r3, r4, r5, pc}

0000bebc <DWHCIRegisterSetBit>:
    bebc:	e92d4038 	push	{r3, r4, r5, lr}
    bec0:	e1a05001 	mov	r5, r1
    bec4:	e2504000 	subs	r4, r0, #0
    bec8:	1a000005 	bne	bee4 <DWHCIRegisterSetBit+0x28>
    becc:	e3090ce4 	movw	r0, #40164	; 0x9ce4
    bed0:	e3400001 	movt	r0, #1
    bed4:	e30a126c 	movw	r1, #41580	; 0xa26c
    bed8:	e3401001 	movt	r1, #1
    bedc:	e3a0206a 	mov	r2, #106	; 0x6a
    bee0:	eb003015 	bl	17f3c <uspi_assertion_failed>
    bee4:	e5943000 	ldr	r3, [r4]
    bee8:	e3530000 	cmp	r3, #0
    beec:	1a000005 	bne	bf08 <DWHCIRegisterSetBit+0x4c>
    bef0:	e30a027c 	movw	r0, #41596	; 0xa27c
    bef4:	e3400001 	movt	r0, #1
    bef8:	e30a126c 	movw	r1, #41580	; 0xa26c
    befc:	e3401001 	movt	r1, #1
    bf00:	e3a0206b 	mov	r2, #107	; 0x6b
    bf04:	eb00300c 	bl	17f3c <uspi_assertion_failed>
    bf08:	e355001f 	cmp	r5, #31
    bf0c:	9a000005 	bls	bf28 <DWHCIRegisterSetBit+0x6c>
    bf10:	e30a028c 	movw	r0, #41612	; 0xa28c
    bf14:	e3400001 	movt	r0, #1
    bf18:	e30a126c 	movw	r1, #41580	; 0xa26c
    bf1c:	e3401001 	movt	r1, #1
    bf20:	e3a0206c 	mov	r2, #108	; 0x6c
    bf24:	eb003004 	bl	17f3c <uspi_assertion_failed>
    bf28:	e5943008 	ldr	r3, [r4, #8]
    bf2c:	e3a01001 	mov	r1, #1
    bf30:	e1831511 	orr	r1, r3, r1, lsl r5
    bf34:	e5841008 	str	r1, [r4, #8]
    bf38:	e8bd8038 	pop	{r3, r4, r5, pc}

0000bf3c <DWHCIRegisterClearAll>:
    bf3c:	e92d4010 	push	{r4, lr}
    bf40:	e2504000 	subs	r4, r0, #0
    bf44:	1a000005 	bne	bf60 <DWHCIRegisterClearAll+0x24>
    bf48:	e3090ce4 	movw	r0, #40164	; 0x9ce4
    bf4c:	e3400001 	movt	r0, #1
    bf50:	e30a126c 	movw	r1, #41580	; 0xa26c
    bf54:	e3401001 	movt	r1, #1
    bf58:	e3a02072 	mov	r2, #114	; 0x72
    bf5c:	eb002ff6 	bl	17f3c <uspi_assertion_failed>
    bf60:	e3a03000 	mov	r3, #0
    bf64:	e5843008 	str	r3, [r4, #8]
    bf68:	e3a03001 	mov	r3, #1
    bf6c:	e5843000 	str	r3, [r4]
    bf70:	e8bd8010 	pop	{r4, pc}

0000bf74 <DWHCIRegisterSetAll>:
    bf74:	e92d4010 	push	{r4, lr}
    bf78:	e2504000 	subs	r4, r0, #0
    bf7c:	1a000005 	bne	bf98 <DWHCIRegisterSetAll+0x24>
    bf80:	e3090ce4 	movw	r0, #40164	; 0x9ce4
    bf84:	e3400001 	movt	r0, #1
    bf88:	e30a126c 	movw	r1, #41580	; 0xa26c
    bf8c:	e3401001 	movt	r1, #1
    bf90:	e3a02079 	mov	r2, #121	; 0x79
    bf94:	eb002fe8 	bl	17f3c <uspi_assertion_failed>
    bf98:	e3e03000 	mvn	r3, #0
    bf9c:	e5843008 	str	r3, [r4, #8]
    bfa0:	e3a03001 	mov	r3, #1
    bfa4:	e5843000 	str	r3, [r4]
    bfa8:	e8bd8010 	pop	{r4, pc}

0000bfac <DWHCIRegisterDump>:
    bfac:	e92d4010 	push	{r4, lr}
    bfb0:	e24dd008 	sub	sp, sp, #8
    bfb4:	e2504000 	subs	r4, r0, #0
    bfb8:	1a000005 	bne	bfd4 <DWHCIRegisterDump+0x28>
    bfbc:	e3090ce4 	movw	r0, #40164	; 0x9ce4
    bfc0:	e3400001 	movt	r0, #1
    bfc4:	e30a126c 	movw	r1, #41580	; 0xa26c
    bfc8:	e3401001 	movt	r1, #1
    bfcc:	e3a02082 	mov	r2, #130	; 0x82
    bfd0:	eb002fd9 	bl	17f3c <uspi_assertion_failed>
    bfd4:	e5943000 	ldr	r3, [r4]
    bfd8:	e3530000 	cmp	r3, #0
    bfdc:	0a00000a 	beq	c00c <DWHCIRegisterDump+0x60>
    bfe0:	e5943004 	ldr	r3, [r4, #4]
    bfe4:	e5942008 	ldr	r2, [r4, #8]
    bfe8:	e58d2000 	str	r2, [sp]
    bfec:	e30a02b0 	movw	r0, #41648	; 0xa2b0
    bff0:	e3400001 	movt	r0, #1
    bff4:	e3a01004 	mov	r1, #4
    bff8:	e30a22b8 	movw	r2, #41656	; 0xa2b8
    bffc:	e3402001 	movt	r2, #1
    c000:	e7eb3053 	ubfx	r3, r3, #0, #12
    c004:	eb002fba 	bl	17ef4 <LogWrite>
    c008:	ea000007 	b	c02c <DWHCIRegisterDump+0x80>
    c00c:	e5943004 	ldr	r3, [r4, #4]
    c010:	e30a02b0 	movw	r0, #41648	; 0xa2b0
    c014:	e3400001 	movt	r0, #1
    c018:	e3a01004 	mov	r1, #4
    c01c:	e30a22d4 	movw	r2, #41684	; 0xa2d4
    c020:	e3402001 	movt	r2, #1
    c024:	e7eb3053 	ubfx	r3, r3, #0, #12
    c028:	eb002fb1 	bl	17ef4 <LogWrite>
    c02c:	e28dd008 	add	sp, sp, #8
    c030:	e8bd8010 	pop	{r4, pc}

0000c034 <_DWHCITransferStageData>:
    c034:	e92d4010 	push	{r4, lr}
    c038:	e2504000 	subs	r4, r0, #0
    c03c:	1a000005 	bne	c058 <_DWHCITransferStageData+0x24>
    c040:	e3090ce4 	movw	r0, #40164	; 0x9ce4
    c044:	e3400001 	movt	r0, #1
    c048:	e30a12f4 	movw	r1, #41716	; 0xa2f4
    c04c:	e3401001 	movt	r1, #1
    c050:	e3a02088 	mov	r2, #136	; 0x88
    c054:	eb002fb8 	bl	17f3c <uspi_assertion_failed>
    c058:	e5940050 	ldr	r0, [r4, #80]	; 0x50
    c05c:	e3500000 	cmp	r0, #0
    c060:	0a000005 	beq	c07c <_DWHCITransferStageData+0x48>
    c064:	e5903000 	ldr	r3, [r0]
    c068:	e12fff33 	blx	r3
    c06c:	e5940050 	ldr	r0, [r4, #80]	; 0x50
    c070:	eb002757 	bl	15dd4 <free>
    c074:	e3a03000 	mov	r3, #0
    c078:	e5843050 	str	r3, [r4, #80]	; 0x50
    c07c:	e3a03000 	mov	r3, #0
    c080:	e584304c 	str	r3, [r4, #76]	; 0x4c
    c084:	e5940048 	ldr	r0, [r4, #72]	; 0x48
    c088:	e1500003 	cmp	r0, r3
    c08c:	0a000002 	beq	c09c <_DWHCITransferStageData+0x68>
    c090:	eb00274f 	bl	15dd4 <free>
    c094:	e3a03000 	mov	r3, #0
    c098:	e5843048 	str	r3, [r4, #72]	; 0x48
    c09c:	e3a03000 	mov	r3, #0
    c0a0:	e584301c 	str	r3, [r4, #28]
    c0a4:	e5843018 	str	r3, [r4, #24]
    c0a8:	e5843004 	str	r3, [r4, #4]
    c0ac:	e8bd8010 	pop	{r4, pc}

0000c0b0 <DWHCITransferStageDataTransactionComplete>:
    c0b0:	e92d40f8 	push	{r3, r4, r5, r6, r7, lr}
    c0b4:	e1a07001 	mov	r7, r1
    c0b8:	e1a06002 	mov	r6, r2
    c0bc:	e1a05003 	mov	r5, r3
    c0c0:	e2504000 	subs	r4, r0, #0
    c0c4:	1a000005 	bne	c0e0 <DWHCITransferStageDataTransactionComplete+0x30>
    c0c8:	e3090ce4 	movw	r0, #40164	; 0x9ce4
    c0cc:	e3400001 	movt	r0, #1
    c0d0:	e30a12f4 	movw	r1, #41716	; 0xa2f4
    c0d4:	e3401001 	movt	r1, #1
    c0d8:	e3a020a0 	mov	r2, #160	; 0xa0
    c0dc:	eb002f96 	bl	17f3c <uspi_assertion_failed>
    c0e0:	e5847044 	str	r7, [r4, #68]	; 0x44
    c0e4:	e30037dc 	movw	r3, #2012	; 0x7dc
    c0e8:	e1170003 	tst	r7, r3
    c0ec:	18bd80f8 	popne	{r3, r4, r5, r6, r7, pc}
    c0f0:	e5943034 	ldr	r3, [r4, #52]	; 0x34
    c0f4:	e0666003 	rsb	r6, r6, r3
    c0f8:	e5942030 	ldr	r2, [r4, #48]	; 0x30
    c0fc:	e0653002 	rsb	r3, r5, r2
    c100:	e5941010 	ldr	r1, [r4, #16]
    c104:	e3510000 	cmp	r1, #0
    c108:	0a000038 	beq	c1f0 <DWHCITransferStageDataTransactionComplete+0x140>
    c10c:	e5941014 	ldr	r1, [r4, #20]
    c110:	e3520000 	cmp	r2, #0
    c114:	13510000 	cmpne	r1, #0
    c118:	13a02001 	movne	r2, #1
    c11c:	03a02000 	moveq	r2, #0
    c120:	e3530000 	cmp	r3, #0
    c124:	13a02000 	movne	r2, #0
    c128:	02022001 	andeq	r2, r2, #1
    c12c:	e3520000 	cmp	r2, #0
    c130:	15943024 	ldrne	r3, [r4, #36]	; 0x24
    c134:	10030693 	mulne	r3, r3, r6
    c138:	ea000022 	b	c1c8 <DWHCITransferStageDataTransactionComplete+0x118>
    c13c:	e594001c 	ldr	r0, [r4, #28]
    c140:	e1a01006 	mov	r1, r6
    c144:	e594200c 	ldr	r2, [r4, #12]
    c148:	eb0007c1 	bl	e054 <USBEndpointSkipPID>
    c14c:	e594302c 	ldr	r3, [r4, #44]	; 0x2c
    c150:	e1560003 	cmp	r6, r3
    c154:	9a000005 	bls	c170 <DWHCITransferStageDataTransactionComplete+0xc0>
    c158:	e30a030c 	movw	r0, #41740	; 0xa30c
    c15c:	e3400001 	movt	r0, #1
    c160:	e30a12f4 	movw	r1, #41716	; 0xa2f4
    c164:	e3401001 	movt	r1, #1
    c168:	e3a020c9 	mov	r2, #201	; 0xc9
    c16c:	eb002f72 	bl	17f3c <uspi_assertion_failed>
    c170:	e594302c 	ldr	r3, [r4, #44]	; 0x2c
    c174:	e0666003 	rsb	r6, r6, r3
    c178:	e584602c 	str	r6, [r4, #44]	; 0x2c
    c17c:	e5942028 	ldr	r2, [r4, #40]	; 0x28
    c180:	e5943038 	ldr	r3, [r4, #56]	; 0x38
    c184:	e0630002 	rsb	r0, r3, r2
    c188:	e5941030 	ldr	r1, [r4, #48]	; 0x30
    c18c:	e1500001 	cmp	r0, r1
    c190:	28bd80f8 	popcs	{r3, r4, r5, r6, r7, pc}
    c194:	e1520003 	cmp	r2, r3
    c198:	2a000005 	bcs	c1b4 <DWHCITransferStageDataTransactionComplete+0x104>
    c19c:	e30a0334 	movw	r0, #41780	; 0xa334
    c1a0:	e3400001 	movt	r0, #1
    c1a4:	e30a12f4 	movw	r1, #41716	; 0xa2f4
    c1a8:	e3401001 	movt	r1, #1
    c1ac:	e3a020cf 	mov	r2, #207	; 0xcf
    c1b0:	eb002f61 	bl	17f3c <uspi_assertion_failed>
    c1b4:	e5943028 	ldr	r3, [r4, #40]	; 0x28
    c1b8:	e5942038 	ldr	r2, [r4, #56]	; 0x38
    c1bc:	e0623003 	rsb	r3, r2, r3
    c1c0:	e5843030 	str	r3, [r4, #48]	; 0x30
    c1c4:	e8bd80f8 	pop	{r3, r4, r5, r6, r7, pc}
    c1c8:	e5942038 	ldr	r2, [r4, #56]	; 0x38
    c1cc:	e0822003 	add	r2, r2, r3
    c1d0:	e5842038 	str	r2, [r4, #56]	; 0x38
    c1d4:	e594204c 	ldr	r2, [r4, #76]	; 0x4c
    c1d8:	e0823003 	add	r3, r2, r3
    c1dc:	e584304c 	str	r3, [r4, #76]	; 0x4c
    c1e0:	e5943014 	ldr	r3, [r4, #20]
    c1e4:	e3530000 	cmp	r3, #0
    c1e8:	1affffd3 	bne	c13c <DWHCITransferStageDataTransactionComplete+0x8c>
    c1ec:	eaffffd6 	b	c14c <DWHCITransferStageDataTransactionComplete+0x9c>
    c1f0:	e5942038 	ldr	r2, [r4, #56]	; 0x38
    c1f4:	e0822003 	add	r2, r2, r3
    c1f8:	e5842038 	str	r2, [r4, #56]	; 0x38
    c1fc:	e594204c 	ldr	r2, [r4, #76]	; 0x4c
    c200:	e0823003 	add	r3, r2, r3
    c204:	e584304c 	str	r3, [r4, #76]	; 0x4c
    c208:	eaffffcb 	b	c13c <DWHCITransferStageDataTransactionComplete+0x8c>

0000c20c <DWHCITransferStageDataSetSplitComplete>:
    c20c:	e92d4038 	push	{r3, r4, r5, lr}
    c210:	e1a05001 	mov	r5, r1
    c214:	e2504000 	subs	r4, r0, #0
    c218:	1a000005 	bne	c234 <DWHCITransferStageDataSetSplitComplete+0x28>
    c21c:	e3090ce4 	movw	r0, #40164	; 0x9ce4
    c220:	e3400001 	movt	r0, #1
    c224:	e30a12f4 	movw	r1, #41716	; 0xa2f4
    c228:	e3401001 	movt	r1, #1
    c22c:	e3a020d6 	mov	r2, #214	; 0xd6
    c230:	eb002f41 	bl	17f3c <uspi_assertion_failed>
    c234:	e5943010 	ldr	r3, [r4, #16]
    c238:	e3530000 	cmp	r3, #0
    c23c:	1a000005 	bne	c258 <DWHCITransferStageDataSetSplitComplete+0x4c>
    c240:	e30a0370 	movw	r0, #41840	; 0xa370
    c244:	e3400001 	movt	r0, #1
    c248:	e30a12f4 	movw	r1, #41716	; 0xa2f4
    c24c:	e3401001 	movt	r1, #1
    c250:	e3a020d7 	mov	r2, #215	; 0xd7
    c254:	eb002f38 	bl	17f3c <uspi_assertion_failed>
    c258:	e5845014 	str	r5, [r4, #20]
    c25c:	e8bd8038 	pop	{r3, r4, r5, pc}

0000c260 <DWHCITransferStageDataSetState>:
    c260:	e92d4038 	push	{r3, r4, r5, lr}
    c264:	e1a05001 	mov	r5, r1
    c268:	e2504000 	subs	r4, r0, #0
    c26c:	1a000005 	bne	c288 <DWHCITransferStageDataSetState+0x28>
    c270:	e3090ce4 	movw	r0, #40164	; 0x9ce4
    c274:	e3400001 	movt	r0, #1
    c278:	e30a12f4 	movw	r1, #41716	; 0xa2f4
    c27c:	e3401001 	movt	r1, #1
    c280:	e3a020de 	mov	r2, #222	; 0xde
    c284:	eb002f2c 	bl	17f3c <uspi_assertion_failed>
    c288:	e584503c 	str	r5, [r4, #60]	; 0x3c
    c28c:	e8bd8038 	pop	{r3, r4, r5, pc}

0000c290 <DWHCITransferStageDataGetState>:
    c290:	e92d4010 	push	{r4, lr}
    c294:	e2504000 	subs	r4, r0, #0
    c298:	1a000005 	bne	c2b4 <DWHCITransferStageDataGetState+0x24>
    c29c:	e3090ce4 	movw	r0, #40164	; 0x9ce4
    c2a0:	e3400001 	movt	r0, #1
    c2a4:	e30a12f4 	movw	r1, #41716	; 0xa2f4
    c2a8:	e3401001 	movt	r1, #1
    c2ac:	e3a020e4 	mov	r2, #228	; 0xe4
    c2b0:	eb002f21 	bl	17f3c <uspi_assertion_failed>
    c2b4:	e594003c 	ldr	r0, [r4, #60]	; 0x3c
    c2b8:	e8bd8010 	pop	{r4, pc}

0000c2bc <DWHCITransferStageDataSetSubState>:
    c2bc:	e92d4038 	push	{r3, r4, r5, lr}
    c2c0:	e1a05001 	mov	r5, r1
    c2c4:	e2504000 	subs	r4, r0, #0
    c2c8:	1a000005 	bne	c2e4 <DWHCITransferStageDataSetSubState+0x28>
    c2cc:	e3090ce4 	movw	r0, #40164	; 0x9ce4
    c2d0:	e3400001 	movt	r0, #1
    c2d4:	e30a12f4 	movw	r1, #41716	; 0xa2f4
    c2d8:	e3401001 	movt	r1, #1
    c2dc:	e3a020ea 	mov	r2, #234	; 0xea
    c2e0:	eb002f15 	bl	17f3c <uspi_assertion_failed>
    c2e4:	e5845040 	str	r5, [r4, #64]	; 0x40
    c2e8:	e8bd8038 	pop	{r3, r4, r5, pc}

0000c2ec <DWHCITransferStageDataGetSubState>:
    c2ec:	e92d4010 	push	{r4, lr}
    c2f0:	e2504000 	subs	r4, r0, #0
    c2f4:	1a000005 	bne	c310 <DWHCITransferStageDataGetSubState+0x24>
    c2f8:	e3090ce4 	movw	r0, #40164	; 0x9ce4
    c2fc:	e3400001 	movt	r0, #1
    c300:	e30a12f4 	movw	r1, #41716	; 0xa2f4
    c304:	e3401001 	movt	r1, #1
    c308:	e3a020f0 	mov	r2, #240	; 0xf0
    c30c:	eb002f0a 	bl	17f3c <uspi_assertion_failed>
    c310:	e5940040 	ldr	r0, [r4, #64]	; 0x40
    c314:	e8bd8010 	pop	{r4, pc}

0000c318 <DWHCITransferStageDataBeginSplitCycle>:
    c318:	e3a00001 	mov	r0, #1
    c31c:	e12fff1e 	bx	lr

0000c320 <DWHCITransferStageDataGetChannelNumber>:
    c320:	e92d4010 	push	{r4, lr}
    c324:	e2504000 	subs	r4, r0, #0
    c328:	1a000005 	bne	c344 <DWHCITransferStageDataGetChannelNumber+0x24>
    c32c:	e3090ce4 	movw	r0, #40164	; 0x9ce4
    c330:	e3400001 	movt	r0, #1
    c334:	e30a12f4 	movw	r1, #41716	; 0xa2f4
    c338:	e3401001 	movt	r1, #1
    c33c:	e3a020fb 	mov	r2, #251	; 0xfb
    c340:	eb002efd 	bl	17f3c <uspi_assertion_failed>
    c344:	e5940000 	ldr	r0, [r4]
    c348:	e8bd8010 	pop	{r4, pc}

0000c34c <DWHCITransferStageDataIsPeriodic>:
    c34c:	e92d4010 	push	{r4, lr}
    c350:	e2504000 	subs	r4, r0, #0
    c354:	1a000005 	bne	c370 <DWHCITransferStageDataIsPeriodic+0x24>
    c358:	e3090ce4 	movw	r0, #40164	; 0x9ce4
    c35c:	e3400001 	movt	r0, #1
    c360:	e30a12f4 	movw	r1, #41716	; 0xa2f4
    c364:	e3401001 	movt	r1, #1
    c368:	e3002101 	movw	r2, #257	; 0x101
    c36c:	eb002ef2 	bl	17f3c <uspi_assertion_failed>
    c370:	e594301c 	ldr	r3, [r4, #28]
    c374:	e3530000 	cmp	r3, #0
    c378:	1a000005 	bne	c394 <DWHCITransferStageDataIsPeriodic+0x48>
    c37c:	e30a038c 	movw	r0, #41868	; 0xa38c
    c380:	e3400001 	movt	r0, #1
    c384:	e30a12f4 	movw	r1, #41716	; 0xa2f4
    c388:	e3401001 	movt	r1, #1
    c38c:	e3002102 	movw	r2, #258	; 0x102
    c390:	eb002ee9 	bl	17f3c <uspi_assertion_failed>
    c394:	e594001c 	ldr	r0, [r4, #28]
    c398:	eb0006d1 	bl	dee4 <USBEndpointGetType>
    c39c:	e2400002 	sub	r0, r0, #2
    c3a0:	e3500001 	cmp	r0, #1
    c3a4:	83a00000 	movhi	r0, #0
    c3a8:	93a00001 	movls	r0, #1
    c3ac:	e8bd8010 	pop	{r4, pc}

0000c3b0 <DWHCITransferStageData>:
    c3b0:	e92d41f0 	push	{r4, r5, r6, r7, r8, lr}
    c3b4:	e1a08001 	mov	r8, r1
    c3b8:	e1a05002 	mov	r5, r2
    c3bc:	e1a07003 	mov	r7, r3
    c3c0:	e59d6018 	ldr	r6, [sp, #24]
    c3c4:	e2504000 	subs	r4, r0, #0
    c3c8:	1a000005 	bne	c3e4 <DWHCITransferStageData+0x34>
    c3cc:	e3090ce4 	movw	r0, #40164	; 0x9ce4
    c3d0:	e3400001 	movt	r0, #1
    c3d4:	e30a12f4 	movw	r1, #41716	; 0xa2f4
    c3d8:	e3401001 	movt	r1, #1
    c3dc:	e3a0201e 	mov	r2, #30
    c3e0:	eb002ed5 	bl	17f3c <uspi_assertion_failed>
    c3e4:	e5848000 	str	r8, [r4]
    c3e8:	e5845004 	str	r5, [r4, #4]
    c3ec:	e5847008 	str	r7, [r4, #8]
    c3f0:	e584600c 	str	r6, [r4, #12]
    c3f4:	e3a03000 	mov	r3, #0
    c3f8:	e5843014 	str	r3, [r4, #20]
    c3fc:	e5843038 	str	r3, [r4, #56]	; 0x38
    c400:	e584303c 	str	r3, [r4, #60]	; 0x3c
    c404:	e5843040 	str	r3, [r4, #64]	; 0x40
    c408:	e5843044 	str	r3, [r4, #68]	; 0x44
    c40c:	e5843048 	str	r3, [r4, #72]	; 0x48
    c410:	e5843050 	str	r3, [r4, #80]	; 0x50
    c414:	e1550003 	cmp	r5, r3
    c418:	1a000005 	bne	c434 <DWHCITransferStageData+0x84>
    c41c:	e30a03a4 	movw	r0, #41892	; 0xa3a4
    c420:	e3400001 	movt	r0, #1
    c424:	e30a12f4 	movw	r1, #41716	; 0xa2f4
    c428:	e3401001 	movt	r1, #1
    c42c:	e3a0202c 	mov	r2, #44	; 0x2c
    c430:	eb002ec1 	bl	17f3c <uspi_assertion_failed>
    c434:	e1a00005 	mov	r0, r5
    c438:	eb000790 	bl	e280 <USBRequestGetEndpoint>
    c43c:	e584001c 	str	r0, [r4, #28]
    c440:	e3500000 	cmp	r0, #0
    c444:	1a000005 	bne	c460 <DWHCITransferStageData+0xb0>
    c448:	e30a038c 	movw	r0, #41868	; 0xa38c
    c44c:	e3400001 	movt	r0, #1
    c450:	e30a12f4 	movw	r1, #41716	; 0xa2f4
    c454:	e3401001 	movt	r1, #1
    c458:	e3a0202f 	mov	r2, #47	; 0x2f
    c45c:	eb002eb6 	bl	17f3c <uspi_assertion_failed>
    c460:	e594001c 	ldr	r0, [r4, #28]
    c464:	eb00067f 	bl	de68 <USBEndpointGetDevice>
    c468:	e5840018 	str	r0, [r4, #24]
    c46c:	e3500000 	cmp	r0, #0
    c470:	1a000005 	bne	c48c <DWHCITransferStageData+0xdc>
    c474:	e30a03b8 	movw	r0, #41912	; 0xa3b8
    c478:	e3400001 	movt	r0, #1
    c47c:	e30a12f4 	movw	r1, #41716	; 0xa2f4
    c480:	e3401001 	movt	r1, #1
    c484:	e3a02031 	mov	r2, #49	; 0x31
    c488:	eb002eab 	bl	17f3c <uspi_assertion_failed>
    c48c:	e5940018 	ldr	r0, [r4, #24]
    c490:	eb0003cb 	bl	d3c4 <USBDeviceGetSpeed>
    c494:	e5840020 	str	r0, [r4, #32]
    c498:	e594001c 	ldr	r0, [r4, #28]
    c49c:	eb0006b2 	bl	df6c <USBEndpointGetMaxPacketSize>
    c4a0:	e5840024 	str	r0, [r4, #36]	; 0x24
    c4a4:	e5940018 	ldr	r0, [r4, #24]
    c4a8:	eb0003d0 	bl	d3f0 <USBDeviceGetHubAddress>
    c4ac:	e3500000 	cmp	r0, #0
    c4b0:	03a03000 	moveq	r3, #0
    c4b4:	0a000003 	beq	c4c8 <DWHCITransferStageData+0x118>
    c4b8:	e5943020 	ldr	r3, [r4, #32]
    c4bc:	e2533002 	subs	r3, r3, #2
    c4c0:	13a03001 	movne	r3, #1
    c4c4:	eaffffff 	b	c4c8 <DWHCITransferStageData+0x118>
    c4c8:	e5843010 	str	r3, [r4, #16]
    c4cc:	e3560000 	cmp	r6, #0
    c4d0:	1a000021 	bne	c55c <DWHCITransferStageData+0x1ac>
    c4d4:	e594001c 	ldr	r0, [r4, #28]
    c4d8:	e3a01000 	mov	r1, #0
    c4dc:	eb0006c1 	bl	dfe8 <USBEndpointGetNextPID>
    c4e0:	e3500000 	cmp	r0, #0
    c4e4:	1a000005 	bne	c500 <DWHCITransferStageData+0x150>
    c4e8:	e1a00005 	mov	r0, r5
    c4ec:	eb0007ae 	bl	e3ac <USBRequestGetSetupData>
    c4f0:	e584004c 	str	r0, [r4, #76]	; 0x4c
    c4f4:	e3a03008 	mov	r3, #8
    c4f8:	e5843028 	str	r3, [r4, #40]	; 0x28
    c4fc:	ea000005 	b	c518 <DWHCITransferStageData+0x168>
    c500:	e1a00005 	mov	r0, r5
    c504:	eb0007c6 	bl	e424 <USBRequestGetBuffer>
    c508:	e584004c 	str	r0, [r4, #76]	; 0x4c
    c50c:	e1a00005 	mov	r0, r5
    c510:	eb0007da 	bl	e480 <USBRequestGetBufLen>
    c514:	e5840028 	str	r0, [r4, #40]	; 0x28
    c518:	e5941028 	ldr	r1, [r4, #40]	; 0x28
    c51c:	e5942024 	ldr	r2, [r4, #36]	; 0x24
    c520:	e0813002 	add	r3, r1, r2
    c524:	e2433001 	sub	r3, r3, #1
    c528:	e733f213 	udiv	r3, r3, r2
    c52c:	e584302c 	str	r3, [r4, #44]	; 0x2c
    c530:	e5940010 	ldr	r0, [r4, #16]
    c534:	e3500000 	cmp	r0, #0
    c538:	05841030 	streq	r1, [r4, #48]	; 0x30
    c53c:	05843034 	streq	r3, [r4, #52]	; 0x34
    c540:	0a000021 	beq	c5cc <DWHCITransferStageData+0x21c>
    c544:	e1520001 	cmp	r2, r1
    c548:	21a02001 	movcs	r2, r1
    c54c:	e5842030 	str	r2, [r4, #48]	; 0x30
    c550:	e3a03001 	mov	r3, #1
    c554:	e5843034 	str	r3, [r4, #52]	; 0x34
    c558:	ea00001b 	b	c5cc <DWHCITransferStageData+0x21c>
    c55c:	e5943048 	ldr	r3, [r4, #72]	; 0x48
    c560:	e3530000 	cmp	r3, #0
    c564:	0a000005 	beq	c580 <DWHCITransferStageData+0x1d0>
    c568:	e30a03d0 	movw	r0, #41936	; 0xa3d0
    c56c:	e3400001 	movt	r0, #1
    c570:	e30a12f4 	movw	r1, #41716	; 0xa2f4
    c574:	e3401001 	movt	r1, #1
    c578:	e3a0205d 	mov	r2, #93	; 0x5d
    c57c:	eb002e6e 	bl	17f3c <uspi_assertion_failed>
    c580:	e3a00004 	mov	r0, #4
    c584:	eb0025b6 	bl	15c64 <malloc>
    c588:	e5840048 	str	r0, [r4, #72]	; 0x48
    c58c:	e3500000 	cmp	r0, #0
    c590:	1a000005 	bne	c5ac <DWHCITransferStageData+0x1fc>
    c594:	e30a03ec 	movw	r0, #41964	; 0xa3ec
    c598:	e3400001 	movt	r0, #1
    c59c:	e30a12f4 	movw	r1, #41716	; 0xa2f4
    c5a0:	e3401001 	movt	r1, #1
    c5a4:	e3a0205f 	mov	r2, #95	; 0x5f
    c5a8:	eb002e63 	bl	17f3c <uspi_assertion_failed>
    c5ac:	e5943048 	ldr	r3, [r4, #72]	; 0x48
    c5b0:	e584304c 	str	r3, [r4, #76]	; 0x4c
    c5b4:	e3a03000 	mov	r3, #0
    c5b8:	e5843028 	str	r3, [r4, #40]	; 0x28
    c5bc:	e5843030 	str	r3, [r4, #48]	; 0x30
    c5c0:	e3a03001 	mov	r3, #1
    c5c4:	e584302c 	str	r3, [r4, #44]	; 0x2c
    c5c8:	e5843034 	str	r3, [r4, #52]	; 0x34
    c5cc:	e594304c 	ldr	r3, [r4, #76]	; 0x4c
    c5d0:	e3530000 	cmp	r3, #0
    c5d4:	1a000005 	bne	c5f0 <DWHCITransferStageData+0x240>
    c5d8:	e30a0408 	movw	r0, #41992	; 0xa408
    c5dc:	e3400001 	movt	r0, #1
    c5e0:	e30a12f4 	movw	r1, #41716	; 0xa2f4
    c5e4:	e3401001 	movt	r1, #1
    c5e8:	e3a02068 	mov	r2, #104	; 0x68
    c5ec:	eb002e52 	bl	17f3c <uspi_assertion_failed>
    c5f0:	e594304c 	ldr	r3, [r4, #76]	; 0x4c
    c5f4:	e3130003 	tst	r3, #3
    c5f8:	0a000005 	beq	c614 <DWHCITransferStageData+0x264>
    c5fc:	e30a0428 	movw	r0, #42024	; 0xa428
    c600:	e3400001 	movt	r0, #1
    c604:	e30a12f4 	movw	r1, #41716	; 0xa2f4
    c608:	e3401001 	movt	r1, #1
    c60c:	e3a02069 	mov	r2, #105	; 0x69
    c610:	eb002e49 	bl	17f3c <uspi_assertion_failed>
    c614:	e5943010 	ldr	r3, [r4, #16]
    c618:	e3530000 	cmp	r3, #0
    c61c:	0a000016 	beq	c67c <DWHCITransferStageData+0x2cc>
    c620:	e1a00004 	mov	r0, r4
    c624:	ebffff48 	bl	c34c <DWHCITransferStageDataIsPeriodic>
    c628:	e3500000 	cmp	r0, #0
    c62c:	0a000004 	beq	c644 <DWHCITransferStageData+0x294>
    c630:	e3a00024 	mov	r0, #36	; 0x24
    c634:	eb00258a 	bl	15c64 <malloc>
    c638:	e5840050 	str	r0, [r4, #80]	; 0x50
    c63c:	eb001490 	bl	11884 <DWHCIFrameSchedulerPeriodic>
    c640:	ea000003 	b	c654 <DWHCITransferStageData+0x2a4>
    c644:	e3a00020 	mov	r0, #32
    c648:	eb002585 	bl	15c64 <malloc>
    c64c:	e5840050 	str	r0, [r4, #80]	; 0x50
    c650:	eb0013ac 	bl	11508 <DWHCIFrameSchedulerNonPeriodic>
    c654:	e5943050 	ldr	r3, [r4, #80]	; 0x50
    c658:	e3530000 	cmp	r3, #0
    c65c:	18bd81f0 	popne	{r4, r5, r6, r7, r8, pc}
    c660:	e30a0454 	movw	r0, #42068	; 0xa454
    c664:	e3400001 	movt	r0, #1
    c668:	e30a12f4 	movw	r1, #41716	; 0xa2f4
    c66c:	e3401001 	movt	r1, #1
    c670:	e3a02078 	mov	r2, #120	; 0x78
    c674:	eb002e30 	bl	17f3c <uspi_assertion_failed>
    c678:	e8bd81f0 	pop	{r4, r5, r6, r7, r8, pc}
    c67c:	e5940018 	ldr	r0, [r4, #24]
    c680:	eb00035a 	bl	d3f0 <USBDeviceGetHubAddress>
    c684:	e3500000 	cmp	r0, #0
    c688:	18bd81f0 	popne	{r4, r5, r6, r7, r8, pc}
    c68c:	e5943020 	ldr	r3, [r4, #32]
    c690:	e3530002 	cmp	r3, #2
    c694:	08bd81f0 	popeq	{r4, r5, r6, r7, r8, pc}
    c698:	e3a00020 	mov	r0, #32
    c69c:	eb002570 	bl	15c64 <malloc>
    c6a0:	e1a05000 	mov	r5, r0
    c6a4:	e5840050 	str	r0, [r4, #80]	; 0x50
    c6a8:	e1a00004 	mov	r0, r4
    c6ac:	ebffff26 	bl	c34c <DWHCITransferStageDataIsPeriodic>
    c6b0:	e1a01000 	mov	r1, r0
    c6b4:	e1a00005 	mov	r0, r5
    c6b8:	eb001974 	bl	12c90 <DWHCIFrameSchedulerNoSplit>
    c6bc:	e5943050 	ldr	r3, [r4, #80]	; 0x50
    c6c0:	e3530000 	cmp	r3, #0
    c6c4:	18bd81f0 	popne	{r4, r5, r6, r7, r8, pc}
    c6c8:	e30a0454 	movw	r0, #42068	; 0xa454
    c6cc:	e3400001 	movt	r0, #1
    c6d0:	e30a12f4 	movw	r1, #41716	; 0xa2f4
    c6d4:	e3401001 	movt	r1, #1
    c6d8:	e3a02081 	mov	r2, #129	; 0x81
    c6dc:	eb002e16 	bl	17f3c <uspi_assertion_failed>
    c6e0:	e8bd81f0 	pop	{r4, r5, r6, r7, r8, pc}

0000c6e4 <DWHCITransferStageDataGetDeviceAddress>:
    c6e4:	e92d4010 	push	{r4, lr}
    c6e8:	e2504000 	subs	r4, r0, #0
    c6ec:	1a000005 	bne	c708 <DWHCITransferStageDataGetDeviceAddress+0x24>
    c6f0:	e3090ce4 	movw	r0, #40164	; 0x9ce4
    c6f4:	e3400001 	movt	r0, #1
    c6f8:	e30a12f4 	movw	r1, #41716	; 0xa2f4
    c6fc:	e3401001 	movt	r1, #1
    c700:	e300210b 	movw	r2, #267	; 0x10b
    c704:	eb002e0c 	bl	17f3c <uspi_assertion_failed>
    c708:	e5943018 	ldr	r3, [r4, #24]
    c70c:	e3530000 	cmp	r3, #0
    c710:	1a000005 	bne	c72c <DWHCITransferStageDataGetDeviceAddress+0x48>
    c714:	e30a03b8 	movw	r0, #41912	; 0xa3b8
    c718:	e3400001 	movt	r0, #1
    c71c:	e30a12f4 	movw	r1, #41716	; 0xa2f4
    c720:	e3401001 	movt	r1, #1
    c724:	e3a02f43 	mov	r2, #268	; 0x10c
    c728:	eb002e03 	bl	17f3c <uspi_assertion_failed>
    c72c:	e5940018 	ldr	r0, [r4, #24]
    c730:	eb000318 	bl	d398 <USBDeviceGetAddress>
    c734:	e8bd8010 	pop	{r4, pc}

0000c738 <DWHCITransferStageDataGetEndpointType>:
    c738:	e92d4010 	push	{r4, lr}
    c73c:	e2504000 	subs	r4, r0, #0
    c740:	1a000005 	bne	c75c <DWHCITransferStageDataGetEndpointType+0x24>
    c744:	e3090ce4 	movw	r0, #40164	; 0x9ce4
    c748:	e3400001 	movt	r0, #1
    c74c:	e30a12f4 	movw	r1, #41716	; 0xa2f4
    c750:	e3401001 	movt	r1, #1
    c754:	e3002112 	movw	r2, #274	; 0x112
    c758:	eb002df7 	bl	17f3c <uspi_assertion_failed>
    c75c:	e594301c 	ldr	r3, [r4, #28]
    c760:	e3530000 	cmp	r3, #0
    c764:	1a000005 	bne	c780 <DWHCITransferStageDataGetEndpointType+0x48>
    c768:	e30a038c 	movw	r0, #41868	; 0xa38c
    c76c:	e3400001 	movt	r0, #1
    c770:	e30a12f4 	movw	r1, #41716	; 0xa2f4
    c774:	e3401001 	movt	r1, #1
    c778:	e3002113 	movw	r2, #275	; 0x113
    c77c:	eb002dee 	bl	17f3c <uspi_assertion_failed>
    c780:	e594001c 	ldr	r0, [r4, #28]
    c784:	eb0005d6 	bl	dee4 <USBEndpointGetType>
    c788:	e3500001 	cmp	r0, #1
    c78c:	0a000003 	beq	c7a0 <DWHCITransferStageDataGetEndpointType+0x68>
    c790:	3a00000e 	bcc	c7d0 <DWHCITransferStageDataGetEndpointType+0x98>
    c794:	e3500002 	cmp	r0, #2
    c798:	0a000002 	beq	c7a8 <DWHCITransferStageDataGetEndpointType+0x70>
    c79c:	ea000003 	b	c7b0 <DWHCITransferStageDataGetEndpointType+0x78>
    c7a0:	e3a00002 	mov	r0, #2
    c7a4:	e8bd8010 	pop	{r4, pc}
    c7a8:	e3a00003 	mov	r0, #3
    c7ac:	e8bd8010 	pop	{r4, pc}
    c7b0:	e30b0e18 	movw	r0, #48664	; 0xbe18
    c7b4:	e3400001 	movt	r0, #1
    c7b8:	e30a12f4 	movw	r1, #41716	; 0xa2f4
    c7bc:	e3401001 	movt	r1, #1
    c7c0:	e3002126 	movw	r2, #294	; 0x126
    c7c4:	eb002ddc 	bl	17f3c <uspi_assertion_failed>
    c7c8:	e3a00000 	mov	r0, #0
    c7cc:	e8bd8010 	pop	{r4, pc}
    c7d0:	e3a00000 	mov	r0, #0
    c7d4:	e8bd8010 	pop	{r4, pc}

0000c7d8 <DWHCITransferStageDataGetEndpointNumber>:
    c7d8:	e92d4010 	push	{r4, lr}
    c7dc:	e2504000 	subs	r4, r0, #0
    c7e0:	1a000005 	bne	c7fc <DWHCITransferStageDataGetEndpointNumber+0x24>
    c7e4:	e3090ce4 	movw	r0, #40164	; 0x9ce4
    c7e8:	e3400001 	movt	r0, #1
    c7ec:	e30a12f4 	movw	r1, #41716	; 0xa2f4
    c7f0:	e3401001 	movt	r1, #1
    c7f4:	e300212f 	movw	r2, #303	; 0x12f
    c7f8:	eb002dcf 	bl	17f3c <uspi_assertion_failed>
    c7fc:	e594301c 	ldr	r3, [r4, #28]
    c800:	e3530000 	cmp	r3, #0
    c804:	1a000005 	bne	c820 <DWHCITransferStageDataGetEndpointNumber+0x48>
    c808:	e30a038c 	movw	r0, #41868	; 0xa38c
    c80c:	e3400001 	movt	r0, #1
    c810:	e30a12f4 	movw	r1, #41716	; 0xa2f4
    c814:	e3401001 	movt	r1, #1
    c818:	e3a02e13 	mov	r2, #304	; 0x130
    c81c:	eb002dc6 	bl	17f3c <uspi_assertion_failed>
    c820:	e594001c 	ldr	r0, [r4, #28]
    c824:	eb0005a3 	bl	deb8 <USBEndpointGetNumber>
    c828:	e8bd8010 	pop	{r4, pc}

0000c82c <DWHCITransferStageDataGetMaxPacketSize>:
    c82c:	e92d4010 	push	{r4, lr}
    c830:	e2504000 	subs	r4, r0, #0
    c834:	1a000005 	bne	c850 <DWHCITransferStageDataGetMaxPacketSize+0x24>
    c838:	e3090ce4 	movw	r0, #40164	; 0x9ce4
    c83c:	e3400001 	movt	r0, #1
    c840:	e30a12f4 	movw	r1, #41716	; 0xa2f4
    c844:	e3401001 	movt	r1, #1
    c848:	e3002136 	movw	r2, #310	; 0x136
    c84c:	eb002dba 	bl	17f3c <uspi_assertion_failed>
    c850:	e5940024 	ldr	r0, [r4, #36]	; 0x24
    c854:	e8bd8010 	pop	{r4, pc}

0000c858 <DWHCITransferStageDataGetSpeed>:
    c858:	e92d4010 	push	{r4, lr}
    c85c:	e2504000 	subs	r4, r0, #0
    c860:	1a000005 	bne	c87c <DWHCITransferStageDataGetSpeed+0x24>
    c864:	e3090ce4 	movw	r0, #40164	; 0x9ce4
    c868:	e3400001 	movt	r0, #1
    c86c:	e30a12f4 	movw	r1, #41716	; 0xa2f4
    c870:	e3401001 	movt	r1, #1
    c874:	e3a02f4f 	mov	r2, #316	; 0x13c
    c878:	eb002daf 	bl	17f3c <uspi_assertion_failed>
    c87c:	e5940020 	ldr	r0, [r4, #32]
    c880:	e8bd8010 	pop	{r4, pc}

0000c884 <DWHCITransferStageDataGetPID>:
    c884:	e92d4010 	push	{r4, lr}
    c888:	e2504000 	subs	r4, r0, #0
    c88c:	1a000005 	bne	c8a8 <DWHCITransferStageDataGetPID+0x24>
    c890:	e3090ce4 	movw	r0, #40164	; 0x9ce4
    c894:	e3400001 	movt	r0, #1
    c898:	e30a12f4 	movw	r1, #41716	; 0xa2f4
    c89c:	e3401001 	movt	r1, #1
    c8a0:	e3002142 	movw	r2, #322	; 0x142
    c8a4:	eb002da4 	bl	17f3c <uspi_assertion_failed>
    c8a8:	e594301c 	ldr	r3, [r4, #28]
    c8ac:	e3530000 	cmp	r3, #0
    c8b0:	1a000005 	bne	c8cc <DWHCITransferStageDataGetPID+0x48>
    c8b4:	e30a038c 	movw	r0, #41868	; 0xa38c
    c8b8:	e3400001 	movt	r0, #1
    c8bc:	e30a12f4 	movw	r1, #41716	; 0xa2f4
    c8c0:	e3401001 	movt	r1, #1
    c8c4:	e3002143 	movw	r2, #323	; 0x143
    c8c8:	eb002d9b 	bl	17f3c <uspi_assertion_failed>
    c8cc:	e594001c 	ldr	r0, [r4, #28]
    c8d0:	e594100c 	ldr	r1, [r4, #12]
    c8d4:	eb0005c3 	bl	dfe8 <USBEndpointGetNextPID>
    c8d8:	e3500001 	cmp	r0, #1
    c8dc:	0a000003 	beq	c8f0 <DWHCITransferStageDataGetPID+0x6c>
    c8e0:	3a00000e 	bcc	c920 <DWHCITransferStageDataGetPID+0x9c>
    c8e4:	e3500002 	cmp	r0, #2
    c8e8:	0a000002 	beq	c8f8 <DWHCITransferStageDataGetPID+0x74>
    c8ec:	ea000003 	b	c900 <DWHCITransferStageDataGetPID+0x7c>
    c8f0:	e3a00000 	mov	r0, #0
    c8f4:	e8bd8010 	pop	{r4, pc}
    c8f8:	e3a00002 	mov	r0, #2
    c8fc:	e8bd8010 	pop	{r4, pc}
    c900:	e30b0e18 	movw	r0, #48664	; 0xbe18
    c904:	e3400001 	movt	r0, #1
    c908:	e30a12f4 	movw	r1, #41716	; 0xa2f4
    c90c:	e3401001 	movt	r1, #1
    c910:	e3002156 	movw	r2, #342	; 0x156
    c914:	eb002d88 	bl	17f3c <uspi_assertion_failed>
    c918:	e3a00000 	mov	r0, #0
    c91c:	e8bd8010 	pop	{r4, pc}
    c920:	e3a00003 	mov	r0, #3
    c924:	e8bd8010 	pop	{r4, pc}

0000c928 <DWHCITransferStageDataIsDirectionIn>:
    c928:	e92d4010 	push	{r4, lr}
    c92c:	e2504000 	subs	r4, r0, #0
    c930:	1a000005 	bne	c94c <DWHCITransferStageDataIsDirectionIn+0x24>
    c934:	e3090ce4 	movw	r0, #40164	; 0x9ce4
    c938:	e3400001 	movt	r0, #1
    c93c:	e30a12f4 	movw	r1, #41716	; 0xa2f4
    c940:	e3401001 	movt	r1, #1
    c944:	e300215f 	movw	r2, #351	; 0x15f
    c948:	eb002d7b 	bl	17f3c <uspi_assertion_failed>
    c94c:	e5940008 	ldr	r0, [r4, #8]
    c950:	e8bd8010 	pop	{r4, pc}

0000c954 <DWHCITransferStageDataIsStatusStage>:
    c954:	e92d4010 	push	{r4, lr}
    c958:	e2504000 	subs	r4, r0, #0
    c95c:	1a000005 	bne	c978 <DWHCITransferStageDataIsStatusStage+0x24>
    c960:	e3090ce4 	movw	r0, #40164	; 0x9ce4
    c964:	e3400001 	movt	r0, #1
    c968:	e30a12f4 	movw	r1, #41716	; 0xa2f4
    c96c:	e3401001 	movt	r1, #1
    c970:	e3002165 	movw	r2, #357	; 0x165
    c974:	eb002d70 	bl	17f3c <uspi_assertion_failed>
    c978:	e594000c 	ldr	r0, [r4, #12]
    c97c:	e8bd8010 	pop	{r4, pc}

0000c980 <DWHCITransferStageDataGetDMAAddress>:
    c980:	e92d4010 	push	{r4, lr}
    c984:	e2504000 	subs	r4, r0, #0
    c988:	1a000005 	bne	c9a4 <DWHCITransferStageDataGetDMAAddress+0x24>
    c98c:	e3090ce4 	movw	r0, #40164	; 0x9ce4
    c990:	e3400001 	movt	r0, #1
    c994:	e30a12f4 	movw	r1, #41716	; 0xa2f4
    c998:	e3401001 	movt	r1, #1
    c99c:	e300216b 	movw	r2, #363	; 0x16b
    c9a0:	eb002d65 	bl	17f3c <uspi_assertion_failed>
    c9a4:	e594304c 	ldr	r3, [r4, #76]	; 0x4c
    c9a8:	e3530000 	cmp	r3, #0
    c9ac:	1a000005 	bne	c9c8 <DWHCITransferStageDataGetDMAAddress+0x48>
    c9b0:	e30a0408 	movw	r0, #41992	; 0xa408
    c9b4:	e3400001 	movt	r0, #1
    c9b8:	e30a12f4 	movw	r1, #41716	; 0xa2f4
    c9bc:	e3401001 	movt	r1, #1
    c9c0:	e3a02f5b 	mov	r2, #364	; 0x16c
    c9c4:	eb002d5c 	bl	17f3c <uspi_assertion_failed>
    c9c8:	e594004c 	ldr	r0, [r4, #76]	; 0x4c
    c9cc:	e8bd8010 	pop	{r4, pc}

0000c9d0 <DWHCITransferStageDataGetBytesToTransfer>:
    c9d0:	e92d4010 	push	{r4, lr}
    c9d4:	e2504000 	subs	r4, r0, #0
    c9d8:	1a000005 	bne	c9f4 <DWHCITransferStageDataGetBytesToTransfer+0x24>
    c9dc:	e3090ce4 	movw	r0, #40164	; 0x9ce4
    c9e0:	e3400001 	movt	r0, #1
    c9e4:	e30a12f4 	movw	r1, #41716	; 0xa2f4
    c9e8:	e3401001 	movt	r1, #1
    c9ec:	e3002173 	movw	r2, #371	; 0x173
    c9f0:	eb002d51 	bl	17f3c <uspi_assertion_failed>
    c9f4:	e5940030 	ldr	r0, [r4, #48]	; 0x30
    c9f8:	e8bd8010 	pop	{r4, pc}

0000c9fc <DWHCITransferStageDataGetPacketsToTransfer>:
    c9fc:	e92d4010 	push	{r4, lr}
    ca00:	e2504000 	subs	r4, r0, #0
    ca04:	1a000005 	bne	ca20 <DWHCITransferStageDataGetPacketsToTransfer+0x24>
    ca08:	e3090ce4 	movw	r0, #40164	; 0x9ce4
    ca0c:	e3400001 	movt	r0, #1
    ca10:	e30a12f4 	movw	r1, #41716	; 0xa2f4
    ca14:	e3401001 	movt	r1, #1
    ca18:	e3002179 	movw	r2, #377	; 0x179
    ca1c:	eb002d46 	bl	17f3c <uspi_assertion_failed>
    ca20:	e5940034 	ldr	r0, [r4, #52]	; 0x34
    ca24:	e8bd8010 	pop	{r4, pc}

0000ca28 <DWHCITransferStageDataIsSplit>:
    ca28:	e92d4010 	push	{r4, lr}
    ca2c:	e2504000 	subs	r4, r0, #0
    ca30:	1a000005 	bne	ca4c <DWHCITransferStageDataIsSplit+0x24>
    ca34:	e3090ce4 	movw	r0, #40164	; 0x9ce4
    ca38:	e3400001 	movt	r0, #1
    ca3c:	e30a12f4 	movw	r1, #41716	; 0xa2f4
    ca40:	e3401001 	movt	r1, #1
    ca44:	e300217f 	movw	r2, #383	; 0x17f
    ca48:	eb002d3b 	bl	17f3c <uspi_assertion_failed>
    ca4c:	e5940010 	ldr	r0, [r4, #16]
    ca50:	e8bd8010 	pop	{r4, pc}

0000ca54 <DWHCITransferStageDataIsSplitComplete>:
    ca54:	e92d4010 	push	{r4, lr}
    ca58:	e2504000 	subs	r4, r0, #0
    ca5c:	1a000005 	bne	ca78 <DWHCITransferStageDataIsSplitComplete+0x24>
    ca60:	e3090ce4 	movw	r0, #40164	; 0x9ce4
    ca64:	e3400001 	movt	r0, #1
    ca68:	e30a12f4 	movw	r1, #41716	; 0xa2f4
    ca6c:	e3401001 	movt	r1, #1
    ca70:	e3002185 	movw	r2, #389	; 0x185
    ca74:	eb002d30 	bl	17f3c <uspi_assertion_failed>
    ca78:	e5943010 	ldr	r3, [r4, #16]
    ca7c:	e3530000 	cmp	r3, #0
    ca80:	1a000005 	bne	ca9c <DWHCITransferStageDataIsSplitComplete+0x48>
    ca84:	e30a0370 	movw	r0, #41840	; 0xa370
    ca88:	e3400001 	movt	r0, #1
    ca8c:	e30a12f4 	movw	r1, #41716	; 0xa2f4
    ca90:	e3401001 	movt	r1, #1
    ca94:	e3002186 	movw	r2, #390	; 0x186
    ca98:	eb002d27 	bl	17f3c <uspi_assertion_failed>
    ca9c:	e5940014 	ldr	r0, [r4, #20]
    caa0:	e8bd8010 	pop	{r4, pc}

0000caa4 <DWHCITransferStageDataGetHubAddress>:
    caa4:	e92d4010 	push	{r4, lr}
    caa8:	e2504000 	subs	r4, r0, #0
    caac:	1a000005 	bne	cac8 <DWHCITransferStageDataGetHubAddress+0x24>
    cab0:	e3090ce4 	movw	r0, #40164	; 0x9ce4
    cab4:	e3400001 	movt	r0, #1
    cab8:	e30a12f4 	movw	r1, #41716	; 0xa2f4
    cabc:	e3401001 	movt	r1, #1
    cac0:	e300218d 	movw	r2, #397	; 0x18d
    cac4:	eb002d1c 	bl	17f3c <uspi_assertion_failed>
    cac8:	e5943010 	ldr	r3, [r4, #16]
    cacc:	e3530000 	cmp	r3, #0
    cad0:	1a000005 	bne	caec <DWHCITransferStageDataGetHubAddress+0x48>
    cad4:	e30a0370 	movw	r0, #41840	; 0xa370
    cad8:	e3400001 	movt	r0, #1
    cadc:	e30a12f4 	movw	r1, #41716	; 0xa2f4
    cae0:	e3401001 	movt	r1, #1
    cae4:	e300218e 	movw	r2, #398	; 0x18e
    cae8:	eb002d13 	bl	17f3c <uspi_assertion_failed>
    caec:	e5943018 	ldr	r3, [r4, #24]
    caf0:	e3530000 	cmp	r3, #0
    caf4:	1a000005 	bne	cb10 <DWHCITransferStageDataGetHubAddress+0x6c>
    caf8:	e30a03b8 	movw	r0, #41912	; 0xa3b8
    cafc:	e3400001 	movt	r0, #1
    cb00:	e30a12f4 	movw	r1, #41716	; 0xa2f4
    cb04:	e3401001 	movt	r1, #1
    cb08:	e3a02e19 	mov	r2, #400	; 0x190
    cb0c:	eb002d0a 	bl	17f3c <uspi_assertion_failed>
    cb10:	e5940018 	ldr	r0, [r4, #24]
    cb14:	eb000235 	bl	d3f0 <USBDeviceGetHubAddress>
    cb18:	e8bd8010 	pop	{r4, pc}

0000cb1c <DWHCITransferStageDataGetHubPortAddress>:
    cb1c:	e92d4010 	push	{r4, lr}
    cb20:	e2504000 	subs	r4, r0, #0
    cb24:	1a000005 	bne	cb40 <DWHCITransferStageDataGetHubPortAddress+0x24>
    cb28:	e3090ce4 	movw	r0, #40164	; 0x9ce4
    cb2c:	e3400001 	movt	r0, #1
    cb30:	e30a12f4 	movw	r1, #41716	; 0xa2f4
    cb34:	e3401001 	movt	r1, #1
    cb38:	e3002196 	movw	r2, #406	; 0x196
    cb3c:	eb002cfe 	bl	17f3c <uspi_assertion_failed>
    cb40:	e5943010 	ldr	r3, [r4, #16]
    cb44:	e3530000 	cmp	r3, #0
    cb48:	1a000005 	bne	cb64 <DWHCITransferStageDataGetHubPortAddress+0x48>
    cb4c:	e30a0370 	movw	r0, #41840	; 0xa370
    cb50:	e3400001 	movt	r0, #1
    cb54:	e30a12f4 	movw	r1, #41716	; 0xa2f4
    cb58:	e3401001 	movt	r1, #1
    cb5c:	e3002197 	movw	r2, #407	; 0x197
    cb60:	eb002cf5 	bl	17f3c <uspi_assertion_failed>
    cb64:	e5943018 	ldr	r3, [r4, #24]
    cb68:	e3530000 	cmp	r3, #0
    cb6c:	1a000005 	bne	cb88 <DWHCITransferStageDataGetHubPortAddress+0x6c>
    cb70:	e30a03b8 	movw	r0, #41912	; 0xa3b8
    cb74:	e3400001 	movt	r0, #1
    cb78:	e30a12f4 	movw	r1, #41716	; 0xa2f4
    cb7c:	e3401001 	movt	r1, #1
    cb80:	e3002199 	movw	r2, #409	; 0x199
    cb84:	eb002cec 	bl	17f3c <uspi_assertion_failed>
    cb88:	e5940018 	ldr	r0, [r4, #24]
    cb8c:	eb000222 	bl	d41c <USBDeviceGetHubPortNumber>
    cb90:	e8bd8010 	pop	{r4, pc}

0000cb94 <DWHCITransferStageDataGetSplitPosition>:
    cb94:	e92d4010 	push	{r4, lr}
    cb98:	e2504000 	subs	r4, r0, #0
    cb9c:	1a000005 	bne	cbb8 <DWHCITransferStageDataGetSplitPosition+0x24>
    cba0:	e3090ce4 	movw	r0, #40164	; 0x9ce4
    cba4:	e3400001 	movt	r0, #1
    cba8:	e30a12f4 	movw	r1, #41716	; 0xa2f4
    cbac:	e3401001 	movt	r1, #1
    cbb0:	e300219f 	movw	r2, #415	; 0x19f
    cbb4:	eb002ce0 	bl	17f3c <uspi_assertion_failed>
    cbb8:	e5943028 	ldr	r3, [r4, #40]	; 0x28
    cbbc:	e35300bc 	cmp	r3, #188	; 0xbc
    cbc0:	9a000005 	bls	cbdc <DWHCITransferStageDataGetSplitPosition+0x48>
    cbc4:	e30a0474 	movw	r0, #42100	; 0xa474
    cbc8:	e3400001 	movt	r0, #1
    cbcc:	e30a12f4 	movw	r1, #41716	; 0xa2f4
    cbd0:	e3401001 	movt	r1, #1
    cbd4:	e3a02e1a 	mov	r2, #416	; 0x1a0
    cbd8:	eb002cd7 	bl	17f3c <uspi_assertion_failed>
    cbdc:	e3a00003 	mov	r0, #3
    cbe0:	e8bd8010 	pop	{r4, pc}

0000cbe4 <DWHCITransferStageDataGetStatusMask>:
    cbe4:	e92d4010 	push	{r4, lr}
    cbe8:	e2504000 	subs	r4, r0, #0
    cbec:	1a000005 	bne	cc08 <DWHCITransferStageDataGetStatusMask+0x24>
    cbf0:	e3090ce4 	movw	r0, #40164	; 0x9ce4
    cbf4:	e3400001 	movt	r0, #1
    cbf8:	e30a12f4 	movw	r1, #41716	; 0xa2f4
    cbfc:	e3401001 	movt	r1, #1
    cc00:	e30021a6 	movw	r2, #422	; 0x1a6
    cc04:	eb002ccc 	bl	17f3c <uspi_assertion_failed>
    cc08:	e5943010 	ldr	r3, [r4, #16]
    cc0c:	e3530000 	cmp	r3, #0
    cc10:	1a000007 	bne	cc34 <DWHCITransferStageDataGetStatusMask+0x50>
    cc14:	e1a00004 	mov	r0, r4
    cc18:	ebfffdcb 	bl	c34c <DWHCITransferStageDataIsPeriodic>
    cc1c:	e30027ff 	movw	r2, #2047	; 0x7ff
    cc20:	e300378f 	movw	r3, #1935	; 0x78f
    cc24:	e3500000 	cmp	r0, #0
    cc28:	01a00003 	moveq	r0, r3
    cc2c:	11a00002 	movne	r0, r2
    cc30:	e8bd8010 	pop	{r4, pc}
    cc34:	e30007ff 	movw	r0, #2047	; 0x7ff
    cc38:	e8bd8010 	pop	{r4, pc}

0000cc3c <DWHCITransferStageDataGetTransactionStatus>:
    cc3c:	e92d4010 	push	{r4, lr}
    cc40:	e2504000 	subs	r4, r0, #0
    cc44:	1a000005 	bne	cc60 <DWHCITransferStageDataGetTransactionStatus+0x24>
    cc48:	e3090ce4 	movw	r0, #40164	; 0x9ce4
    cc4c:	e3400001 	movt	r0, #1
    cc50:	e30a12f4 	movw	r1, #41716	; 0xa2f4
    cc54:	e3401001 	movt	r1, #1
    cc58:	e3a02f6e 	mov	r2, #440	; 0x1b8
    cc5c:	eb002cb6 	bl	17f3c <uspi_assertion_failed>
    cc60:	e5943044 	ldr	r3, [r4, #68]	; 0x44
    cc64:	e3530000 	cmp	r3, #0
    cc68:	1a000005 	bne	cc84 <DWHCITransferStageDataGetTransactionStatus+0x48>
    cc6c:	e30a0494 	movw	r0, #42132	; 0xa494
    cc70:	e3400001 	movt	r0, #1
    cc74:	e30a12f4 	movw	r1, #41716	; 0xa2f4
    cc78:	e3401001 	movt	r1, #1
    cc7c:	e30021b9 	movw	r2, #441	; 0x1b9
    cc80:	eb002cad 	bl	17f3c <uspi_assertion_failed>
    cc84:	e5940044 	ldr	r0, [r4, #68]	; 0x44
    cc88:	e8bd8010 	pop	{r4, pc}

0000cc8c <DWHCITransferStageDataIsStageComplete>:
    cc8c:	e92d4010 	push	{r4, lr}
    cc90:	e2504000 	subs	r4, r0, #0
    cc94:	1a000005 	bne	ccb0 <DWHCITransferStageDataIsStageComplete+0x24>
    cc98:	e3090ce4 	movw	r0, #40164	; 0x9ce4
    cc9c:	e3400001 	movt	r0, #1
    cca0:	e30a12f4 	movw	r1, #41716	; 0xa2f4
    cca4:	e3401001 	movt	r1, #1
    cca8:	e30021bf 	movw	r2, #447	; 0x1bf
    ccac:	eb002ca2 	bl	17f3c <uspi_assertion_failed>
    ccb0:	e594002c 	ldr	r0, [r4, #44]	; 0x2c
    ccb4:	e16f0f10 	clz	r0, r0
    ccb8:	e1a002a0 	lsr	r0, r0, #5
    ccbc:	e8bd8010 	pop	{r4, pc}

0000ccc0 <DWHCITransferStageDataGetResultLen>:
    ccc0:	e92d4010 	push	{r4, lr}
    ccc4:	e2504000 	subs	r4, r0, #0
    ccc8:	1a000005 	bne	cce4 <DWHCITransferStageDataGetResultLen+0x24>
    cccc:	e3090ce4 	movw	r0, #40164	; 0x9ce4
    ccd0:	e3400001 	movt	r0, #1
    ccd4:	e30a12f4 	movw	r1, #41716	; 0xa2f4
    ccd8:	e3401001 	movt	r1, #1
    ccdc:	e30021c5 	movw	r2, #453	; 0x1c5
    cce0:	eb002c95 	bl	17f3c <uspi_assertion_failed>
    cce4:	e5940028 	ldr	r0, [r4, #40]	; 0x28
    cce8:	e5943038 	ldr	r3, [r4, #56]	; 0x38
    ccec:	e1500003 	cmp	r0, r3
    ccf0:	21a00003 	movcs	r0, r3
    ccf4:	e8bd8010 	pop	{r4, pc}

0000ccf8 <DWHCITransferStageDataGetURB>:
    ccf8:	e92d4010 	push	{r4, lr}
    ccfc:	e2504000 	subs	r4, r0, #0
    cd00:	1a000005 	bne	cd1c <DWHCITransferStageDataGetURB+0x24>
    cd04:	e3090ce4 	movw	r0, #40164	; 0x9ce4
    cd08:	e3400001 	movt	r0, #1
    cd0c:	e30a12f4 	movw	r1, #41716	; 0xa2f4
    cd10:	e3401001 	movt	r1, #1
    cd14:	e3a02e1d 	mov	r2, #464	; 0x1d0
    cd18:	eb002c87 	bl	17f3c <uspi_assertion_failed>
    cd1c:	e5943004 	ldr	r3, [r4, #4]
    cd20:	e3530000 	cmp	r3, #0
    cd24:	1a000005 	bne	cd40 <DWHCITransferStageDataGetURB+0x48>
    cd28:	e30a03a4 	movw	r0, #41892	; 0xa3a4
    cd2c:	e3400001 	movt	r0, #1
    cd30:	e30a12f4 	movw	r1, #41716	; 0xa2f4
    cd34:	e3401001 	movt	r1, #1
    cd38:	e30021d1 	movw	r2, #465	; 0x1d1
    cd3c:	eb002c7e 	bl	17f3c <uspi_assertion_failed>
    cd40:	e5940004 	ldr	r0, [r4, #4]
    cd44:	e8bd8010 	pop	{r4, pc}

0000cd48 <DWHCITransferStageDataGetFrameScheduler>:
    cd48:	e92d4010 	push	{r4, lr}
    cd4c:	e2504000 	subs	r4, r0, #0
    cd50:	1a000005 	bne	cd6c <DWHCITransferStageDataGetFrameScheduler+0x24>
    cd54:	e3090ce4 	movw	r0, #40164	; 0x9ce4
    cd58:	e3400001 	movt	r0, #1
    cd5c:	e30a12f4 	movw	r1, #41716	; 0xa2f4
    cd60:	e3401001 	movt	r1, #1
    cd64:	e30021d7 	movw	r2, #471	; 0x1d7
    cd68:	eb002c73 	bl	17f3c <uspi_assertion_failed>
    cd6c:	e5940050 	ldr	r0, [r4, #80]	; 0x50
    cd70:	e8bd8010 	pop	{r4, pc}

0000cd74 <USBDeviceConfigure>:
    cd74:	e92d4038 	push	{r3, r4, r5, lr}
    cd78:	e2504000 	subs	r4, r0, #0
    cd7c:	1a000005 	bne	cd98 <USBDeviceConfigure+0x24>
    cd80:	e3090ce4 	movw	r0, #40164	; 0x9ce4
    cd84:	e3400001 	movt	r0, #1
    cd88:	e30a14c0 	movw	r1, #42176	; 0xa4c0
    cd8c:	e3401001 	movt	r1, #1
    cd90:	e3002143 	movw	r2, #323	; 0x143
    cd94:	eb002c68 	bl	17f3c <uspi_assertion_failed>
    cd98:	e5943004 	ldr	r3, [r4, #4]
    cd9c:	e3530000 	cmp	r3, #0
    cda0:	1a000005 	bne	cdbc <USBDeviceConfigure+0x48>
    cda4:	e30a04cc 	movw	r0, #42188	; 0xa4cc
    cda8:	e3400001 	movt	r0, #1
    cdac:	e30a14c0 	movw	r1, #42176	; 0xa4c0
    cdb0:	e3401001 	movt	r1, #1
    cdb4:	e3002145 	movw	r2, #325	; 0x145
    cdb8:	eb002c5f 	bl	17f3c <uspi_assertion_failed>
    cdbc:	e5943010 	ldr	r3, [r4, #16]
    cdc0:	e3530000 	cmp	r3, #0
    cdc4:	1a000005 	bne	cde0 <USBDeviceConfigure+0x6c>
    cdc8:	e30a04e0 	movw	r0, #42208	; 0xa4e0
    cdcc:	e3400001 	movt	r0, #1
    cdd0:	e30a14c0 	movw	r1, #42176	; 0xa4c0
    cdd4:	e3401001 	movt	r1, #1
    cdd8:	e3002146 	movw	r2, #326	; 0x146
    cddc:	eb002c56 	bl	17f3c <uspi_assertion_failed>
    cde0:	e594301c 	ldr	r3, [r4, #28]
    cde4:	e3530000 	cmp	r3, #0
    cde8:	03a05000 	moveq	r5, #0
    cdec:	0a00000f 	beq	ce30 <USBDeviceConfigure+0xbc>
    cdf0:	e5940004 	ldr	r0, [r4, #4]
    cdf4:	e5941010 	ldr	r1, [r4, #16]
    cdf8:	e5d32005 	ldrb	r2, [r3, #5]
    cdfc:	ebfff5c8 	bl	a524 <DWHCIDeviceSetConfiguration>
    ce00:	e2505000 	subs	r5, r0, #0
    ce04:	13a05001 	movne	r5, #1
    ce08:	1a000008 	bne	ce30 <USBDeviceConfigure+0xbc>
    ce0c:	e594301c 	ldr	r3, [r4, #28]
    ce10:	e30a04b8 	movw	r0, #42168	; 0xa4b8
    ce14:	e3400001 	movt	r0, #1
    ce18:	e3a01001 	mov	r1, #1
    ce1c:	e30a24fc 	movw	r2, #42236	; 0xa4fc
    ce20:	e3402001 	movt	r2, #1
    ce24:	e5d33005 	ldrb	r3, [r3, #5]
    ce28:	eb002c31 	bl	17ef4 <LogWrite>
    ce2c:	eaffffff 	b	ce30 <USBDeviceConfigure+0xbc>
    ce30:	e1a00005 	mov	r0, r5
    ce34:	e8bd8038 	pop	{r3, r4, r5, pc}

0000ce38 <USBDevice>:
    ce38:	e92d41f0 	push	{r4, r5, r6, r7, r8, lr}
    ce3c:	e1a06001 	mov	r6, r1
    ce40:	e1a08002 	mov	r8, r2
    ce44:	e1a07003 	mov	r7, r3
    ce48:	e5dd5018 	ldrb	r5, [sp, #24]
    ce4c:	e2504000 	subs	r4, r0, #0
    ce50:	1a000005 	bne	ce6c <USBDevice+0x34>
    ce54:	e3090ce4 	movw	r0, #40164	; 0x9ce4
    ce58:	e3400001 	movt	r0, #1
    ce5c:	e30a14c0 	movw	r1, #42176	; 0xa4c0
    ce60:	e3401001 	movt	r1, #1
    ce64:	e3a0202c 	mov	r2, #44	; 0x2c
    ce68:	eb002c33 	bl	17f3c <uspi_assertion_failed>
    ce6c:	e30c0d74 	movw	r0, #52596	; 0xcd74
    ce70:	e3400000 	movt	r0, #0
    ce74:	e5840000 	str	r0, [r4]
    ce78:	e5846004 	str	r6, [r4, #4]
    ce7c:	e3a00000 	mov	r0, #0
    ce80:	e5c40008 	strb	r0, [r4, #8]
    ce84:	e584800c 	str	r8, [r4, #12]
    ce88:	e5840010 	str	r0, [r4, #16]
    ce8c:	e5c47014 	strb	r7, [r4, #20]
    ce90:	e5c45015 	strb	r5, [r4, #21]
    ce94:	e5840018 	str	r0, [r4, #24]
    ce98:	e584001c 	str	r0, [r4, #28]
    ce9c:	e5840020 	str	r0, [r4, #32]
    cea0:	e1560000 	cmp	r6, r0
    cea4:	1a000005 	bne	cec0 <USBDevice+0x88>
    cea8:	e30a04cc 	movw	r0, #42188	; 0xa4cc
    ceac:	e3400001 	movt	r0, #1
    ceb0:	e30a14c0 	movw	r1, #42176	; 0xa4c0
    ceb4:	e3401001 	movt	r1, #1
    ceb8:	e3a0203a 	mov	r2, #58	; 0x3a
    cebc:	eb002c1e 	bl	17f3c <uspi_assertion_failed>
    cec0:	e5943010 	ldr	r3, [r4, #16]
    cec4:	e3530000 	cmp	r3, #0
    cec8:	0a000005 	beq	cee4 <USBDevice+0xac>
    cecc:	e30a051c 	movw	r0, #42268	; 0xa51c
    ced0:	e3400001 	movt	r0, #1
    ced4:	e30a14c0 	movw	r1, #42176	; 0xa4c0
    ced8:	e3401001 	movt	r1, #1
    cedc:	e3a0203c 	mov	r2, #60	; 0x3c
    cee0:	eb002c15 	bl	17f3c <uspi_assertion_failed>
    cee4:	e3a0001c 	mov	r0, #28
    cee8:	eb00235d 	bl	15c64 <malloc>
    ceec:	e5840010 	str	r0, [r4, #16]
    cef0:	e3500000 	cmp	r0, #0
    cef4:	1a000005 	bne	cf10 <USBDevice+0xd8>
    cef8:	e30a04e0 	movw	r0, #42208	; 0xa4e0
    cefc:	e3400001 	movt	r0, #1
    cf00:	e30a14c0 	movw	r1, #42176	; 0xa4c0
    cf04:	e3401001 	movt	r1, #1
    cf08:	e3a0203e 	mov	r2, #62	; 0x3e
    cf0c:	eb002c0a 	bl	17f3c <uspi_assertion_failed>
    cf10:	e5940010 	ldr	r0, [r4, #16]
    cf14:	e1a01004 	mov	r1, r4
    cf18:	eb000313 	bl	db6c <USBEndpoint>
    cf1c:	e3550000 	cmp	r5, #0
    cf20:	1a000005 	bne	cf3c <USBDevice+0x104>
    cf24:	e30a0538 	movw	r0, #42296	; 0xa538
    cf28:	e3400001 	movt	r0, #1
    cf2c:	e30a14c0 	movw	r1, #42176	; 0xa4c0
    cf30:	e3401001 	movt	r1, #1
    cf34:	e3a02041 	mov	r2, #65	; 0x41
    cf38:	eb002bff 	bl	17f3c <uspi_assertion_failed>
    cf3c:	e2840024 	add	r0, r4, #36	; 0x24
    cf40:	e1a01004 	mov	r1, r4
    cf44:	eb001b46 	bl	13c64 <USBString>
    cf48:	e2840030 	add	r0, r4, #48	; 0x30
    cf4c:	e1a01004 	mov	r1, r4
    cf50:	eb001b43 	bl	13c64 <USBString>
    cf54:	e8bd81f0 	pop	{r4, r5, r6, r7, r8, pc}

0000cf58 <USBDeviceCopy>:
    cf58:	e92d4070 	push	{r4, r5, r6, lr}
    cf5c:	e1a05001 	mov	r5, r1
    cf60:	e2504000 	subs	r4, r0, #0
    cf64:	1a000005 	bne	cf80 <USBDeviceCopy+0x28>
    cf68:	e3090ce4 	movw	r0, #40164	; 0x9ce4
    cf6c:	e3400001 	movt	r0, #1
    cf70:	e30a14c0 	movw	r1, #42176	; 0xa4c0
    cf74:	e3401001 	movt	r1, #1
    cf78:	e3a02049 	mov	r2, #73	; 0x49
    cf7c:	eb002bee 	bl	17f3c <uspi_assertion_failed>
    cf80:	e3550000 	cmp	r5, #0
    cf84:	1a000005 	bne	cfa0 <USBDeviceCopy+0x48>
    cf88:	e30a0550 	movw	r0, #42320	; 0xa550
    cf8c:	e3400001 	movt	r0, #1
    cf90:	e30a14c0 	movw	r1, #42176	; 0xa4c0
    cf94:	e3401001 	movt	r1, #1
    cf98:	e3a0204b 	mov	r2, #75	; 0x4b
    cf9c:	eb002be6 	bl	17f3c <uspi_assertion_failed>
    cfa0:	e5953000 	ldr	r3, [r5]
    cfa4:	e5843000 	str	r3, [r4]
    cfa8:	e3a03000 	mov	r3, #0
    cfac:	e5843010 	str	r3, [r4, #16]
    cfb0:	e5843018 	str	r3, [r4, #24]
    cfb4:	e584301c 	str	r3, [r4, #28]
    cfb8:	e5843020 	str	r3, [r4, #32]
    cfbc:	e5953004 	ldr	r3, [r5, #4]
    cfc0:	e5843004 	str	r3, [r4, #4]
    cfc4:	e5d53008 	ldrb	r3, [r5, #8]
    cfc8:	e5c43008 	strb	r3, [r4, #8]
    cfcc:	e595300c 	ldr	r3, [r5, #12]
    cfd0:	e584300c 	str	r3, [r4, #12]
    cfd4:	e5d53014 	ldrb	r3, [r5, #20]
    cfd8:	e5c43014 	strb	r3, [r4, #20]
    cfdc:	e5d53015 	ldrb	r3, [r5, #21]
    cfe0:	e5c43015 	strb	r3, [r4, #21]
    cfe4:	e2840024 	add	r0, r4, #36	; 0x24
    cfe8:	e2851024 	add	r1, r5, #36	; 0x24
    cfec:	eb001b3f 	bl	13cf0 <USBStringCopy>
    cff0:	e2840030 	add	r0, r4, #48	; 0x30
    cff4:	e2851030 	add	r1, r5, #48	; 0x30
    cff8:	eb001b3c 	bl	13cf0 <USBStringCopy>
    cffc:	e3a0001c 	mov	r0, #28
    d000:	eb002317 	bl	15c64 <malloc>
    d004:	e5840010 	str	r0, [r4, #16]
    d008:	e3500000 	cmp	r0, #0
    d00c:	1a000005 	bne	d028 <USBDeviceCopy+0xd0>
    d010:	e30a04e0 	movw	r0, #42208	; 0xa4e0
    d014:	e3400001 	movt	r0, #1
    d018:	e30a14c0 	movw	r1, #42176	; 0xa4c0
    d01c:	e3401001 	movt	r1, #1
    d020:	e3a0205e 	mov	r2, #94	; 0x5e
    d024:	eb002bc4 	bl	17f3c <uspi_assertion_failed>
    d028:	e5940010 	ldr	r0, [r4, #16]
    d02c:	e5951010 	ldr	r1, [r5, #16]
    d030:	e1a02004 	mov	r2, r4
    d034:	eb000356 	bl	dd94 <USBEndpointCopy>
    d038:	e5953018 	ldr	r3, [r5, #24]
    d03c:	e3530000 	cmp	r3, #0
    d040:	0a00000e 	beq	d080 <USBDeviceCopy+0x128>
    d044:	e3a00012 	mov	r0, #18
    d048:	eb002305 	bl	15c64 <malloc>
    d04c:	e5840018 	str	r0, [r4, #24]
    d050:	e3500000 	cmp	r0, #0
    d054:	1a000005 	bne	d070 <USBDeviceCopy+0x118>
    d058:	e30a0560 	movw	r0, #42336	; 0xa560
    d05c:	e3400001 	movt	r0, #1
    d060:	e30a14c0 	movw	r1, #42176	; 0xa4c0
    d064:	e3401001 	movt	r1, #1
    d068:	e3a02064 	mov	r2, #100	; 0x64
    d06c:	eb002bb2 	bl	17f3c <uspi_assertion_failed>
    d070:	e5940018 	ldr	r0, [r4, #24]
    d074:	e5951018 	ldr	r1, [r5, #24]
    d078:	e3a02012 	mov	r2, #18
    d07c:	eb000c77 	bl	10260 <uspi_memcpy>
    d080:	e595301c 	ldr	r3, [r5, #28]
    d084:	e3530000 	cmp	r3, #0
    d088:	08bd8070 	popeq	{r4, r5, r6, pc}
    d08c:	e1d360b2 	ldrh	r6, [r3, #2]
    d090:	e3560c02 	cmp	r6, #512	; 0x200
    d094:	9a000005 	bls	d0b0 <USBDeviceCopy+0x158>
    d098:	e30a057c 	movw	r0, #42364	; 0xa57c
    d09c:	e3400001 	movt	r0, #1
    d0a0:	e30a14c0 	movw	r1, #42176	; 0xa4c0
    d0a4:	e3401001 	movt	r1, #1
    d0a8:	e3a0206c 	mov	r2, #108	; 0x6c
    d0ac:	eb002ba2 	bl	17f3c <uspi_assertion_failed>
    d0b0:	e1a00006 	mov	r0, r6
    d0b4:	eb0022ea 	bl	15c64 <malloc>
    d0b8:	e584001c 	str	r0, [r4, #28]
    d0bc:	e3500000 	cmp	r0, #0
    d0c0:	1a000005 	bne	d0dc <USBDeviceCopy+0x184>
    d0c4:	e30a05a4 	movw	r0, #42404	; 0xa5a4
    d0c8:	e3400001 	movt	r0, #1
    d0cc:	e30a14c0 	movw	r1, #42176	; 0xa4c0
    d0d0:	e3401001 	movt	r1, #1
    d0d4:	e3a0206f 	mov	r2, #111	; 0x6f
    d0d8:	eb002b97 	bl	17f3c <uspi_assertion_failed>
    d0dc:	e594001c 	ldr	r0, [r4, #28]
    d0e0:	e595101c 	ldr	r1, [r5, #28]
    d0e4:	e1a02006 	mov	r2, r6
    d0e8:	eb000c5c 	bl	10260 <uspi_memcpy>
    d0ec:	e5953020 	ldr	r3, [r5, #32]
    d0f0:	e3530000 	cmp	r3, #0
    d0f4:	08bd8070 	popeq	{r4, r5, r6, pc}
    d0f8:	e3a00018 	mov	r0, #24
    d0fc:	eb0022d8 	bl	15c64 <malloc>
    d100:	e5840020 	str	r0, [r4, #32]
    d104:	e3500000 	cmp	r0, #0
    d108:	1a000005 	bne	d124 <USBDeviceCopy+0x1cc>
    d10c:	e30a05c0 	movw	r0, #42432	; 0xa5c0
    d110:	e3400001 	movt	r0, #1
    d114:	e30a14c0 	movw	r1, #42176	; 0xa4c0
    d118:	e3401001 	movt	r1, #1
    d11c:	e3a02076 	mov	r2, #118	; 0x76
    d120:	eb002b85 	bl	17f3c <uspi_assertion_failed>
    d124:	e5940020 	ldr	r0, [r4, #32]
    d128:	e594101c 	ldr	r1, [r4, #28]
    d12c:	e1a02006 	mov	r2, r6
    d130:	eb001cc9 	bl	1445c <USBConfigurationParser>
    d134:	e8bd8070 	pop	{r4, r5, r6, pc}

0000d138 <_USBDevice>:
    d138:	e92d4010 	push	{r4, lr}
    d13c:	e2504000 	subs	r4, r0, #0
    d140:	1a000005 	bne	d15c <_USBDevice+0x24>
    d144:	e3090ce4 	movw	r0, #40164	; 0x9ce4
    d148:	e3400001 	movt	r0, #1
    d14c:	e30a14c0 	movw	r1, #42176	; 0xa4c0
    d150:	e3401001 	movt	r1, #1
    d154:	e3a0207e 	mov	r2, #126	; 0x7e
    d158:	eb002b77 	bl	17f3c <uspi_assertion_failed>
    d15c:	e5940020 	ldr	r0, [r4, #32]
    d160:	e3500000 	cmp	r0, #0
    d164:	0a000004 	beq	d17c <_USBDevice+0x44>
    d168:	eb001d1a 	bl	145d8 <_USBConfigurationParser>
    d16c:	e5940020 	ldr	r0, [r4, #32]
    d170:	eb002317 	bl	15dd4 <free>
    d174:	e3a03000 	mov	r3, #0
    d178:	e5843020 	str	r3, [r4, #32]
    d17c:	e594001c 	ldr	r0, [r4, #28]
    d180:	e3500000 	cmp	r0, #0
    d184:	0a000002 	beq	d194 <_USBDevice+0x5c>
    d188:	eb002311 	bl	15dd4 <free>
    d18c:	e3a03000 	mov	r3, #0
    d190:	e584301c 	str	r3, [r4, #28]
    d194:	e5940018 	ldr	r0, [r4, #24]
    d198:	e3500000 	cmp	r0, #0
    d19c:	0a000002 	beq	d1ac <_USBDevice+0x74>
    d1a0:	eb00230b 	bl	15dd4 <free>
    d1a4:	e3a03000 	mov	r3, #0
    d1a8:	e5843018 	str	r3, [r4, #24]
    d1ac:	e5940010 	ldr	r0, [r4, #16]
    d1b0:	e3500000 	cmp	r0, #0
    d1b4:	0a000004 	beq	d1cc <_USBDevice+0x94>
    d1b8:	eb00031e 	bl	de38 <_USBEndpoint>
    d1bc:	e5940010 	ldr	r0, [r4, #16]
    d1c0:	eb002303 	bl	15dd4 <free>
    d1c4:	e3a03000 	mov	r3, #0
    d1c8:	e5843010 	str	r3, [r4, #16]
    d1cc:	e3a03000 	mov	r3, #0
    d1d0:	e5843000 	str	r3, [r4]
    d1d4:	e5843004 	str	r3, [r4, #4]
    d1d8:	e2840030 	add	r0, r4, #48	; 0x30
    d1dc:	eb001b07 	bl	13e00 <_USBString>
    d1e0:	e2840024 	add	r0, r4, #36	; 0x24
    d1e4:	eb001b05 	bl	13e00 <_USBString>
    d1e8:	e8bd8010 	pop	{r4, pc}

0000d1ec <USBDeviceGetName>:
    d1ec:	e92d4070 	push	{r4, r5, r6, lr}
    d1f0:	e24dd008 	sub	sp, sp, #8
    d1f4:	e1a05001 	mov	r5, r1
    d1f8:	e2506000 	subs	r6, r0, #0
    d1fc:	1a000005 	bne	d218 <USBDeviceGetName+0x2c>
    d200:	e3090ce4 	movw	r0, #40164	; 0x9ce4
    d204:	e3400001 	movt	r0, #1
    d208:	e30a14c0 	movw	r1, #42176	; 0xa4c0
    d20c:	e3401001 	movt	r1, #1
    d210:	e300215a 	movw	r2, #346	; 0x15a
    d214:	eb002b48 	bl	17f3c <uspi_assertion_failed>
    d218:	e3a0000c 	mov	r0, #12
    d21c:	eb002290 	bl	15c64 <malloc>
    d220:	e2504000 	subs	r4, r0, #0
    d224:	1a000005 	bne	d240 <USBDeviceGetName+0x54>
    d228:	e30a05dc 	movw	r0, #42460	; 0xa5dc
    d22c:	e3400001 	movt	r0, #1
    d230:	e30a14c0 	movw	r1, #42176	; 0xa4c0
    d234:	e3401001 	movt	r1, #1
    d238:	e300215d 	movw	r2, #349	; 0x15d
    d23c:	eb002b3e 	bl	17f3c <uspi_assertion_failed>
    d240:	e1a00004 	mov	r0, r4
    d244:	eb000959 	bl	f7b0 <String>
    d248:	e3550001 	cmp	r5, #1
    d24c:	0a000014 	beq	d2a4 <USBDeviceGetName+0xb8>
    d250:	3a000002 	bcc	d260 <USBDeviceGetName+0x74>
    d254:	e3550002 	cmp	r5, #2
    d258:	0a000028 	beq	d300 <USBDeviceGetName+0x114>
    d25c:	ea000040 	b	d364 <USBDeviceGetName+0x178>
    d260:	e5963018 	ldr	r3, [r6, #24]
    d264:	e3530000 	cmp	r3, #0
    d268:	1a000005 	bne	d284 <USBDeviceGetName+0x98>
    d26c:	e30a0560 	movw	r0, #42336	; 0xa560
    d270:	e3400001 	movt	r0, #1
    d274:	e30a14c0 	movw	r1, #42176	; 0xa4c0
    d278:	e3401001 	movt	r1, #1
    d27c:	e3002163 	movw	r2, #355	; 0x163
    d280:	eb002b2d 	bl	17f3c <uspi_assertion_failed>
    d284:	e5963018 	ldr	r3, [r6, #24]
    d288:	e1a00004 	mov	r0, r4
    d28c:	e30a15ec 	movw	r1, #42476	; 0xa5ec
    d290:	e3401001 	movt	r1, #1
    d294:	e1d320b8 	ldrh	r2, [r3, #8]
    d298:	e1d330ba 	ldrh	r3, [r3, #10]
    d29c:	eb000bd3 	bl	101f0 <StringFormat>
    d2a0:	ea000039 	b	d38c <USBDeviceGetName+0x1a0>
    d2a4:	e5963018 	ldr	r3, [r6, #24]
    d2a8:	e3530000 	cmp	r3, #0
    d2ac:	1a000005 	bne	d2c8 <USBDeviceGetName+0xdc>
    d2b0:	e30a0560 	movw	r0, #42336	; 0xa560
    d2b4:	e3400001 	movt	r0, #1
    d2b8:	e30a14c0 	movw	r1, #42176	; 0xa4c0
    d2bc:	e3401001 	movt	r1, #1
    d2c0:	e300216a 	movw	r2, #362	; 0x16a
    d2c4:	eb002b1c 	bl	17f3c <uspi_assertion_failed>
    d2c8:	e5961018 	ldr	r1, [r6, #24]
    d2cc:	e5d12004 	ldrb	r2, [r1, #4]
    d2d0:	e2423001 	sub	r3, r2, #1
    d2d4:	e6ef3073 	uxtb	r3, r3
    d2d8:	e35300fd 	cmp	r3, #253	; 0xfd
    d2dc:	8a000026 	bhi	d37c <USBDeviceGetName+0x190>
    d2e0:	e5d13005 	ldrb	r3, [r1, #5]
    d2e4:	e5d11006 	ldrb	r1, [r1, #6]
    d2e8:	e58d1000 	str	r1, [sp]
    d2ec:	e1a00004 	mov	r0, r4
    d2f0:	e30a15f8 	movw	r1, #42488	; 0xa5f8
    d2f4:	e3401001 	movt	r1, #1
    d2f8:	eb000bbc 	bl	101f0 <StringFormat>
    d2fc:	ea000022 	b	d38c <USBDeviceGetName+0x1a0>
    d300:	e596501c 	ldr	r5, [r6, #28]
    d304:	e3550000 	cmp	r5, #0
    d308:	1a000005 	bne	d324 <USBDeviceGetName+0x138>
    d30c:	e30a0604 	movw	r0, #42500	; 0xa604
    d310:	e3400001 	movt	r0, #1
    d314:	e30a14c0 	movw	r1, #42176	; 0xa4c0
    d318:	e3401001 	movt	r1, #1
    d31c:	e3a02f5e 	mov	r2, #376	; 0x178
    d320:	eb002b05 	bl	17f3c <uspi_assertion_failed>
    d324:	e1d530b2 	ldrh	r3, [r5, #2]
    d328:	e3530011 	cmp	r3, #17
    d32c:	9a000012 	bls	d37c <USBDeviceGetName+0x190>
    d330:	e5d5200e 	ldrb	r2, [r5, #14]
    d334:	e2423001 	sub	r3, r2, #1
    d338:	e6ef3073 	uxtb	r3, r3
    d33c:	e35300fd 	cmp	r3, #253	; 0xfd
    d340:	8a00000d 	bhi	d37c <USBDeviceGetName+0x190>
    d344:	e5d5300f 	ldrb	r3, [r5, #15]
    d348:	e5d51010 	ldrb	r1, [r5, #16]
    d34c:	e58d1000 	str	r1, [sp]
    d350:	e1a00004 	mov	r0, r4
    d354:	e30a1614 	movw	r1, #42516	; 0xa614
    d358:	e3401001 	movt	r1, #1
    d35c:	eb000ba3 	bl	101f0 <StringFormat>
    d360:	ea000009 	b	d38c <USBDeviceGetName+0x1a0>
    d364:	e30b0e18 	movw	r0, #48664	; 0xbe18
    d368:	e3400001 	movt	r0, #1
    d36c:	e30a14c0 	movw	r1, #42176	; 0xa4c0
    d370:	e3401001 	movt	r1, #1
    d374:	e3002186 	movw	r2, #390	; 0x186
    d378:	eb002aef 	bl	17f3c <uspi_assertion_failed>
    d37c:	e1a00004 	mov	r0, r4
    d380:	e30a1620 	movw	r1, #42528	; 0xa620
    d384:	e3401001 	movt	r1, #1
    d388:	eb000947 	bl	f8ac <StringSet>
    d38c:	e1a00004 	mov	r0, r4
    d390:	e28dd008 	add	sp, sp, #8
    d394:	e8bd8070 	pop	{r4, r5, r6, pc}

0000d398 <USBDeviceGetAddress>:
    d398:	e92d4010 	push	{r4, lr}
    d39c:	e2504000 	subs	r4, r0, #0
    d3a0:	1a000005 	bne	d3bc <USBDeviceGetAddress+0x24>
    d3a4:	e3090ce4 	movw	r0, #40164	; 0x9ce4
    d3a8:	e3400001 	movt	r0, #1
    d3ac:	e30a14c0 	movw	r1, #42176	; 0xa4c0
    d3b0:	e3401001 	movt	r1, #1
    d3b4:	e3002191 	movw	r2, #401	; 0x191
    d3b8:	eb002adf 	bl	17f3c <uspi_assertion_failed>
    d3bc:	e5d40008 	ldrb	r0, [r4, #8]
    d3c0:	e8bd8010 	pop	{r4, pc}

0000d3c4 <USBDeviceGetSpeed>:
    d3c4:	e92d4010 	push	{r4, lr}
    d3c8:	e2504000 	subs	r4, r0, #0
    d3cc:	1a000005 	bne	d3e8 <USBDeviceGetSpeed+0x24>
    d3d0:	e3090ce4 	movw	r0, #40164	; 0x9ce4
    d3d4:	e3400001 	movt	r0, #1
    d3d8:	e30a14c0 	movw	r1, #42176	; 0xa4c0
    d3dc:	e3401001 	movt	r1, #1
    d3e0:	e3002197 	movw	r2, #407	; 0x197
    d3e4:	eb002ad4 	bl	17f3c <uspi_assertion_failed>
    d3e8:	e594000c 	ldr	r0, [r4, #12]
    d3ec:	e8bd8010 	pop	{r4, pc}

0000d3f0 <USBDeviceGetHubAddress>:
    d3f0:	e92d4010 	push	{r4, lr}
    d3f4:	e2504000 	subs	r4, r0, #0
    d3f8:	1a000005 	bne	d414 <USBDeviceGetHubAddress+0x24>
    d3fc:	e3090ce4 	movw	r0, #40164	; 0x9ce4
    d400:	e3400001 	movt	r0, #1
    d404:	e30a14c0 	movw	r1, #42176	; 0xa4c0
    d408:	e3401001 	movt	r1, #1
    d40c:	e300219d 	movw	r2, #413	; 0x19d
    d410:	eb002ac9 	bl	17f3c <uspi_assertion_failed>
    d414:	e5d40014 	ldrb	r0, [r4, #20]
    d418:	e8bd8010 	pop	{r4, pc}

0000d41c <USBDeviceGetHubPortNumber>:
    d41c:	e92d4010 	push	{r4, lr}
    d420:	e2504000 	subs	r4, r0, #0
    d424:	1a000005 	bne	d440 <USBDeviceGetHubPortNumber+0x24>
    d428:	e3090ce4 	movw	r0, #40164	; 0x9ce4
    d42c:	e3400001 	movt	r0, #1
    d430:	e30a14c0 	movw	r1, #42176	; 0xa4c0
    d434:	e3401001 	movt	r1, #1
    d438:	e30021a3 	movw	r2, #419	; 0x1a3
    d43c:	eb002abe 	bl	17f3c <uspi_assertion_failed>
    d440:	e5d40015 	ldrb	r0, [r4, #21]
    d444:	e8bd8010 	pop	{r4, pc}

0000d448 <USBDeviceGetEndpoint0>:
    d448:	e92d4010 	push	{r4, lr}
    d44c:	e2504000 	subs	r4, r0, #0
    d450:	1a000005 	bne	d46c <USBDeviceGetEndpoint0+0x24>
    d454:	e3090ce4 	movw	r0, #40164	; 0x9ce4
    d458:	e3400001 	movt	r0, #1
    d45c:	e30a14c0 	movw	r1, #42176	; 0xa4c0
    d460:	e3401001 	movt	r1, #1
    d464:	e30021a9 	movw	r2, #425	; 0x1a9
    d468:	eb002ab3 	bl	17f3c <uspi_assertion_failed>
    d46c:	e5943010 	ldr	r3, [r4, #16]
    d470:	e3530000 	cmp	r3, #0
    d474:	1a000005 	bne	d490 <USBDeviceGetEndpoint0+0x48>
    d478:	e30a04e0 	movw	r0, #42208	; 0xa4e0
    d47c:	e3400001 	movt	r0, #1
    d480:	e30a14c0 	movw	r1, #42176	; 0xa4c0
    d484:	e3401001 	movt	r1, #1
    d488:	e30021aa 	movw	r2, #426	; 0x1aa
    d48c:	eb002aaa 	bl	17f3c <uspi_assertion_failed>
    d490:	e5940010 	ldr	r0, [r4, #16]
    d494:	e8bd8010 	pop	{r4, pc}

0000d498 <USBDeviceGetHost>:
    d498:	e92d4010 	push	{r4, lr}
    d49c:	e2504000 	subs	r4, r0, #0
    d4a0:	1a000005 	bne	d4bc <USBDeviceGetHost+0x24>
    d4a4:	e3090ce4 	movw	r0, #40164	; 0x9ce4
    d4a8:	e3400001 	movt	r0, #1
    d4ac:	e30a14c0 	movw	r1, #42176	; 0xa4c0
    d4b0:	e3401001 	movt	r1, #1
    d4b4:	e3a02e1b 	mov	r2, #432	; 0x1b0
    d4b8:	eb002a9f 	bl	17f3c <uspi_assertion_failed>
    d4bc:	e5943004 	ldr	r3, [r4, #4]
    d4c0:	e3530000 	cmp	r3, #0
    d4c4:	1a000005 	bne	d4e0 <USBDeviceGetHost+0x48>
    d4c8:	e30a04cc 	movw	r0, #42188	; 0xa4cc
    d4cc:	e3400001 	movt	r0, #1
    d4d0:	e30a14c0 	movw	r1, #42176	; 0xa4c0
    d4d4:	e3401001 	movt	r1, #1
    d4d8:	e30021b1 	movw	r2, #433	; 0x1b1
    d4dc:	eb002a96 	bl	17f3c <uspi_assertion_failed>
    d4e0:	e5940004 	ldr	r0, [r4, #4]
    d4e4:	e8bd8010 	pop	{r4, pc}

0000d4e8 <USBDeviceGetDeviceDescriptor>:
    d4e8:	e92d4010 	push	{r4, lr}
    d4ec:	e2504000 	subs	r4, r0, #0
    d4f0:	1a000005 	bne	d50c <USBDeviceGetDeviceDescriptor+0x24>
    d4f4:	e3090ce4 	movw	r0, #40164	; 0x9ce4
    d4f8:	e3400001 	movt	r0, #1
    d4fc:	e30a14c0 	movw	r1, #42176	; 0xa4c0
    d500:	e3401001 	movt	r1, #1
    d504:	e30021b7 	movw	r2, #439	; 0x1b7
    d508:	eb002a8b 	bl	17f3c <uspi_assertion_failed>
    d50c:	e5943018 	ldr	r3, [r4, #24]
    d510:	e3530000 	cmp	r3, #0
    d514:	1a000005 	bne	d530 <USBDeviceGetDeviceDescriptor+0x48>
    d518:	e30a0560 	movw	r0, #42336	; 0xa560
    d51c:	e3400001 	movt	r0, #1
    d520:	e30a14c0 	movw	r1, #42176	; 0xa4c0
    d524:	e3401001 	movt	r1, #1
    d528:	e3a02f6e 	mov	r2, #440	; 0x1b8
    d52c:	eb002a82 	bl	17f3c <uspi_assertion_failed>
    d530:	e5940018 	ldr	r0, [r4, #24]
    d534:	e8bd8010 	pop	{r4, pc}

0000d538 <USBDeviceGetConfigurationDescriptor>:
    d538:	e92d4010 	push	{r4, lr}
    d53c:	e2504000 	subs	r4, r0, #0
    d540:	1a000005 	bne	d55c <USBDeviceGetConfigurationDescriptor+0x24>
    d544:	e3090ce4 	movw	r0, #40164	; 0x9ce4
    d548:	e3400001 	movt	r0, #1
    d54c:	e30a14c0 	movw	r1, #42176	; 0xa4c0
    d550:	e3401001 	movt	r1, #1
    d554:	e30021be 	movw	r2, #446	; 0x1be
    d558:	eb002a77 	bl	17f3c <uspi_assertion_failed>
    d55c:	e594301c 	ldr	r3, [r4, #28]
    d560:	e3530000 	cmp	r3, #0
    d564:	1a000005 	bne	d580 <USBDeviceGetConfigurationDescriptor+0x48>
    d568:	e30a05a4 	movw	r0, #42404	; 0xa5a4
    d56c:	e3400001 	movt	r0, #1
    d570:	e30a14c0 	movw	r1, #42176	; 0xa4c0
    d574:	e3401001 	movt	r1, #1
    d578:	e30021bf 	movw	r2, #447	; 0x1bf
    d57c:	eb002a6e 	bl	17f3c <uspi_assertion_failed>
    d580:	e594001c 	ldr	r0, [r4, #28]
    d584:	e8bd8010 	pop	{r4, pc}

0000d588 <USBDeviceGetDescriptor>:
    d588:	e92d4038 	push	{r3, r4, r5, lr}
    d58c:	e1a05001 	mov	r5, r1
    d590:	e2504000 	subs	r4, r0, #0
    d594:	1a000005 	bne	d5b0 <USBDeviceGetDescriptor+0x28>
    d598:	e3090ce4 	movw	r0, #40164	; 0x9ce4
    d59c:	e3400001 	movt	r0, #1
    d5a0:	e30a14c0 	movw	r1, #42176	; 0xa4c0
    d5a4:	e3401001 	movt	r1, #1
    d5a8:	e30021c5 	movw	r2, #453	; 0x1c5
    d5ac:	eb002a62 	bl	17f3c <uspi_assertion_failed>
    d5b0:	e5943020 	ldr	r3, [r4, #32]
    d5b4:	e3530000 	cmp	r3, #0
    d5b8:	1a000005 	bne	d5d4 <USBDeviceGetDescriptor+0x4c>
    d5bc:	e30a05c0 	movw	r0, #42432	; 0xa5c0
    d5c0:	e3400001 	movt	r0, #1
    d5c4:	e30a14c0 	movw	r1, #42176	; 0xa4c0
    d5c8:	e3401001 	movt	r1, #1
    d5cc:	e30021c6 	movw	r2, #454	; 0x1c6
    d5d0:	eb002a59 	bl	17f3c <uspi_assertion_failed>
    d5d4:	e5940020 	ldr	r0, [r4, #32]
    d5d8:	e1a01005 	mov	r1, r5
    d5dc:	eb001c14 	bl	14634 <USBConfigurationParserGetDescriptor>
    d5e0:	e8bd8038 	pop	{r3, r4, r5, pc}

0000d5e4 <USBDeviceConfigurationError>:
    d5e4:	e92d4038 	push	{r3, r4, r5, lr}
    d5e8:	e1a05001 	mov	r5, r1
    d5ec:	e2504000 	subs	r4, r0, #0
    d5f0:	1a000005 	bne	d60c <USBDeviceConfigurationError+0x28>
    d5f4:	e3090ce4 	movw	r0, #40164	; 0x9ce4
    d5f8:	e3400001 	movt	r0, #1
    d5fc:	e30a14c0 	movw	r1, #42176	; 0xa4c0
    d600:	e3401001 	movt	r1, #1
    d604:	e3a02f73 	mov	r2, #460	; 0x1cc
    d608:	eb002a4b 	bl	17f3c <uspi_assertion_failed>
    d60c:	e5943020 	ldr	r3, [r4, #32]
    d610:	e3530000 	cmp	r3, #0
    d614:	1a000005 	bne	d630 <USBDeviceConfigurationError+0x4c>
    d618:	e30a05c0 	movw	r0, #42432	; 0xa5c0
    d61c:	e3400001 	movt	r0, #1
    d620:	e30a14c0 	movw	r1, #42176	; 0xa4c0
    d624:	e3401001 	movt	r1, #1
    d628:	e30021cd 	movw	r2, #461	; 0x1cd
    d62c:	eb002a42 	bl	17f3c <uspi_assertion_failed>
    d630:	e5940020 	ldr	r0, [r4, #32]
    d634:	e1a01005 	mov	r1, r5
    d638:	eb001c36 	bl	14718 <USBConfigurationParserError>
    d63c:	e8bd8038 	pop	{r3, r4, r5, pc}

0000d640 <USBDeviceSetAddress>:
    d640:	e92d4038 	push	{r3, r4, r5, lr}
    d644:	e1a04001 	mov	r4, r1
    d648:	e2505000 	subs	r5, r0, #0
    d64c:	1a000005 	bne	d668 <USBDeviceSetAddress+0x28>
    d650:	e3090ce4 	movw	r0, #40164	; 0x9ce4
    d654:	e3400001 	movt	r0, #1
    d658:	e30a14c0 	movw	r1, #42176	; 0xa4c0
    d65c:	e3401001 	movt	r1, #1
    d660:	e30021d3 	movw	r2, #467	; 0x1d3
    d664:	eb002a34 	bl	17f3c <uspi_assertion_failed>
    d668:	e3140080 	tst	r4, #128	; 0x80
    d66c:	0a000005 	beq	d688 <USBDeviceSetAddress+0x48>
    d670:	e30a0628 	movw	r0, #42536	; 0xa628
    d674:	e3400001 	movt	r0, #1
    d678:	e30a14c0 	movw	r1, #42176	; 0xa4c0
    d67c:	e3401001 	movt	r1, #1
    d680:	e30021d5 	movw	r2, #469	; 0x1d5
    d684:	eb002a2c 	bl	17f3c <uspi_assertion_failed>
    d688:	e5c54008 	strb	r4, [r5, #8]
    d68c:	e8bd8038 	pop	{r3, r4, r5, pc}

0000d690 <USBDeviceInitialize>:
    d690:	e92d4070 	push	{r4, r5, r6, lr}
    d694:	e24dd010 	sub	sp, sp, #16
    d698:	e2504000 	subs	r4, r0, #0
    d69c:	1a000005 	bne	d6b8 <USBDeviceInitialize+0x28>
    d6a0:	e3090ce4 	movw	r0, #40164	; 0x9ce4
    d6a4:	e3400001 	movt	r0, #1
    d6a8:	e30a14c0 	movw	r1, #42176	; 0xa4c0
    d6ac:	e3401001 	movt	r1, #1
    d6b0:	e3a020a4 	mov	r2, #164	; 0xa4
    d6b4:	eb002a20 	bl	17f3c <uspi_assertion_failed>
    d6b8:	e5943018 	ldr	r3, [r4, #24]
    d6bc:	e3530000 	cmp	r3, #0
    d6c0:	0a000005 	beq	d6dc <USBDeviceInitialize+0x4c>
    d6c4:	e30a0648 	movw	r0, #42568	; 0xa648
    d6c8:	e3400001 	movt	r0, #1
    d6cc:	e30a14c0 	movw	r1, #42176	; 0xa4c0
    d6d0:	e3401001 	movt	r1, #1
    d6d4:	e3a020a6 	mov	r2, #166	; 0xa6
    d6d8:	eb002a17 	bl	17f3c <uspi_assertion_failed>
    d6dc:	e3a00012 	mov	r0, #18
    d6e0:	eb00215f 	bl	15c64 <malloc>
    d6e4:	e5840018 	str	r0, [r4, #24]
    d6e8:	e3500000 	cmp	r0, #0
    d6ec:	1a000005 	bne	d708 <USBDeviceInitialize+0x78>
    d6f0:	e30a0560 	movw	r0, #42336	; 0xa560
    d6f4:	e3400001 	movt	r0, #1
    d6f8:	e30a14c0 	movw	r1, #42176	; 0xa4c0
    d6fc:	e3401001 	movt	r1, #1
    d700:	e3a020a8 	mov	r2, #168	; 0xa8
    d704:	eb002a0c 	bl	17f3c <uspi_assertion_failed>
    d708:	e5943004 	ldr	r3, [r4, #4]
    d70c:	e3530000 	cmp	r3, #0
    d710:	1a000005 	bne	d72c <USBDeviceInitialize+0x9c>
    d714:	e30a04cc 	movw	r0, #42188	; 0xa4cc
    d718:	e3400001 	movt	r0, #1
    d71c:	e30a14c0 	movw	r1, #42176	; 0xa4c0
    d720:	e3401001 	movt	r1, #1
    d724:	e3a020aa 	mov	r2, #170	; 0xaa
    d728:	eb002a03 	bl	17f3c <uspi_assertion_failed>
    d72c:	e5943010 	ldr	r3, [r4, #16]
    d730:	e3530000 	cmp	r3, #0
    d734:	1a000005 	bne	d750 <USBDeviceInitialize+0xc0>
    d738:	e30a04e0 	movw	r0, #42208	; 0xa4e0
    d73c:	e3400001 	movt	r0, #1
    d740:	e30a14c0 	movw	r1, #42176	; 0xa4c0
    d744:	e3401001 	movt	r1, #1
    d748:	e3a020ab 	mov	r2, #171	; 0xab
    d74c:	eb0029fa 	bl	17f3c <uspi_assertion_failed>
    d750:	e5940004 	ldr	r0, [r4, #4]
    d754:	e5941010 	ldr	r1, [r4, #16]
    d758:	e5943018 	ldr	r3, [r4, #24]
    d75c:	e58d3000 	str	r3, [sp]
    d760:	e3a03008 	mov	r3, #8
    d764:	e58d3004 	str	r3, [sp, #4]
    d768:	e3a03080 	mov	r3, #128	; 0x80
    d76c:	e58d3008 	str	r3, [sp, #8]
    d770:	e3a02001 	mov	r2, #1
    d774:	e3a03000 	mov	r3, #0
    d778:	ebfff32f 	bl	a43c <DWHCIDeviceGetDescriptor>
    d77c:	e3500008 	cmp	r0, #8
    d780:	0a00000a 	beq	d7b0 <USBDeviceInitialize+0x120>
    d784:	e30a04b8 	movw	r0, #42168	; 0xa4b8
    d788:	e3400001 	movt	r0, #1
    d78c:	e3a01001 	mov	r1, #1
    d790:	e30a2664 	movw	r2, #42596	; 0xa664
    d794:	e3402001 	movt	r2, #1
    d798:	eb0029d5 	bl	17ef4 <LogWrite>
    d79c:	e5940018 	ldr	r0, [r4, #24]
    d7a0:	eb00218b 	bl	15dd4 <free>
    d7a4:	e3a05000 	mov	r5, #0
    d7a8:	e5845018 	str	r5, [r4, #24]
    d7ac:	ea0000eb 	b	db60 <USBDeviceInitialize+0x4d0>
    d7b0:	e5943018 	ldr	r3, [r4, #24]
    d7b4:	e5d32000 	ldrb	r2, [r3]
    d7b8:	e3520012 	cmp	r2, #18
    d7bc:	1a000002 	bne	d7cc <USBDeviceInitialize+0x13c>
    d7c0:	e5d32001 	ldrb	r2, [r3, #1]
    d7c4:	e3520001 	cmp	r2, #1
    d7c8:	0a00000a 	beq	d7f8 <USBDeviceInitialize+0x168>
    d7cc:	e30a04b8 	movw	r0, #42168	; 0xa4b8
    d7d0:	e3400001 	movt	r0, #1
    d7d4:	e3a01001 	mov	r1, #1
    d7d8:	e30a268c 	movw	r2, #42636	; 0xa68c
    d7dc:	e3402001 	movt	r2, #1
    d7e0:	eb0029c3 	bl	17ef4 <LogWrite>
    d7e4:	e5940018 	ldr	r0, [r4, #24]
    d7e8:	eb002179 	bl	15dd4 <free>
    d7ec:	e3a05000 	mov	r5, #0
    d7f0:	e5845018 	str	r5, [r4, #24]
    d7f4:	ea0000d9 	b	db60 <USBDeviceInitialize+0x4d0>
    d7f8:	e5940010 	ldr	r0, [r4, #16]
    d7fc:	e5d31007 	ldrb	r1, [r3, #7]
    d800:	eb0001cd 	bl	df3c <USBEndpointSetMaxPacketSize>
    d804:	e5940004 	ldr	r0, [r4, #4]
    d808:	e5941010 	ldr	r1, [r4, #16]
    d80c:	e5943018 	ldr	r3, [r4, #24]
    d810:	e58d3000 	str	r3, [sp]
    d814:	e3a03012 	mov	r3, #18
    d818:	e58d3004 	str	r3, [sp, #4]
    d81c:	e3a03080 	mov	r3, #128	; 0x80
    d820:	e58d3008 	str	r3, [sp, #8]
    d824:	e3a02001 	mov	r2, #1
    d828:	e3a03000 	mov	r3, #0
    d82c:	ebfff302 	bl	a43c <DWHCIDeviceGetDescriptor>
    d830:	e3500012 	cmp	r0, #18
    d834:	0a00000a 	beq	d864 <USBDeviceInitialize+0x1d4>
    d838:	e30a04b8 	movw	r0, #42168	; 0xa4b8
    d83c:	e3400001 	movt	r0, #1
    d840:	e3a01001 	mov	r1, #1
    d844:	e30a26a8 	movw	r2, #42664	; 0xa6a8
    d848:	e3402001 	movt	r2, #1
    d84c:	eb0029a8 	bl	17ef4 <LogWrite>
    d850:	e5940018 	ldr	r0, [r4, #24]
    d854:	eb00215e 	bl	15dd4 <free>
    d858:	e3a05000 	mov	r5, #0
    d85c:	e5845018 	str	r5, [r4, #24]
    d860:	ea0000be 	b	db60 <USBDeviceInitialize+0x4d0>
    d864:	e30c05b8 	movw	r0, #50616	; 0xc5b8
    d868:	e3400001 	movt	r0, #1
    d86c:	e5d06000 	ldrb	r6, [r0]
    d870:	e2863001 	add	r3, r6, #1
    d874:	e5c03000 	strb	r3, [r0]
    d878:	e3160080 	tst	r6, #128	; 0x80
    d87c:	0a000007 	beq	d8a0 <USBDeviceInitialize+0x210>
    d880:	e30a04b8 	movw	r0, #42168	; 0xa4b8
    d884:	e3400001 	movt	r0, #1
    d888:	e3a01001 	mov	r1, #1
    d88c:	e30a26c8 	movw	r2, #42696	; 0xa6c8
    d890:	e3402001 	movt	r2, #1
    d894:	eb002996 	bl	17ef4 <LogWrite>
    d898:	e3a05000 	mov	r5, #0
    d89c:	ea0000af 	b	db60 <USBDeviceInitialize+0x4d0>
    d8a0:	e5940004 	ldr	r0, [r4, #4]
    d8a4:	e5941010 	ldr	r1, [r4, #16]
    d8a8:	e1a02006 	mov	r2, r6
    d8ac:	ebfff2fe 	bl	a4ac <DWHCIDeviceSetAddress>
    d8b0:	e2505000 	subs	r5, r0, #0
    d8b4:	1a000007 	bne	d8d8 <USBDeviceInitialize+0x248>
    d8b8:	e30a04b8 	movw	r0, #42168	; 0xa4b8
    d8bc:	e3400001 	movt	r0, #1
    d8c0:	e3a01001 	mov	r1, #1
    d8c4:	e30a26dc 	movw	r2, #42716	; 0xa6dc
    d8c8:	e3402001 	movt	r2, #1
    d8cc:	e1a03006 	mov	r3, r6
    d8d0:	eb002987 	bl	17ef4 <LogWrite>
    d8d4:	ea0000a1 	b	db60 <USBDeviceInitialize+0x4d0>
    d8d8:	e1a00004 	mov	r0, r4
    d8dc:	e1a01006 	mov	r1, r6
    d8e0:	ebffff56 	bl	d640 <USBDeviceSetAddress>
    d8e4:	e5943018 	ldr	r3, [r4, #24]
    d8e8:	e5d3200e 	ldrb	r2, [r3, #14]
    d8ec:	e3520000 	cmp	r2, #0
    d8f0:	1a000002 	bne	d900 <USBDeviceInitialize+0x270>
    d8f4:	e5d3300f 	ldrb	r3, [r3, #15]
    d8f8:	e3530000 	cmp	r3, #0
    d8fc:	0a000011 	beq	d948 <USBDeviceInitialize+0x2b8>
    d900:	e2845024 	add	r5, r4, #36	; 0x24
    d904:	e1a00005 	mov	r0, r5
    d908:	eb001a37 	bl	141ec <USBStringGetLanguageID>
    d90c:	e1a06000 	mov	r6, r0
    d910:	e5943018 	ldr	r3, [r4, #24]
    d914:	e5d3100e 	ldrb	r1, [r3, #14]
    d918:	e3510000 	cmp	r1, #0
    d91c:	0a000002 	beq	d92c <USBDeviceInitialize+0x29c>
    d920:	e1a00005 	mov	r0, r5
    d924:	e1a02006 	mov	r2, r6
    d928:	eb001955 	bl	13e84 <USBStringGetFromDescriptor>
    d92c:	e5943018 	ldr	r3, [r4, #24]
    d930:	e5d3100f 	ldrb	r1, [r3, #15]
    d934:	e3510000 	cmp	r1, #0
    d938:	0a000002 	beq	d948 <USBDeviceInitialize+0x2b8>
    d93c:	e2840030 	add	r0, r4, #48	; 0x30
    d940:	e1a02006 	mov	r2, r6
    d944:	eb00194e 	bl	13e84 <USBStringGetFromDescriptor>
    d948:	e594301c 	ldr	r3, [r4, #28]
    d94c:	e3530000 	cmp	r3, #0
    d950:	0a000005 	beq	d96c <USBDeviceInitialize+0x2dc>
    d954:	e30a06f4 	movw	r0, #42740	; 0xa6f4
    d958:	e3400001 	movt	r0, #1
    d95c:	e30a14c0 	movw	r1, #42176	; 0xa4c0
    d960:	e3401001 	movt	r1, #1
    d964:	e3a020fd 	mov	r2, #253	; 0xfd
    d968:	eb002973 	bl	17f3c <uspi_assertion_failed>
    d96c:	e3a00009 	mov	r0, #9
    d970:	eb0020bb 	bl	15c64 <malloc>
    d974:	e584001c 	str	r0, [r4, #28]
    d978:	e3500000 	cmp	r0, #0
    d97c:	1a000005 	bne	d998 <USBDeviceInitialize+0x308>
    d980:	e30a05a4 	movw	r0, #42404	; 0xa5a4
    d984:	e3400001 	movt	r0, #1
    d988:	e30a14c0 	movw	r1, #42176	; 0xa4c0
    d98c:	e3401001 	movt	r1, #1
    d990:	e3a020ff 	mov	r2, #255	; 0xff
    d994:	eb002968 	bl	17f3c <uspi_assertion_failed>
    d998:	e5940004 	ldr	r0, [r4, #4]
    d99c:	e5941010 	ldr	r1, [r4, #16]
    d9a0:	e594301c 	ldr	r3, [r4, #28]
    d9a4:	e58d3000 	str	r3, [sp]
    d9a8:	e3a03009 	mov	r3, #9
    d9ac:	e58d3004 	str	r3, [sp, #4]
    d9b0:	e3a03080 	mov	r3, #128	; 0x80
    d9b4:	e58d3008 	str	r3, [sp, #8]
    d9b8:	e3a02002 	mov	r2, #2
    d9bc:	e3a03000 	mov	r3, #0
    d9c0:	ebfff29d 	bl	a43c <DWHCIDeviceGetDescriptor>
    d9c4:	e3500009 	cmp	r0, #9
    d9c8:	0a00000a 	beq	d9f8 <USBDeviceInitialize+0x368>
    d9cc:	e30a04b8 	movw	r0, #42168	; 0xa4b8
    d9d0:	e3400001 	movt	r0, #1
    d9d4:	e3a01001 	mov	r1, #1
    d9d8:	e30a2710 	movw	r2, #42768	; 0xa710
    d9dc:	e3402001 	movt	r2, #1
    d9e0:	eb002943 	bl	17ef4 <LogWrite>
    d9e4:	e594001c 	ldr	r0, [r4, #28]
    d9e8:	eb0020f9 	bl	15dd4 <free>
    d9ec:	e3a05000 	mov	r5, #0
    d9f0:	e584501c 	str	r5, [r4, #28]
    d9f4:	ea000059 	b	db60 <USBDeviceInitialize+0x4d0>
    d9f8:	e594001c 	ldr	r0, [r4, #28]
    d9fc:	e5d03000 	ldrb	r3, [r0]
    da00:	e3530009 	cmp	r3, #9
    da04:	1a000005 	bne	da20 <USBDeviceInitialize+0x390>
    da08:	e5d03001 	ldrb	r3, [r0, #1]
    da0c:	e3530002 	cmp	r3, #2
    da10:	1a000002 	bne	da20 <USBDeviceInitialize+0x390>
    da14:	e1d050b2 	ldrh	r5, [r0, #2]
    da18:	e3550c02 	cmp	r5, #512	; 0x200
    da1c:	9a00000a 	bls	da4c <USBDeviceInitialize+0x3bc>
    da20:	e30a04b8 	movw	r0, #42168	; 0xa4b8
    da24:	e3400001 	movt	r0, #1
    da28:	e3a01001 	mov	r1, #1
    da2c:	e30a273c 	movw	r2, #42812	; 0xa73c
    da30:	e3402001 	movt	r2, #1
    da34:	eb00292e 	bl	17ef4 <LogWrite>
    da38:	e594001c 	ldr	r0, [r4, #28]
    da3c:	eb0020e4 	bl	15dd4 <free>
    da40:	e3a05000 	mov	r5, #0
    da44:	e584501c 	str	r5, [r4, #28]
    da48:	ea000044 	b	db60 <USBDeviceInitialize+0x4d0>
    da4c:	eb0020e0 	bl	15dd4 <free>
    da50:	e1a00005 	mov	r0, r5
    da54:	eb002082 	bl	15c64 <malloc>
    da58:	e584001c 	str	r0, [r4, #28]
    da5c:	e3500000 	cmp	r0, #0
    da60:	1a000005 	bne	da7c <USBDeviceInitialize+0x3ec>
    da64:	e30a05a4 	movw	r0, #42404	; 0xa5a4
    da68:	e3400001 	movt	r0, #1
    da6c:	e30a14c0 	movw	r1, #42176	; 0xa4c0
    da70:	e3401001 	movt	r1, #1
    da74:	e300211f 	movw	r2, #287	; 0x11f
    da78:	eb00292f 	bl	17f3c <uspi_assertion_failed>
    da7c:	e5940004 	ldr	r0, [r4, #4]
    da80:	e5941010 	ldr	r1, [r4, #16]
    da84:	e594301c 	ldr	r3, [r4, #28]
    da88:	e58d3000 	str	r3, [sp]
    da8c:	e58d5004 	str	r5, [sp, #4]
    da90:	e3a03080 	mov	r3, #128	; 0x80
    da94:	e58d3008 	str	r3, [sp, #8]
    da98:	e3a02002 	mov	r2, #2
    da9c:	e3a03000 	mov	r3, #0
    daa0:	ebfff265 	bl	a43c <DWHCIDeviceGetDescriptor>
    daa4:	e1500005 	cmp	r0, r5
    daa8:	0a00000a 	beq	dad8 <USBDeviceInitialize+0x448>
    daac:	e30a04b8 	movw	r0, #42168	; 0xa4b8
    dab0:	e3400001 	movt	r0, #1
    dab4:	e3a01001 	mov	r1, #1
    dab8:	e30a2760 	movw	r2, #42848	; 0xa760
    dabc:	e3402001 	movt	r2, #1
    dac0:	eb00290b 	bl	17ef4 <LogWrite>
    dac4:	e594001c 	ldr	r0, [r4, #28]
    dac8:	eb0020c1 	bl	15dd4 <free>
    dacc:	e3a05000 	mov	r5, #0
    dad0:	e584501c 	str	r5, [r4, #28]
    dad4:	ea000021 	b	db60 <USBDeviceInitialize+0x4d0>
    dad8:	e5943020 	ldr	r3, [r4, #32]
    dadc:	e3530000 	cmp	r3, #0
    dae0:	0a000005 	beq	dafc <USBDeviceInitialize+0x46c>
    dae4:	e30a0784 	movw	r0, #42884	; 0xa784
    dae8:	e3400001 	movt	r0, #1
    daec:	e30a14c0 	movw	r1, #42176	; 0xa4c0
    daf0:	e3401001 	movt	r1, #1
    daf4:	e3002132 	movw	r2, #306	; 0x132
    daf8:	eb00290f 	bl	17f3c <uspi_assertion_failed>
    dafc:	e3a00018 	mov	r0, #24
    db00:	eb002057 	bl	15c64 <malloc>
    db04:	e5840020 	str	r0, [r4, #32]
    db08:	e3500000 	cmp	r0, #0
    db0c:	1a000005 	bne	db28 <USBDeviceInitialize+0x498>
    db10:	e30a05c0 	movw	r0, #42432	; 0xa5c0
    db14:	e3400001 	movt	r0, #1
    db18:	e30a14c0 	movw	r1, #42176	; 0xa4c0
    db1c:	e3401001 	movt	r1, #1
    db20:	e3a02f4d 	mov	r2, #308	; 0x134
    db24:	eb002904 	bl	17f3c <uspi_assertion_failed>
    db28:	e5940020 	ldr	r0, [r4, #32]
    db2c:	e594101c 	ldr	r1, [r4, #28]
    db30:	e1a02005 	mov	r2, r5
    db34:	eb001a48 	bl	1445c <USBConfigurationParser>
    db38:	e5940020 	ldr	r0, [r4, #32]
    db3c:	eb001ab1 	bl	14608 <USBConfigurationParserIsValid>
    db40:	e2505000 	subs	r5, r0, #0
    db44:	13a05001 	movne	r5, #1
    db48:	1a000004 	bne	db60 <USBDeviceInitialize+0x4d0>
    db4c:	e1a00004 	mov	r0, r4
    db50:	e30a14b8 	movw	r1, #42168	; 0xa4b8
    db54:	e3401001 	movt	r1, #1
    db58:	ebfffea1 	bl	d5e4 <USBDeviceConfigurationError>
    db5c:	eaffffff 	b	db60 <USBDeviceInitialize+0x4d0>
    db60:	e1a00005 	mov	r0, r5
    db64:	e28dd010 	add	sp, sp, #16
    db68:	e8bd8070 	pop	{r4, r5, r6, pc}

0000db6c <USBEndpoint>:
    db6c:	e92d4038 	push	{r3, r4, r5, lr}
    db70:	e1a05001 	mov	r5, r1
    db74:	e2504000 	subs	r4, r0, #0
    db78:	1a000005 	bne	db94 <USBEndpoint+0x28>
    db7c:	e3090ce4 	movw	r0, #40164	; 0x9ce4
    db80:	e3400001 	movt	r0, #1
    db84:	e30a17a0 	movw	r1, #42912	; 0xa7a0
    db88:	e3401001 	movt	r1, #1
    db8c:	e3a02019 	mov	r2, #25
    db90:	eb0028e9 	bl	17f3c <uspi_assertion_failed>
    db94:	e5845000 	str	r5, [r4]
    db98:	e3a03000 	mov	r3, #0
    db9c:	e5c43004 	strb	r3, [r4, #4]
    dba0:	e5843008 	str	r3, [r4, #8]
    dba4:	e584300c 	str	r3, [r4, #12]
    dba8:	e3a02008 	mov	r2, #8
    dbac:	e5842010 	str	r2, [r4, #16]
    dbb0:	e3a02001 	mov	r2, #1
    dbb4:	e5842014 	str	r2, [r4, #20]
    dbb8:	e5843018 	str	r3, [r4, #24]
    dbbc:	e1550003 	cmp	r5, r3
    dbc0:	18bd8038 	popne	{r3, r4, r5, pc}
    dbc4:	e30a03b8 	movw	r0, #41912	; 0xa3b8
    dbc8:	e3400001 	movt	r0, #1
    dbcc:	e30a17a0 	movw	r1, #42912	; 0xa7a0
    dbd0:	e3401001 	movt	r1, #1
    dbd4:	e3a02022 	mov	r2, #34	; 0x22
    dbd8:	eb0028d7 	bl	17f3c <uspi_assertion_failed>
    dbdc:	e8bd8038 	pop	{r3, r4, r5, pc}

0000dbe0 <USBEndpoint2>:
    dbe0:	e92d4070 	push	{r4, r5, r6, lr}
    dbe4:	e1a06001 	mov	r6, r1
    dbe8:	e1a05002 	mov	r5, r2
    dbec:	e2504000 	subs	r4, r0, #0
    dbf0:	1a000005 	bne	dc0c <USBEndpoint2+0x2c>
    dbf4:	e3090ce4 	movw	r0, #40164	; 0x9ce4
    dbf8:	e3400001 	movt	r0, #1
    dbfc:	e30a17a0 	movw	r1, #42912	; 0xa7a0
    dc00:	e3401001 	movt	r1, #1
    dc04:	e3a02027 	mov	r2, #39	; 0x27
    dc08:	eb0028cb 	bl	17f3c <uspi_assertion_failed>
    dc0c:	e5846000 	str	r6, [r4]
    dc10:	e3a03001 	mov	r3, #1
    dc14:	e5843014 	str	r3, [r4, #20]
    dc18:	e3560000 	cmp	r6, #0
    dc1c:	1a000005 	bne	dc38 <USBEndpoint2+0x58>
    dc20:	e30a03b8 	movw	r0, #41912	; 0xa3b8
    dc24:	e3400001 	movt	r0, #1
    dc28:	e30a17a0 	movw	r1, #42912	; 0xa7a0
    dc2c:	e3401001 	movt	r1, #1
    dc30:	e3a0202b 	mov	r2, #43	; 0x2b
    dc34:	eb0028c0 	bl	17f3c <uspi_assertion_failed>
    dc38:	e3550000 	cmp	r5, #0
    dc3c:	1a000005 	bne	dc58 <USBEndpoint2+0x78>
    dc40:	e3090cc4 	movw	r0, #40132	; 0x9cc4
    dc44:	e3400001 	movt	r0, #1
    dc48:	e30a17a0 	movw	r1, #42912	; 0xa7a0
    dc4c:	e3401001 	movt	r1, #1
    dc50:	e3a0202d 	mov	r2, #45	; 0x2d
    dc54:	eb0028b8 	bl	17f3c <uspi_assertion_failed>
    dc58:	e5d53000 	ldrb	r3, [r5]
    dc5c:	e3530007 	cmp	r3, #7
    dc60:	0a000005 	beq	dc7c <USBEndpoint2+0x9c>
    dc64:	e30a07b0 	movw	r0, #42928	; 0xa7b0
    dc68:	e3400001 	movt	r0, #1
    dc6c:	e30a17a0 	movw	r1, #42912	; 0xa7a0
    dc70:	e3401001 	movt	r1, #1
    dc74:	e3a0202e 	mov	r2, #46	; 0x2e
    dc78:	eb0028af 	bl	17f3c <uspi_assertion_failed>
    dc7c:	e5d53001 	ldrb	r3, [r5, #1]
    dc80:	e3530005 	cmp	r3, #5
    dc84:	0a000005 	beq	dca0 <USBEndpoint2+0xc0>
    dc88:	e30a07d0 	movw	r0, #42960	; 0xa7d0
    dc8c:	e3400001 	movt	r0, #1
    dc90:	e30a17a0 	movw	r1, #42912	; 0xa7a0
    dc94:	e3401001 	movt	r1, #1
    dc98:	e3a0202f 	mov	r2, #47	; 0x2f
    dc9c:	eb0028a6 	bl	17f3c <uspi_assertion_failed>
    dca0:	e5d53003 	ldrb	r3, [r5, #3]
    dca4:	e2033003 	and	r3, r3, #3
    dca8:	e3530002 	cmp	r3, #2
    dcac:	0a000002 	beq	dcbc <USBEndpoint2+0xdc>
    dcb0:	e3530003 	cmp	r3, #3
    dcb4:	0a000004 	beq	dccc <USBEndpoint2+0xec>
    dcb8:	ea000008 	b	dce0 <USBEndpoint2+0x100>
    dcbc:	e3a03001 	mov	r3, #1
    dcc0:	e5843008 	str	r3, [r4, #8]
    dcc4:	e5843018 	str	r3, [r4, #24]
    dcc8:	ea00000b 	b	dcfc <USBEndpoint2+0x11c>
    dccc:	e3a03002 	mov	r3, #2
    dcd0:	e5843008 	str	r3, [r4, #8]
    dcd4:	e3a03001 	mov	r3, #1
    dcd8:	e5843018 	str	r3, [r4, #24]
    dcdc:	ea000006 	b	dcfc <USBEndpoint2+0x11c>
    dce0:	e30b0e18 	movw	r0, #48664	; 0xbe18
    dce4:	e3400001 	movt	r0, #1
    dce8:	e30a17a0 	movw	r1, #42912	; 0xa7a0
    dcec:	e3401001 	movt	r1, #1
    dcf0:	e3a0203e 	mov	r2, #62	; 0x3e
    dcf4:	eb002890 	bl	17f3c <uspi_assertion_failed>
    dcf8:	e8bd8070 	pop	{r4, r5, r6, pc}
    dcfc:	e5d53002 	ldrb	r3, [r5, #2]
    dd00:	e203300f 	and	r3, r3, #15
    dd04:	e5c43004 	strb	r3, [r4, #4]
    dd08:	e1d530d2 	ldrsb	r3, [r5, #2]
    dd0c:	e1a03fa3 	lsr	r3, r3, #31
    dd10:	e584300c 	str	r3, [r4, #12]
    dd14:	e1d530b4 	ldrh	r3, [r5, #4]
    dd18:	e5843010 	str	r3, [r4, #16]
    dd1c:	e5943008 	ldr	r3, [r4, #8]
    dd20:	e3530002 	cmp	r3, #2
    dd24:	18bd8070 	popne	{r4, r5, r6, pc}
    dd28:	e5d55006 	ldrb	r5, [r5, #6]
    dd2c:	e3550000 	cmp	r5, #0
    dd30:	0a000011 	beq	dd7c <USBEndpoint2+0x19c>
    dd34:	e5940000 	ldr	r0, [r4]
    dd38:	ebfffda1 	bl	d3c4 <USBDeviceGetSpeed>
    dd3c:	e3500002 	cmp	r0, #2
    dd40:	0a000001 	beq	dd4c <USBEndpoint2+0x16c>
    dd44:	e5845014 	str	r5, [r4, #20]
    dd48:	e8bd8070 	pop	{r4, r5, r6, pc}
    dd4c:	e3550010 	cmp	r5, #16
    dd50:	23a05010 	movcs	r5, #16
    dd54:	e2455001 	sub	r5, r5, #1
    dd58:	e3a03001 	mov	r3, #1
    dd5c:	e1a05513 	lsl	r5, r3, r5
    dd60:	e1a051a5 	lsr	r5, r5, #3
    dd64:	e5845014 	str	r5, [r4, #20]
    dd68:	e3550000 	cmp	r5, #0
    dd6c:	18bd8070 	popne	{r4, r5, r6, pc}
    dd70:	e3a03001 	mov	r3, #1
    dd74:	e5843014 	str	r3, [r4, #20]
    dd78:	e8bd8070 	pop	{r4, r5, r6, pc}
    dd7c:	e5940000 	ldr	r0, [r4]
    dd80:	ebfffd8f 	bl	d3c4 <USBDeviceGetSpeed>
    dd84:	e3500002 	cmp	r0, #2
    dd88:	13a05001 	movne	r5, #1
    dd8c:	1affffec 	bne	dd44 <USBEndpoint2+0x164>
    dd90:	eafffff6 	b	dd70 <USBEndpoint2+0x190>

0000dd94 <USBEndpointCopy>:
    dd94:	e92d4070 	push	{r4, r5, r6, lr}
    dd98:	e1a05001 	mov	r5, r1
    dd9c:	e1a06002 	mov	r6, r2
    dda0:	e2504000 	subs	r4, r0, #0
    dda4:	1a000005 	bne	ddc0 <USBEndpointCopy+0x2c>
    dda8:	e3090ce4 	movw	r0, #40164	; 0x9ce4
    ddac:	e3400001 	movt	r0, #1
    ddb0:	e30a17a0 	movw	r1, #42912	; 0xa7a0
    ddb4:	e3401001 	movt	r1, #1
    ddb8:	e3a02068 	mov	r2, #104	; 0x68
    ddbc:	eb00285e 	bl	17f3c <uspi_assertion_failed>
    ddc0:	e3550000 	cmp	r5, #0
    ddc4:	1a000005 	bne	dde0 <USBEndpointCopy+0x4c>
    ddc8:	e30a0800 	movw	r0, #43008	; 0xa800
    ddcc:	e3400001 	movt	r0, #1
    ddd0:	e30a17a0 	movw	r1, #42912	; 0xa7a0
    ddd4:	e3401001 	movt	r1, #1
    ddd8:	e3a0206a 	mov	r2, #106	; 0x6a
    dddc:	eb002856 	bl	17f3c <uspi_assertion_failed>
    dde0:	e5846000 	str	r6, [r4]
    dde4:	e3560000 	cmp	r6, #0
    dde8:	1a000005 	bne	de04 <USBEndpointCopy+0x70>
    ddec:	e30a03b8 	movw	r0, #41912	; 0xa3b8
    ddf0:	e3400001 	movt	r0, #1
    ddf4:	e30a17a0 	movw	r1, #42912	; 0xa7a0
    ddf8:	e3401001 	movt	r1, #1
    ddfc:	e3a0206d 	mov	r2, #109	; 0x6d
    de00:	eb00284d 	bl	17f3c <uspi_assertion_failed>
    de04:	e5d53004 	ldrb	r3, [r5, #4]
    de08:	e5c43004 	strb	r3, [r4, #4]
    de0c:	e5953008 	ldr	r3, [r5, #8]
    de10:	e5843008 	str	r3, [r4, #8]
    de14:	e595300c 	ldr	r3, [r5, #12]
    de18:	e584300c 	str	r3, [r4, #12]
    de1c:	e5953010 	ldr	r3, [r5, #16]
    de20:	e5843010 	str	r3, [r4, #16]
    de24:	e5953014 	ldr	r3, [r5, #20]
    de28:	e5843014 	str	r3, [r4, #20]
    de2c:	e5953018 	ldr	r3, [r5, #24]
    de30:	e5843018 	str	r3, [r4, #24]
    de34:	e8bd8070 	pop	{r4, r5, r6, pc}

0000de38 <_USBEndpoint>:
    de38:	e92d4010 	push	{r4, lr}
    de3c:	e2504000 	subs	r4, r0, #0
    de40:	1a000005 	bne	de5c <_USBEndpoint+0x24>
    de44:	e3090ce4 	movw	r0, #40164	; 0x9ce4
    de48:	e3400001 	movt	r0, #1
    de4c:	e30a17a0 	movw	r1, #42912	; 0xa7a0
    de50:	e3401001 	movt	r1, #1
    de54:	e3a02079 	mov	r2, #121	; 0x79
    de58:	eb002837 	bl	17f3c <uspi_assertion_failed>
    de5c:	e3a03000 	mov	r3, #0
    de60:	e5843000 	str	r3, [r4]
    de64:	e8bd8010 	pop	{r4, pc}

0000de68 <USBEndpointGetDevice>:
    de68:	e92d4010 	push	{r4, lr}
    de6c:	e2504000 	subs	r4, r0, #0
    de70:	1a000005 	bne	de8c <USBEndpointGetDevice+0x24>
    de74:	e3090ce4 	movw	r0, #40164	; 0x9ce4
    de78:	e3400001 	movt	r0, #1
    de7c:	e30a17a0 	movw	r1, #42912	; 0xa7a0
    de80:	e3401001 	movt	r1, #1
    de84:	e3a0207f 	mov	r2, #127	; 0x7f
    de88:	eb00282b 	bl	17f3c <uspi_assertion_failed>
    de8c:	e5943000 	ldr	r3, [r4]
    de90:	e3530000 	cmp	r3, #0
    de94:	1a000005 	bne	deb0 <USBEndpointGetDevice+0x48>
    de98:	e30a03b8 	movw	r0, #41912	; 0xa3b8
    de9c:	e3400001 	movt	r0, #1
    dea0:	e30a17a0 	movw	r1, #42912	; 0xa7a0
    dea4:	e3401001 	movt	r1, #1
    dea8:	e3a02080 	mov	r2, #128	; 0x80
    deac:	eb002822 	bl	17f3c <uspi_assertion_failed>
    deb0:	e5940000 	ldr	r0, [r4]
    deb4:	e8bd8010 	pop	{r4, pc}

0000deb8 <USBEndpointGetNumber>:
    deb8:	e92d4010 	push	{r4, lr}
    debc:	e2504000 	subs	r4, r0, #0
    dec0:	1a000005 	bne	dedc <USBEndpointGetNumber+0x24>
    dec4:	e3090ce4 	movw	r0, #40164	; 0x9ce4
    dec8:	e3400001 	movt	r0, #1
    decc:	e30a17a0 	movw	r1, #42912	; 0xa7a0
    ded0:	e3401001 	movt	r1, #1
    ded4:	e3a02086 	mov	r2, #134	; 0x86
    ded8:	eb002817 	bl	17f3c <uspi_assertion_failed>
    dedc:	e5d40004 	ldrb	r0, [r4, #4]
    dee0:	e8bd8010 	pop	{r4, pc}

0000dee4 <USBEndpointGetType>:
    dee4:	e92d4010 	push	{r4, lr}
    dee8:	e2504000 	subs	r4, r0, #0
    deec:	1a000005 	bne	df08 <USBEndpointGetType+0x24>
    def0:	e3090ce4 	movw	r0, #40164	; 0x9ce4
    def4:	e3400001 	movt	r0, #1
    def8:	e30a17a0 	movw	r1, #42912	; 0xa7a0
    defc:	e3401001 	movt	r1, #1
    df00:	e3a0208c 	mov	r2, #140	; 0x8c
    df04:	eb00280c 	bl	17f3c <uspi_assertion_failed>
    df08:	e5940008 	ldr	r0, [r4, #8]
    df0c:	e8bd8010 	pop	{r4, pc}

0000df10 <USBEndpointIsDirectionIn>:
    df10:	e92d4010 	push	{r4, lr}
    df14:	e2504000 	subs	r4, r0, #0
    df18:	1a000005 	bne	df34 <USBEndpointIsDirectionIn+0x24>
    df1c:	e3090ce4 	movw	r0, #40164	; 0x9ce4
    df20:	e3400001 	movt	r0, #1
    df24:	e30a17a0 	movw	r1, #42912	; 0xa7a0
    df28:	e3401001 	movt	r1, #1
    df2c:	e3a02092 	mov	r2, #146	; 0x92
    df30:	eb002801 	bl	17f3c <uspi_assertion_failed>
    df34:	e594000c 	ldr	r0, [r4, #12]
    df38:	e8bd8010 	pop	{r4, pc}

0000df3c <USBEndpointSetMaxPacketSize>:
    df3c:	e92d4038 	push	{r3, r4, r5, lr}
    df40:	e1a05001 	mov	r5, r1
    df44:	e2504000 	subs	r4, r0, #0
    df48:	1a000005 	bne	df64 <USBEndpointSetMaxPacketSize+0x28>
    df4c:	e3090ce4 	movw	r0, #40164	; 0x9ce4
    df50:	e3400001 	movt	r0, #1
    df54:	e30a17a0 	movw	r1, #42912	; 0xa7a0
    df58:	e3401001 	movt	r1, #1
    df5c:	e3a02098 	mov	r2, #152	; 0x98
    df60:	eb0027f5 	bl	17f3c <uspi_assertion_failed>
    df64:	e5845010 	str	r5, [r4, #16]
    df68:	e8bd8038 	pop	{r3, r4, r5, pc}

0000df6c <USBEndpointGetMaxPacketSize>:
    df6c:	e92d4010 	push	{r4, lr}
    df70:	e2504000 	subs	r4, r0, #0
    df74:	1a000005 	bne	df90 <USBEndpointGetMaxPacketSize+0x24>
    df78:	e3090ce4 	movw	r0, #40164	; 0x9ce4
    df7c:	e3400001 	movt	r0, #1
    df80:	e30a17a0 	movw	r1, #42912	; 0xa7a0
    df84:	e3401001 	movt	r1, #1
    df88:	e3a0209e 	mov	r2, #158	; 0x9e
    df8c:	eb0027ea 	bl	17f3c <uspi_assertion_failed>
    df90:	e5940010 	ldr	r0, [r4, #16]
    df94:	e8bd8010 	pop	{r4, pc}

0000df98 <USBEndpointGetInterval>:
    df98:	e92d4010 	push	{r4, lr}
    df9c:	e2504000 	subs	r4, r0, #0
    dfa0:	1a000005 	bne	dfbc <USBEndpointGetInterval+0x24>
    dfa4:	e3090ce4 	movw	r0, #40164	; 0x9ce4
    dfa8:	e3400001 	movt	r0, #1
    dfac:	e30a17a0 	movw	r1, #42912	; 0xa7a0
    dfb0:	e3401001 	movt	r1, #1
    dfb4:	e3a020a4 	mov	r2, #164	; 0xa4
    dfb8:	eb0027df 	bl	17f3c <uspi_assertion_failed>
    dfbc:	e5943008 	ldr	r3, [r4, #8]
    dfc0:	e3530002 	cmp	r3, #2
    dfc4:	0a000005 	beq	dfe0 <USBEndpointGetInterval+0x48>
    dfc8:	e30a0810 	movw	r0, #43024	; 0xa810
    dfcc:	e3400001 	movt	r0, #1
    dfd0:	e30a17a0 	movw	r1, #42912	; 0xa7a0
    dfd4:	e3401001 	movt	r1, #1
    dfd8:	e3a020a5 	mov	r2, #165	; 0xa5
    dfdc:	eb0027d6 	bl	17f3c <uspi_assertion_failed>
    dfe0:	e5940014 	ldr	r0, [r4, #20]
    dfe4:	e8bd8010 	pop	{r4, pc}

0000dfe8 <USBEndpointGetNextPID>:
    dfe8:	e92d4038 	push	{r3, r4, r5, lr}
    dfec:	e1a05001 	mov	r5, r1
    dff0:	e2504000 	subs	r4, r0, #0
    dff4:	1a000005 	bne	e010 <USBEndpointGetNextPID+0x28>
    dff8:	e3090ce4 	movw	r0, #40164	; 0x9ce4
    dffc:	e3400001 	movt	r0, #1
    e000:	e30a17a0 	movw	r1, #42912	; 0xa7a0
    e004:	e3401001 	movt	r1, #1
    e008:	e3a020ac 	mov	r2, #172	; 0xac
    e00c:	eb0027ca 	bl	17f3c <uspi_assertion_failed>
    e010:	e3550000 	cmp	r5, #0
    e014:	0a00000a 	beq	e044 <USBEndpointGetNextPID+0x5c>
    e018:	e5943008 	ldr	r3, [r4, #8]
    e01c:	e3530000 	cmp	r3, #0
    e020:	0a000009 	beq	e04c <USBEndpointGetNextPID+0x64>
    e024:	e30a0838 	movw	r0, #43064	; 0xa838
    e028:	e3400001 	movt	r0, #1
    e02c:	e30a17a0 	movw	r1, #42912	; 0xa7a0
    e030:	e3401001 	movt	r1, #1
    e034:	e3a020af 	mov	r2, #175	; 0xaf
    e038:	eb0027bf 	bl	17f3c <uspi_assertion_failed>
    e03c:	e3a00002 	mov	r0, #2
    e040:	e8bd8038 	pop	{r3, r4, r5, pc}
    e044:	e5940018 	ldr	r0, [r4, #24]
    e048:	e8bd8038 	pop	{r3, r4, r5, pc}
    e04c:	e3a00002 	mov	r0, #2
    e050:	e8bd8038 	pop	{r3, r4, r5, pc}

0000e054 <USBEndpointSkipPID>:
    e054:	e92d4070 	push	{r4, r5, r6, lr}
    e058:	e1a06001 	mov	r6, r1
    e05c:	e1a05002 	mov	r5, r2
    e060:	e2504000 	subs	r4, r0, #0
    e064:	1a000005 	bne	e080 <USBEndpointSkipPID+0x2c>
    e068:	e3090ce4 	movw	r0, #40164	; 0x9ce4
    e06c:	e3400001 	movt	r0, #1
    e070:	e30a17a0 	movw	r1, #42912	; 0xa7a0
    e074:	e3401001 	movt	r1, #1
    e078:	e3a020b9 	mov	r2, #185	; 0xb9
    e07c:	eb0027ae 	bl	17f3c <uspi_assertion_failed>
    e080:	e5943008 	ldr	r3, [r4, #8]
    e084:	e3530002 	cmp	r3, #2
    e088:	9a000005 	bls	e0a4 <USBEndpointSkipPID+0x50>
    e08c:	e30a0860 	movw	r0, #43104	; 0xa860
    e090:	e3400001 	movt	r0, #1
    e094:	e30a17a0 	movw	r1, #42912	; 0xa7a0
    e098:	e3401001 	movt	r1, #1
    e09c:	e3a020bc 	mov	r2, #188	; 0xbc
    e0a0:	eb0027a5 	bl	17f3c <uspi_assertion_failed>
    e0a4:	e3550000 	cmp	r5, #0
    e0a8:	1a000018 	bne	e110 <USBEndpointSkipPID+0xbc>
    e0ac:	e5943018 	ldr	r3, [r4, #24]
    e0b0:	e3530001 	cmp	r3, #1
    e0b4:	0a000006 	beq	e0d4 <USBEndpointSkipPID+0x80>
    e0b8:	3a000002 	bcc	e0c8 <USBEndpointSkipPID+0x74>
    e0bc:	e3530002 	cmp	r3, #2
    e0c0:	0a000007 	beq	e0e4 <USBEndpointSkipPID+0x90>
    e0c4:	ea00000a 	b	e0f4 <USBEndpointSkipPID+0xa0>
    e0c8:	e3a03002 	mov	r3, #2
    e0cc:	e5843018 	str	r3, [r4, #24]
    e0d0:	e8bd8070 	pop	{r4, r5, r6, pc}
    e0d4:	e3160001 	tst	r6, #1
    e0d8:	13a03002 	movne	r3, #2
    e0dc:	15843018 	strne	r3, [r4, #24]
    e0e0:	e8bd8070 	pop	{r4, r5, r6, pc}
    e0e4:	e3160001 	tst	r6, #1
    e0e8:	13a03001 	movne	r3, #1
    e0ec:	15843018 	strne	r3, [r4, #24]
    e0f0:	e8bd8070 	pop	{r4, r5, r6, pc}
    e0f4:	e30b0e18 	movw	r0, #48664	; 0xbe18
    e0f8:	e3400001 	movt	r0, #1
    e0fc:	e30a17a0 	movw	r1, #42912	; 0xa7a0
    e100:	e3401001 	movt	r1, #1
    e104:	e3a020d5 	mov	r2, #213	; 0xd5
    e108:	eb00278b 	bl	17f3c <uspi_assertion_failed>
    e10c:	e8bd8070 	pop	{r4, r5, r6, pc}
    e110:	e5943008 	ldr	r3, [r4, #8]
    e114:	e3530000 	cmp	r3, #0
    e118:	0a000005 	beq	e134 <USBEndpointSkipPID+0xe0>
    e11c:	e30a0838 	movw	r0, #43064	; 0xa838
    e120:	e3400001 	movt	r0, #1
    e124:	e30a17a0 	movw	r1, #42912	; 0xa7a0
    e128:	e3401001 	movt	r1, #1
    e12c:	e3a020db 	mov	r2, #219	; 0xdb
    e130:	eb002781 	bl	17f3c <uspi_assertion_failed>
    e134:	e3a03000 	mov	r3, #0
    e138:	e5843018 	str	r3, [r4, #24]
    e13c:	e8bd8070 	pop	{r4, r5, r6, pc}

0000e140 <USBEndpointResetPID>:
    e140:	e92d4010 	push	{r4, lr}
    e144:	e2504000 	subs	r4, r0, #0
    e148:	1a000005 	bne	e164 <USBEndpointResetPID+0x24>
    e14c:	e3090ce4 	movw	r0, #40164	; 0x9ce4
    e150:	e3400001 	movt	r0, #1
    e154:	e30a17a0 	movw	r1, #42912	; 0xa7a0
    e158:	e3401001 	movt	r1, #1
    e15c:	e3a020e3 	mov	r2, #227	; 0xe3
    e160:	eb002775 	bl	17f3c <uspi_assertion_failed>
    e164:	e5943008 	ldr	r3, [r4, #8]
    e168:	e3530001 	cmp	r3, #1
    e16c:	0a000005 	beq	e188 <USBEndpointResetPID+0x48>
    e170:	e30a08d4 	movw	r0, #43220	; 0xa8d4
    e174:	e3400001 	movt	r0, #1
    e178:	e30a17a0 	movw	r1, #42912	; 0xa7a0
    e17c:	e3401001 	movt	r1, #1
    e180:	e3a020e4 	mov	r2, #228	; 0xe4
    e184:	eb00276c 	bl	17f3c <uspi_assertion_failed>
    e188:	e3a03001 	mov	r3, #1
    e18c:	e5843018 	str	r3, [r4, #24]
    e190:	e8bd8010 	pop	{r4, pc}

0000e194 <USBRequest>:
    e194:	e92d40f8 	push	{r3, r4, r5, r6, r7, lr}
    e198:	e1a05001 	mov	r5, r1
    e19c:	e1a07002 	mov	r7, r2
    e1a0:	e1a06003 	mov	r6, r3
    e1a4:	e2504000 	subs	r4, r0, #0
    e1a8:	1a000005 	bne	e1c4 <USBRequest+0x30>
    e1ac:	e3090ce4 	movw	r0, #40164	; 0x9ce4
    e1b0:	e3400001 	movt	r0, #1
    e1b4:	e30a18f8 	movw	r1, #43256	; 0xa8f8
    e1b8:	e3401001 	movt	r1, #1
    e1bc:	e3a02019 	mov	r2, #25
    e1c0:	eb00275d 	bl	17f3c <uspi_assertion_failed>
    e1c4:	e5845000 	str	r5, [r4]
    e1c8:	e59d3018 	ldr	r3, [sp, #24]
    e1cc:	e5843004 	str	r3, [r4, #4]
    e1d0:	e5847008 	str	r7, [r4, #8]
    e1d4:	e584600c 	str	r6, [r4, #12]
    e1d8:	e3a03000 	mov	r3, #0
    e1dc:	e5843010 	str	r3, [r4, #16]
    e1e0:	e5843014 	str	r3, [r4, #20]
    e1e4:	e5843018 	str	r3, [r4, #24]
    e1e8:	e584301c 	str	r3, [r4, #28]
    e1ec:	e5843020 	str	r3, [r4, #32]
    e1f0:	e1550003 	cmp	r5, r3
    e1f4:	1a000005 	bne	e210 <USBRequest+0x7c>
    e1f8:	e30a038c 	movw	r0, #41868	; 0xa38c
    e1fc:	e3400001 	movt	r0, #1
    e200:	e30a18f8 	movw	r1, #43256	; 0xa8f8
    e204:	e3401001 	movt	r1, #1
    e208:	e3a02025 	mov	r2, #37	; 0x25
    e20c:	eb00274a 	bl	17f3c <uspi_assertion_failed>
    e210:	e5943008 	ldr	r3, [r4, #8]
    e214:	e3530000 	cmp	r3, #0
    e218:	18bd80f8 	popne	{r3, r4, r5, r6, r7, pc}
    e21c:	e594300c 	ldr	r3, [r4, #12]
    e220:	e3530000 	cmp	r3, #0
    e224:	08bd80f8 	popeq	{r3, r4, r5, r6, r7, pc}
    e228:	e30a0908 	movw	r0, #43272	; 0xa908
    e22c:	e3400001 	movt	r0, #1
    e230:	e30a18f8 	movw	r1, #43256	; 0xa8f8
    e234:	e3401001 	movt	r1, #1
    e238:	e3a02026 	mov	r2, #38	; 0x26
    e23c:	eb00273e 	bl	17f3c <uspi_assertion_failed>
    e240:	e8bd80f8 	pop	{r3, r4, r5, r6, r7, pc}

0000e244 <_USBRequest>:
    e244:	e92d4010 	push	{r4, lr}
    e248:	e2504000 	subs	r4, r0, #0
    e24c:	1a000005 	bne	e268 <_USBRequest+0x24>
    e250:	e3090ce4 	movw	r0, #40164	; 0x9ce4
    e254:	e3400001 	movt	r0, #1
    e258:	e30a18f8 	movw	r1, #43256	; 0xa8f8
    e25c:	e3401001 	movt	r1, #1
    e260:	e3a0202b 	mov	r2, #43	; 0x2b
    e264:	eb002734 	bl	17f3c <uspi_assertion_failed>
    e268:	e3a03000 	mov	r3, #0
    e26c:	e5843000 	str	r3, [r4]
    e270:	e5843004 	str	r3, [r4, #4]
    e274:	e5843008 	str	r3, [r4, #8]
    e278:	e5843018 	str	r3, [r4, #24]
    e27c:	e8bd8010 	pop	{r4, pc}

0000e280 <USBRequestGetEndpoint>:
    e280:	e92d4010 	push	{r4, lr}
    e284:	e2504000 	subs	r4, r0, #0
    e288:	1a000005 	bne	e2a4 <USBRequestGetEndpoint+0x24>
    e28c:	e3090ce4 	movw	r0, #40164	; 0x9ce4
    e290:	e3400001 	movt	r0, #1
    e294:	e30a18f8 	movw	r1, #43256	; 0xa8f8
    e298:	e3401001 	movt	r1, #1
    e29c:	e3a02034 	mov	r2, #52	; 0x34
    e2a0:	eb002725 	bl	17f3c <uspi_assertion_failed>
    e2a4:	e5943000 	ldr	r3, [r4]
    e2a8:	e3530000 	cmp	r3, #0
    e2ac:	1a000005 	bne	e2c8 <USBRequestGetEndpoint+0x48>
    e2b0:	e30a038c 	movw	r0, #41868	; 0xa38c
    e2b4:	e3400001 	movt	r0, #1
    e2b8:	e30a18f8 	movw	r1, #43256	; 0xa8f8
    e2bc:	e3401001 	movt	r1, #1
    e2c0:	e3a02035 	mov	r2, #53	; 0x35
    e2c4:	eb00271c 	bl	17f3c <uspi_assertion_failed>
    e2c8:	e5940000 	ldr	r0, [r4]
    e2cc:	e8bd8010 	pop	{r4, pc}

0000e2d0 <USBRequestSetStatus>:
    e2d0:	e92d4038 	push	{r3, r4, r5, lr}
    e2d4:	e1a05001 	mov	r5, r1
    e2d8:	e2504000 	subs	r4, r0, #0
    e2dc:	1a000005 	bne	e2f8 <USBRequestSetStatus+0x28>
    e2e0:	e3090ce4 	movw	r0, #40164	; 0x9ce4
    e2e4:	e3400001 	movt	r0, #1
    e2e8:	e30a18f8 	movw	r1, #43256	; 0xa8f8
    e2ec:	e3401001 	movt	r1, #1
    e2f0:	e3a0203b 	mov	r2, #59	; 0x3b
    e2f4:	eb002710 	bl	17f3c <uspi_assertion_failed>
    e2f8:	e5845010 	str	r5, [r4, #16]
    e2fc:	e8bd8038 	pop	{r3, r4, r5, pc}

0000e300 <USBRequestSetResultLen>:
    e300:	e92d4038 	push	{r3, r4, r5, lr}
    e304:	e1a05001 	mov	r5, r1
    e308:	e2504000 	subs	r4, r0, #0
    e30c:	1a000005 	bne	e328 <USBRequestSetResultLen+0x28>
    e310:	e3090ce4 	movw	r0, #40164	; 0x9ce4
    e314:	e3400001 	movt	r0, #1
    e318:	e30a18f8 	movw	r1, #43256	; 0xa8f8
    e31c:	e3401001 	movt	r1, #1
    e320:	e3a02041 	mov	r2, #65	; 0x41
    e324:	eb002704 	bl	17f3c <uspi_assertion_failed>
    e328:	e5845014 	str	r5, [r4, #20]
    e32c:	e8bd8038 	pop	{r3, r4, r5, pc}

0000e330 <USBRequestGetStatus>:
    e330:	e92d4010 	push	{r4, lr}
    e334:	e2504000 	subs	r4, r0, #0
    e338:	1a000005 	bne	e354 <USBRequestGetStatus+0x24>
    e33c:	e3090ce4 	movw	r0, #40164	; 0x9ce4
    e340:	e3400001 	movt	r0, #1
    e344:	e30a18f8 	movw	r1, #43256	; 0xa8f8
    e348:	e3401001 	movt	r1, #1
    e34c:	e3a02047 	mov	r2, #71	; 0x47
    e350:	eb0026f9 	bl	17f3c <uspi_assertion_failed>
    e354:	e5940010 	ldr	r0, [r4, #16]
    e358:	e8bd8010 	pop	{r4, pc}

0000e35c <USBRequestGetResultLength>:
    e35c:	e92d4010 	push	{r4, lr}
    e360:	e2504000 	subs	r4, r0, #0
    e364:	1a000005 	bne	e380 <USBRequestGetResultLength+0x24>
    e368:	e3090ce4 	movw	r0, #40164	; 0x9ce4
    e36c:	e3400001 	movt	r0, #1
    e370:	e30a18f8 	movw	r1, #43256	; 0xa8f8
    e374:	e3401001 	movt	r1, #1
    e378:	e3a0204d 	mov	r2, #77	; 0x4d
    e37c:	eb0026ee 	bl	17f3c <uspi_assertion_failed>
    e380:	e5943010 	ldr	r3, [r4, #16]
    e384:	e3530000 	cmp	r3, #0
    e388:	1a000005 	bne	e3a4 <USBRequestGetResultLength+0x48>
    e38c:	e30a0938 	movw	r0, #43320	; 0xa938
    e390:	e3400001 	movt	r0, #1
    e394:	e30a18f8 	movw	r1, #43256	; 0xa8f8
    e398:	e3401001 	movt	r1, #1
    e39c:	e3a0204e 	mov	r2, #78	; 0x4e
    e3a0:	eb0026e5 	bl	17f3c <uspi_assertion_failed>
    e3a4:	e5940014 	ldr	r0, [r4, #20]
    e3a8:	e8bd8010 	pop	{r4, pc}

0000e3ac <USBRequestGetSetupData>:
    e3ac:	e92d4010 	push	{r4, lr}
    e3b0:	e2504000 	subs	r4, r0, #0
    e3b4:	1a000005 	bne	e3d0 <USBRequestGetSetupData+0x24>
    e3b8:	e3090ce4 	movw	r0, #40164	; 0x9ce4
    e3bc:	e3400001 	movt	r0, #1
    e3c0:	e30a18f8 	movw	r1, #43256	; 0xa8f8
    e3c4:	e3401001 	movt	r1, #1
    e3c8:	e3a02055 	mov	r2, #85	; 0x55
    e3cc:	eb0026da 	bl	17f3c <uspi_assertion_failed>
    e3d0:	e5940000 	ldr	r0, [r4]
    e3d4:	ebfffec2 	bl	dee4 <USBEndpointGetType>
    e3d8:	e3500000 	cmp	r0, #0
    e3dc:	0a000005 	beq	e3f8 <USBRequestGetSetupData+0x4c>
    e3e0:	e30a094c 	movw	r0, #43340	; 0xa94c
    e3e4:	e3400001 	movt	r0, #1
    e3e8:	e30a18f8 	movw	r1, #43256	; 0xa8f8
    e3ec:	e3401001 	movt	r1, #1
    e3f0:	e3a02056 	mov	r2, #86	; 0x56
    e3f4:	eb0026d0 	bl	17f3c <uspi_assertion_failed>
    e3f8:	e5943004 	ldr	r3, [r4, #4]
    e3fc:	e3530000 	cmp	r3, #0
    e400:	1a000005 	bne	e41c <USBRequestGetSetupData+0x70>
    e404:	e30a098c 	movw	r0, #43404	; 0xa98c
    e408:	e3400001 	movt	r0, #1
    e40c:	e30a18f8 	movw	r1, #43256	; 0xa8f8
    e410:	e3401001 	movt	r1, #1
    e414:	e3a02057 	mov	r2, #87	; 0x57
    e418:	eb0026c7 	bl	17f3c <uspi_assertion_failed>
    e41c:	e5940004 	ldr	r0, [r4, #4]
    e420:	e8bd8010 	pop	{r4, pc}

0000e424 <USBRequestGetBuffer>:
    e424:	e92d4010 	push	{r4, lr}
    e428:	e2504000 	subs	r4, r0, #0
    e42c:	1a000005 	bne	e448 <USBRequestGetBuffer+0x24>
    e430:	e3090ce4 	movw	r0, #40164	; 0x9ce4
    e434:	e3400001 	movt	r0, #1
    e438:	e30a18f8 	movw	r1, #43256	; 0xa8f8
    e43c:	e3401001 	movt	r1, #1
    e440:	e3a0205e 	mov	r2, #94	; 0x5e
    e444:	eb0026bc 	bl	17f3c <uspi_assertion_failed>
    e448:	e5943008 	ldr	r3, [r4, #8]
    e44c:	e3530000 	cmp	r3, #0
    e450:	1a000008 	bne	e478 <USBRequestGetBuffer+0x54>
    e454:	e594300c 	ldr	r3, [r4, #12]
    e458:	e3530000 	cmp	r3, #0
    e45c:	0a000005 	beq	e478 <USBRequestGetBuffer+0x54>
    e460:	e30a0908 	movw	r0, #43272	; 0xa908
    e464:	e3400001 	movt	r0, #1
    e468:	e30a18f8 	movw	r1, #43256	; 0xa8f8
    e46c:	e3401001 	movt	r1, #1
    e470:	e3a02060 	mov	r2, #96	; 0x60
    e474:	eb0026b0 	bl	17f3c <uspi_assertion_failed>
    e478:	e5940008 	ldr	r0, [r4, #8]
    e47c:	e8bd8010 	pop	{r4, pc}

0000e480 <USBRequestGetBufLen>:
    e480:	e92d4010 	push	{r4, lr}
    e484:	e2504000 	subs	r4, r0, #0
    e488:	1a000005 	bne	e4a4 <USBRequestGetBufLen+0x24>
    e48c:	e3090ce4 	movw	r0, #40164	; 0x9ce4
    e490:	e3400001 	movt	r0, #1
    e494:	e30a18f8 	movw	r1, #43256	; 0xa8f8
    e498:	e3401001 	movt	r1, #1
    e49c:	e3a02067 	mov	r2, #103	; 0x67
    e4a0:	eb0026a5 	bl	17f3c <uspi_assertion_failed>
    e4a4:	e594000c 	ldr	r0, [r4, #12]
    e4a8:	e8bd8010 	pop	{r4, pc}

0000e4ac <USBRequestSetCompletionRoutine>:
    e4ac:	e92d40f8 	push	{r3, r4, r5, r6, r7, lr}
    e4b0:	e1a05001 	mov	r5, r1
    e4b4:	e1a07002 	mov	r7, r2
    e4b8:	e1a06003 	mov	r6, r3
    e4bc:	e2504000 	subs	r4, r0, #0
    e4c0:	1a000005 	bne	e4dc <USBRequestSetCompletionRoutine+0x30>
    e4c4:	e3090ce4 	movw	r0, #40164	; 0x9ce4
    e4c8:	e3400001 	movt	r0, #1
    e4cc:	e30a18f8 	movw	r1, #43256	; 0xa8f8
    e4d0:	e3401001 	movt	r1, #1
    e4d4:	e3a0206d 	mov	r2, #109	; 0x6d
    e4d8:	eb002697 	bl	17f3c <uspi_assertion_failed>
    e4dc:	e5845018 	str	r5, [r4, #24]
    e4e0:	e584701c 	str	r7, [r4, #28]
    e4e4:	e5846020 	str	r6, [r4, #32]
    e4e8:	e3550000 	cmp	r5, #0
    e4ec:	18bd80f8 	popne	{r3, r4, r5, r6, r7, pc}
    e4f0:	e30a09a8 	movw	r0, #43432	; 0xa9a8
    e4f4:	e3400001 	movt	r0, #1
    e4f8:	e30a18f8 	movw	r1, #43256	; 0xa8f8
    e4fc:	e3401001 	movt	r1, #1
    e500:	e3a02072 	mov	r2, #114	; 0x72
    e504:	eb00268c 	bl	17f3c <uspi_assertion_failed>
    e508:	e8bd80f8 	pop	{r3, r4, r5, r6, r7, pc}

0000e50c <USBRequestCallCompletionRoutine>:
    e50c:	e92d4010 	push	{r4, lr}
    e510:	e2504000 	subs	r4, r0, #0
    e514:	1a000005 	bne	e530 <USBRequestCallCompletionRoutine+0x24>
    e518:	e3090ce4 	movw	r0, #40164	; 0x9ce4
    e51c:	e3400001 	movt	r0, #1
    e520:	e30a18f8 	movw	r1, #43256	; 0xa8f8
    e524:	e3401001 	movt	r1, #1
    e528:	e3a02077 	mov	r2, #119	; 0x77
    e52c:	eb002682 	bl	17f3c <uspi_assertion_failed>
    e530:	e5943018 	ldr	r3, [r4, #24]
    e534:	e3530000 	cmp	r3, #0
    e538:	1a000005 	bne	e554 <USBRequestCallCompletionRoutine+0x48>
    e53c:	e30a09a8 	movw	r0, #43432	; 0xa9a8
    e540:	e3400001 	movt	r0, #1
    e544:	e30a18f8 	movw	r1, #43256	; 0xa8f8
    e548:	e3401001 	movt	r1, #1
    e54c:	e3a02078 	mov	r2, #120	; 0x78
    e550:	eb002679 	bl	17f3c <uspi_assertion_failed>
    e554:	e5943018 	ldr	r3, [r4, #24]
    e558:	e1a00004 	mov	r0, r4
    e55c:	e594101c 	ldr	r1, [r4, #28]
    e560:	e5942020 	ldr	r2, [r4, #32]
    e564:	e12fff33 	blx	r3
    e568:	e8bd8010 	pop	{r4, pc}

0000e56c <DeviceNameService>:
    e56c:	e92d4010 	push	{r4, lr}
    e570:	e2504000 	subs	r4, r0, #0
    e574:	1a000005 	bne	e590 <DeviceNameService+0x24>
    e578:	e3090ce4 	movw	r0, #40164	; 0x9ce4
    e57c:	e3400001 	movt	r0, #1
    e580:	e30a19cc 	movw	r1, #43468	; 0xa9cc
    e584:	e3401001 	movt	r1, #1
    e588:	e3a0201d 	mov	r2, #29
    e58c:	eb00266a 	bl	17f3c <uspi_assertion_failed>
    e590:	e3a03000 	mov	r3, #0
    e594:	e5843000 	str	r3, [r4]
    e598:	e30c363c 	movw	r3, #50748	; 0xc63c
    e59c:	e3403001 	movt	r3, #1
    e5a0:	e5933000 	ldr	r3, [r3]
    e5a4:	e3530000 	cmp	r3, #0
    e5a8:	0a000005 	beq	e5c4 <DeviceNameService+0x58>
    e5ac:	e30a09e0 	movw	r0, #43488	; 0xa9e0
    e5b0:	e3400001 	movt	r0, #1
    e5b4:	e30a19cc 	movw	r1, #43468	; 0xa9cc
    e5b8:	e3401001 	movt	r1, #1
    e5bc:	e3a02021 	mov	r2, #33	; 0x21
    e5c0:	eb00265d 	bl	17f3c <uspi_assertion_failed>
    e5c4:	e30c363c 	movw	r3, #50748	; 0xc63c
    e5c8:	e3403001 	movt	r3, #1
    e5cc:	e5834000 	str	r4, [r3]
    e5d0:	e8bd8010 	pop	{r4, pc}

0000e5d4 <_DeviceNameService>:
    e5d4:	e92d41f0 	push	{r4, r5, r6, r7, r8, lr}
    e5d8:	e2504000 	subs	r4, r0, #0
    e5dc:	1a000005 	bne	e5f8 <_DeviceNameService+0x24>
    e5e0:	e3090ce4 	movw	r0, #40164	; 0x9ce4
    e5e4:	e3400001 	movt	r0, #1
    e5e8:	e30a19cc 	movw	r1, #43468	; 0xa9cc
    e5ec:	e3401001 	movt	r1, #1
    e5f0:	e3a02027 	mov	r2, #39	; 0x27
    e5f4:	eb002650 	bl	17f3c <uspi_assertion_failed>
    e5f8:	e5943000 	ldr	r3, [r4]
    e5fc:	e3530000 	cmp	r3, #0
    e600:	0a00001a 	beq	e670 <_DeviceNameService+0x9c>
    e604:	e30a79f0 	movw	r7, #43504	; 0xa9f0
    e608:	e3407001 	movt	r7, #1
    e60c:	e30a69cc 	movw	r6, #43468	; 0xa9cc
    e610:	e3406001 	movt	r6, #1
    e614:	e3a0802d 	mov	r8, #45	; 0x2d
    e618:	e5935000 	ldr	r5, [r3]
    e61c:	e5933004 	ldr	r3, [r3, #4]
    e620:	e3530000 	cmp	r3, #0
    e624:	1a000003 	bne	e638 <_DeviceNameService+0x64>
    e628:	e1a00007 	mov	r0, r7
    e62c:	e1a01006 	mov	r1, r6
    e630:	e1a02008 	mov	r2, r8
    e634:	eb002640 	bl	17f3c <uspi_assertion_failed>
    e638:	e5943000 	ldr	r3, [r4]
    e63c:	e5930004 	ldr	r0, [r3, #4]
    e640:	eb001de3 	bl	15dd4 <free>
    e644:	e5942000 	ldr	r2, [r4]
    e648:	e3a03000 	mov	r3, #0
    e64c:	e5823004 	str	r3, [r2, #4]
    e650:	e594c000 	ldr	ip, [r4]
    e654:	e58c3008 	str	r3, [ip, #8]
    e658:	e5940000 	ldr	r0, [r4]
    e65c:	eb001ddc 	bl	15dd4 <free>
    e660:	e5845000 	str	r5, [r4]
    e664:	e1a03005 	mov	r3, r5
    e668:	e3550000 	cmp	r5, #0
    e66c:	1affffe9 	bne	e618 <_DeviceNameService+0x44>
    e670:	e30c363c 	movw	r3, #50748	; 0xc63c
    e674:	e3403001 	movt	r3, #1
    e678:	e3a02000 	mov	r2, #0
    e67c:	e5832000 	str	r2, [r3]
    e680:	e8bd81f0 	pop	{r4, r5, r6, r7, r8, pc}

0000e684 <DeviceNameServiceAddDevice>:
    e684:	e92d41f0 	push	{r4, r5, r6, r7, r8, lr}
    e688:	e1a05001 	mov	r5, r1
    e68c:	e1a07002 	mov	r7, r2
    e690:	e1a08003 	mov	r8, r3
    e694:	e2506000 	subs	r6, r0, #0
    e698:	1a000005 	bne	e6b4 <DeviceNameServiceAddDevice+0x30>
    e69c:	e3090ce4 	movw	r0, #40164	; 0x9ce4
    e6a0:	e3400001 	movt	r0, #1
    e6a4:	e30a19cc 	movw	r1, #43468	; 0xa9cc
    e6a8:	e3401001 	movt	r1, #1
    e6ac:	e3a0203d 	mov	r2, #61	; 0x3d
    e6b0:	eb002621 	bl	17f3c <uspi_assertion_failed>
    e6b4:	e3a00010 	mov	r0, #16
    e6b8:	eb001d69 	bl	15c64 <malloc>
    e6bc:	e2504000 	subs	r4, r0, #0
    e6c0:	1a000005 	bne	e6dc <DeviceNameServiceAddDevice+0x58>
    e6c4:	e3090cd0 	movw	r0, #40144	; 0x9cd0
    e6c8:	e3400001 	movt	r0, #1
    e6cc:	e30a19cc 	movw	r1, #43468	; 0xa9cc
    e6d0:	e3401001 	movt	r1, #1
    e6d4:	e3a02040 	mov	r2, #64	; 0x40
    e6d8:	eb002617 	bl	17f3c <uspi_assertion_failed>
    e6dc:	e3550000 	cmp	r5, #0
    e6e0:	1a000005 	bne	e6fc <DeviceNameServiceAddDevice+0x78>
    e6e4:	e30a0a00 	movw	r0, #43520	; 0xaa00
    e6e8:	e3400001 	movt	r0, #1
    e6ec:	e30a19cc 	movw	r1, #43468	; 0xa9cc
    e6f0:	e3401001 	movt	r1, #1
    e6f4:	e3a02042 	mov	r2, #66	; 0x42
    e6f8:	eb00260f 	bl	17f3c <uspi_assertion_failed>
    e6fc:	e1a00005 	mov	r0, r5
    e700:	eb0006fd 	bl	102fc <uspi_strlen>
    e704:	e2800001 	add	r0, r0, #1
    e708:	eb001d55 	bl	15c64 <malloc>
    e70c:	e5840004 	str	r0, [r4, #4]
    e710:	e3500000 	cmp	r0, #0
    e714:	1a000005 	bne	e730 <DeviceNameServiceAddDevice+0xac>
    e718:	e30a0a0c 	movw	r0, #43532	; 0xaa0c
    e71c:	e3400001 	movt	r0, #1
    e720:	e30a19cc 	movw	r1, #43468	; 0xa9cc
    e724:	e3401001 	movt	r1, #1
    e728:	e3a02044 	mov	r2, #68	; 0x44
    e72c:	eb002602 	bl	17f3c <uspi_assertion_failed>
    e730:	e5940004 	ldr	r0, [r4, #4]
    e734:	e1a01005 	mov	r1, r5
    e738:	eb000729 	bl	103e4 <uspi_strcpy>
    e73c:	e3570000 	cmp	r7, #0
    e740:	1a000005 	bne	e75c <DeviceNameServiceAddDevice+0xd8>
    e744:	e30a0550 	movw	r0, #42320	; 0xa550
    e748:	e3400001 	movt	r0, #1
    e74c:	e30a19cc 	movw	r1, #43468	; 0xa9cc
    e750:	e3401001 	movt	r1, #1
    e754:	e3a02047 	mov	r2, #71	; 0x47
    e758:	eb0025f7 	bl	17f3c <uspi_assertion_failed>
    e75c:	e5847008 	str	r7, [r4, #8]
    e760:	e584800c 	str	r8, [r4, #12]
    e764:	e5963000 	ldr	r3, [r6]
    e768:	e5843000 	str	r3, [r4]
    e76c:	e5864000 	str	r4, [r6]
    e770:	e8bd81f0 	pop	{r4, r5, r6, r7, r8, pc}

0000e774 <DeviceNameServiceGetDevice>:
    e774:	e92d43f8 	push	{r3, r4, r5, r6, r7, r8, r9, lr}
    e778:	e1a05001 	mov	r5, r1
    e77c:	e1a06002 	mov	r6, r2
    e780:	e2504000 	subs	r4, r0, #0
    e784:	1a000005 	bne	e7a0 <DeviceNameServiceGetDevice+0x2c>
    e788:	e3090ce4 	movw	r0, #40164	; 0x9ce4
    e78c:	e3400001 	movt	r0, #1
    e790:	e30a19cc 	movw	r1, #43468	; 0xa9cc
    e794:	e3401001 	movt	r1, #1
    e798:	e3a02052 	mov	r2, #82	; 0x52
    e79c:	eb0025e6 	bl	17f3c <uspi_assertion_failed>
    e7a0:	e3550000 	cmp	r5, #0
    e7a4:	1a000005 	bne	e7c0 <DeviceNameServiceGetDevice+0x4c>
    e7a8:	e30a0a00 	movw	r0, #43520	; 0xaa00
    e7ac:	e3400001 	movt	r0, #1
    e7b0:	e30a19cc 	movw	r1, #43468	; 0xa9cc
    e7b4:	e3401001 	movt	r1, #1
    e7b8:	e3a02053 	mov	r2, #83	; 0x53
    e7bc:	eb0025de 	bl	17f3c <uspi_assertion_failed>
    e7c0:	e5944000 	ldr	r4, [r4]
    e7c4:	e3540000 	cmp	r4, #0
    e7c8:	0a000023 	beq	e85c <DeviceNameServiceGetDevice+0xe8>
    e7cc:	e30a8a0c 	movw	r8, #43532	; 0xaa0c
    e7d0:	e3408001 	movt	r8, #1
    e7d4:	e30a79cc 	movw	r7, #43468	; 0xa9cc
    e7d8:	e3407001 	movt	r7, #1
    e7dc:	e3a09058 	mov	r9, #88	; 0x58
    e7e0:	e5943004 	ldr	r3, [r4, #4]
    e7e4:	e3530000 	cmp	r3, #0
    e7e8:	1a000003 	bne	e7fc <DeviceNameServiceGetDevice+0x88>
    e7ec:	e1a00008 	mov	r0, r8
    e7f0:	e1a01007 	mov	r1, r7
    e7f4:	e1a02009 	mov	r2, r9
    e7f8:	eb0025cf 	bl	17f3c <uspi_assertion_failed>
    e7fc:	e1a00005 	mov	r0, r5
    e800:	e5941004 	ldr	r1, [r4, #4]
    e804:	eb0006c8 	bl	1032c <uspi_strcmp>
    e808:	e3500000 	cmp	r0, #0
    e80c:	1a00000d 	bne	e848 <DeviceNameServiceGetDevice+0xd4>
    e810:	e594300c 	ldr	r3, [r4, #12]
    e814:	e1530006 	cmp	r3, r6
    e818:	1a00000a 	bne	e848 <DeviceNameServiceGetDevice+0xd4>
    e81c:	e5943008 	ldr	r3, [r4, #8]
    e820:	e3530000 	cmp	r3, #0
    e824:	1a000005 	bne	e840 <DeviceNameServiceGetDevice+0xcc>
    e828:	e30a0a20 	movw	r0, #43552	; 0xaa20
    e82c:	e3400001 	movt	r0, #1
    e830:	e30a19cc 	movw	r1, #43468	; 0xa9cc
    e834:	e3401001 	movt	r1, #1
    e838:	e3a0205c 	mov	r2, #92	; 0x5c
    e83c:	eb0025be 	bl	17f3c <uspi_assertion_failed>
    e840:	e5940008 	ldr	r0, [r4, #8]
    e844:	e8bd83f8 	pop	{r3, r4, r5, r6, r7, r8, r9, pc}
    e848:	e5944000 	ldr	r4, [r4]
    e84c:	e3540000 	cmp	r4, #0
    e850:	1affffe2 	bne	e7e0 <DeviceNameServiceGetDevice+0x6c>
    e854:	e3a00000 	mov	r0, #0
    e858:	e8bd83f8 	pop	{r3, r4, r5, r6, r7, r8, r9, pc}
    e85c:	e3a00000 	mov	r0, #0
    e860:	e8bd83f8 	pop	{r3, r4, r5, r6, r7, r8, r9, pc}

0000e864 <DeviceNameServiceGet>:
    e864:	e92d4008 	push	{r3, lr}
    e868:	e30c363c 	movw	r3, #50748	; 0xc63c
    e86c:	e3403001 	movt	r3, #1
    e870:	e5933000 	ldr	r3, [r3]
    e874:	e3530000 	cmp	r3, #0
    e878:	1a000005 	bne	e894 <DeviceNameServiceGet+0x30>
    e87c:	e30a0a34 	movw	r0, #43572	; 0xaa34
    e880:	e3400001 	movt	r0, #1
    e884:	e30a19cc 	movw	r1, #43468	; 0xa9cc
    e888:	e3401001 	movt	r1, #1
    e88c:	e3a02068 	mov	r2, #104	; 0x68
    e890:	eb0025a9 	bl	17f3c <uspi_assertion_failed>
    e894:	e30c363c 	movw	r3, #50748	; 0xc63c
    e898:	e3403001 	movt	r3, #1
    e89c:	e5930000 	ldr	r0, [r3]
    e8a0:	e8bd8008 	pop	{r3, pc}

0000e8a4 <MACAddress>:
    e8a4:	e92d4010 	push	{r4, lr}
    e8a8:	e2504000 	subs	r4, r0, #0
    e8ac:	1a000005 	bne	e8c8 <MACAddress+0x24>
    e8b0:	e3090ce4 	movw	r0, #40164	; 0x9ce4
    e8b4:	e3400001 	movt	r0, #1
    e8b8:	e30a1a44 	movw	r1, #43588	; 0xaa44
    e8bc:	e3401001 	movt	r1, #1
    e8c0:	e3a0201a 	mov	r2, #26
    e8c4:	eb00259c 	bl	17f3c <uspi_assertion_failed>
    e8c8:	e3a03000 	mov	r3, #0
    e8cc:	e5843000 	str	r3, [r4]
    e8d0:	e8bd8010 	pop	{r4, pc}

0000e8d4 <_MACAddress>:
    e8d4:	e92d4010 	push	{r4, lr}
    e8d8:	e2504000 	subs	r4, r0, #0
    e8dc:	1a000005 	bne	e8f8 <_MACAddress+0x24>
    e8e0:	e3090ce4 	movw	r0, #40164	; 0x9ce4
    e8e4:	e3400001 	movt	r0, #1
    e8e8:	e30a1a44 	movw	r1, #43588	; 0xaa44
    e8ec:	e3401001 	movt	r1, #1
    e8f0:	e3a02028 	mov	r2, #40	; 0x28
    e8f4:	eb002590 	bl	17f3c <uspi_assertion_failed>
    e8f8:	e3a03000 	mov	r3, #0
    e8fc:	e5843000 	str	r3, [r4]
    e900:	e8bd8010 	pop	{r4, pc}

0000e904 <MACAddressSet>:
    e904:	e92d4038 	push	{r3, r4, r5, lr}
    e908:	e1a05001 	mov	r5, r1
    e90c:	e2504000 	subs	r4, r0, #0
    e910:	1a000005 	bne	e92c <MACAddressSet+0x28>
    e914:	e3090ce4 	movw	r0, #40164	; 0x9ce4
    e918:	e3400001 	movt	r0, #1
    e91c:	e30a1a44 	movw	r1, #43588	; 0xaa44
    e920:	e3401001 	movt	r1, #1
    e924:	e3a02037 	mov	r2, #55	; 0x37
    e928:	eb002583 	bl	17f3c <uspi_assertion_failed>
    e92c:	e3550000 	cmp	r5, #0
    e930:	1a000005 	bne	e94c <MACAddressSet+0x48>
    e934:	e30a0a54 	movw	r0, #43604	; 0xaa54
    e938:	e3400001 	movt	r0, #1
    e93c:	e30a1a44 	movw	r1, #43588	; 0xaa44
    e940:	e3401001 	movt	r1, #1
    e944:	e3a02038 	mov	r2, #56	; 0x38
    e948:	eb00257b 	bl	17f3c <uspi_assertion_failed>
    e94c:	e2840004 	add	r0, r4, #4
    e950:	e1a01005 	mov	r1, r5
    e954:	e3a02006 	mov	r2, #6
    e958:	eb000640 	bl	10260 <uspi_memcpy>
    e95c:	e3a03001 	mov	r3, #1
    e960:	e5843000 	str	r3, [r4]
    e964:	e8bd8038 	pop	{r3, r4, r5, pc}

0000e968 <MACAddress2>:
    e968:	e92d4038 	push	{r3, r4, r5, lr}
    e96c:	e1a04001 	mov	r4, r1
    e970:	e2505000 	subs	r5, r0, #0
    e974:	1a000005 	bne	e990 <MACAddress2+0x28>
    e978:	e3090ce4 	movw	r0, #40164	; 0x9ce4
    e97c:	e3400001 	movt	r0, #1
    e980:	e30a1a44 	movw	r1, #43588	; 0xaa44
    e984:	e3401001 	movt	r1, #1
    e988:	e3a02021 	mov	r2, #33	; 0x21
    e98c:	eb00256a 	bl	17f3c <uspi_assertion_failed>
    e990:	e1a00005 	mov	r0, r5
    e994:	e1a01004 	mov	r1, r4
    e998:	ebffffd9 	bl	e904 <MACAddressSet>
    e99c:	e8bd8038 	pop	{r3, r4, r5, pc}

0000e9a0 <MACAddressSetBroadcast>:
    e9a0:	e92d4010 	push	{r4, lr}
    e9a4:	e2504000 	subs	r4, r0, #0
    e9a8:	1a000005 	bne	e9c4 <MACAddressSetBroadcast+0x24>
    e9ac:	e3090ce4 	movw	r0, #40164	; 0x9ce4
    e9b0:	e3400001 	movt	r0, #1
    e9b4:	e30a1a44 	movw	r1, #43588	; 0xaa44
    e9b8:	e3401001 	movt	r1, #1
    e9bc:	e3a02040 	mov	r2, #64	; 0x40
    e9c0:	eb00255d 	bl	17f3c <uspi_assertion_failed>
    e9c4:	e2840004 	add	r0, r4, #4
    e9c8:	e3a010ff 	mov	r1, #255	; 0xff
    e9cc:	e3a02006 	mov	r2, #6
    e9d0:	eb00061a 	bl	10240 <uspi_memset>
    e9d4:	e3a03001 	mov	r3, #1
    e9d8:	e5843000 	str	r3, [r4]
    e9dc:	e8bd8010 	pop	{r4, pc}

0000e9e0 <MACAddressGet>:
    e9e0:	e92d4010 	push	{r4, lr}
    e9e4:	e2504000 	subs	r4, r0, #0
    e9e8:	1a000005 	bne	ea04 <MACAddressGet+0x24>
    e9ec:	e3090ce4 	movw	r0, #40164	; 0x9ce4
    e9f0:	e3400001 	movt	r0, #1
    e9f4:	e30a1a44 	movw	r1, #43588	; 0xaa44
    e9f8:	e3401001 	movt	r1, #1
    e9fc:	e3a02048 	mov	r2, #72	; 0x48
    ea00:	eb00254d 	bl	17f3c <uspi_assertion_failed>
    ea04:	e5943000 	ldr	r3, [r4]
    ea08:	e3530000 	cmp	r3, #0
    ea0c:	1a000005 	bne	ea28 <MACAddressGet+0x48>
    ea10:	e30a027c 	movw	r0, #41596	; 0xa27c
    ea14:	e3400001 	movt	r0, #1
    ea18:	e30a1a44 	movw	r1, #43588	; 0xaa44
    ea1c:	e3401001 	movt	r1, #1
    ea20:	e3a02049 	mov	r2, #73	; 0x49
    ea24:	eb002544 	bl	17f3c <uspi_assertion_failed>
    ea28:	e2840004 	add	r0, r4, #4
    ea2c:	e8bd8010 	pop	{r4, pc}

0000ea30 <MACAddressIsEqual>:
    ea30:	e92d4038 	push	{r3, r4, r5, lr}
    ea34:	e1a05001 	mov	r5, r1
    ea38:	e2504000 	subs	r4, r0, #0
    ea3c:	1a000005 	bne	ea58 <MACAddressIsEqual+0x28>
    ea40:	e3090ce4 	movw	r0, #40164	; 0x9ce4
    ea44:	e3400001 	movt	r0, #1
    ea48:	e30a1a44 	movw	r1, #43588	; 0xaa44
    ea4c:	e3401001 	movt	r1, #1
    ea50:	e3a0202f 	mov	r2, #47	; 0x2f
    ea54:	eb002538 	bl	17f3c <uspi_assertion_failed>
    ea58:	e5943000 	ldr	r3, [r4]
    ea5c:	e3530000 	cmp	r3, #0
    ea60:	1a000005 	bne	ea7c <MACAddressIsEqual+0x4c>
    ea64:	e30a027c 	movw	r0, #41596	; 0xa27c
    ea68:	e3400001 	movt	r0, #1
    ea6c:	e30a1a44 	movw	r1, #43588	; 0xaa44
    ea70:	e3401001 	movt	r1, #1
    ea74:	e3a02030 	mov	r2, #48	; 0x30
    ea78:	eb00252f 	bl	17f3c <uspi_assertion_failed>
    ea7c:	e1a00005 	mov	r0, r5
    ea80:	ebffffd6 	bl	e9e0 <MACAddressGet>
    ea84:	e1a01000 	mov	r1, r0
    ea88:	e2840004 	add	r0, r4, #4
    ea8c:	e3a02006 	mov	r2, #6
    ea90:	eb0005fb 	bl	10284 <uspi_memcmp>
    ea94:	e16f0f10 	clz	r0, r0
    ea98:	e1a002a0 	lsr	r0, r0, #5
    ea9c:	e8bd8038 	pop	{r3, r4, r5, pc}

0000eaa0 <MACAddressCopyTo>:
    eaa0:	e92d4038 	push	{r3, r4, r5, lr}
    eaa4:	e1a05001 	mov	r5, r1
    eaa8:	e2504000 	subs	r4, r0, #0
    eaac:	1a000005 	bne	eac8 <MACAddressCopyTo+0x28>
    eab0:	e3090ce4 	movw	r0, #40164	; 0x9ce4
    eab4:	e3400001 	movt	r0, #1
    eab8:	e30a1a44 	movw	r1, #43588	; 0xaa44
    eabc:	e3401001 	movt	r1, #1
    eac0:	e3a02050 	mov	r2, #80	; 0x50
    eac4:	eb00251c 	bl	17f3c <uspi_assertion_failed>
    eac8:	e5943000 	ldr	r3, [r4]
    eacc:	e3530000 	cmp	r3, #0
    ead0:	1a000005 	bne	eaec <MACAddressCopyTo+0x4c>
    ead4:	e30a027c 	movw	r0, #41596	; 0xa27c
    ead8:	e3400001 	movt	r0, #1
    eadc:	e30a1a44 	movw	r1, #43588	; 0xaa44
    eae0:	e3401001 	movt	r1, #1
    eae4:	e3a02051 	mov	r2, #81	; 0x51
    eae8:	eb002513 	bl	17f3c <uspi_assertion_failed>
    eaec:	e3550000 	cmp	r5, #0
    eaf0:	1a000005 	bne	eb0c <MACAddressCopyTo+0x6c>
    eaf4:	e30a0d44 	movw	r0, #44356	; 0xad44
    eaf8:	e3400001 	movt	r0, #1
    eafc:	e30a1a44 	movw	r1, #43588	; 0xaa44
    eb00:	e3401001 	movt	r1, #1
    eb04:	e3a02052 	mov	r2, #82	; 0x52
    eb08:	eb00250b 	bl	17f3c <uspi_assertion_failed>
    eb0c:	e1a00005 	mov	r0, r5
    eb10:	e2841004 	add	r1, r4, #4
    eb14:	e3a02006 	mov	r2, #6
    eb18:	eb0005d0 	bl	10260 <uspi_memcpy>
    eb1c:	e8bd8038 	pop	{r3, r4, r5, pc}

0000eb20 <MACAddressIsBroadcast>:
    eb20:	e92d4010 	push	{r4, lr}
    eb24:	e2504000 	subs	r4, r0, #0
    eb28:	1a000005 	bne	eb44 <MACAddressIsBroadcast+0x24>
    eb2c:	e3090ce4 	movw	r0, #40164	; 0x9ce4
    eb30:	e3400001 	movt	r0, #1
    eb34:	e30a1a44 	movw	r1, #43588	; 0xaa44
    eb38:	e3401001 	movt	r1, #1
    eb3c:	e3a02059 	mov	r2, #89	; 0x59
    eb40:	eb0024fd 	bl	17f3c <uspi_assertion_failed>
    eb44:	e5943000 	ldr	r3, [r4]
    eb48:	e3530000 	cmp	r3, #0
    eb4c:	1a000005 	bne	eb68 <MACAddressIsBroadcast+0x48>
    eb50:	e30a027c 	movw	r0, #41596	; 0xa27c
    eb54:	e3400001 	movt	r0, #1
    eb58:	e30a1a44 	movw	r1, #43588	; 0xaa44
    eb5c:	e3401001 	movt	r1, #1
    eb60:	e3a0205a 	mov	r2, #90	; 0x5a
    eb64:	eb0024f4 	bl	17f3c <uspi_assertion_failed>
    eb68:	e5d43004 	ldrb	r3, [r4, #4]
    eb6c:	e35300ff 	cmp	r3, #255	; 0xff
    eb70:	1a000008 	bne	eb98 <MACAddressIsBroadcast+0x78>
    eb74:	e2843004 	add	r3, r4, #4
    eb78:	e2844009 	add	r4, r4, #9
    eb7c:	e5f32001 	ldrb	r2, [r3, #1]!
    eb80:	e35200ff 	cmp	r2, #255	; 0xff
    eb84:	1a000005 	bne	eba0 <MACAddressIsBroadcast+0x80>
    eb88:	e1530004 	cmp	r3, r4
    eb8c:	1afffffa 	bne	eb7c <MACAddressIsBroadcast+0x5c>
    eb90:	e3a00001 	mov	r0, #1
    eb94:	e8bd8010 	pop	{r4, pc}
    eb98:	e3a00000 	mov	r0, #0
    eb9c:	e8bd8010 	pop	{r4, pc}
    eba0:	e3a00000 	mov	r0, #0
    eba4:	e8bd8010 	pop	{r4, pc}

0000eba8 <MACAddressGetSize>:
    eba8:	e3a00006 	mov	r0, #6
    ebac:	e12fff1e 	bx	lr

0000ebb0 <MACAddressFormat>:
    ebb0:	e92d4030 	push	{r4, r5, lr}
    ebb4:	e24dd014 	sub	sp, sp, #20
    ebb8:	e1a05001 	mov	r5, r1
    ebbc:	e2504000 	subs	r4, r0, #0
    ebc0:	1a000005 	bne	ebdc <MACAddressFormat+0x2c>
    ebc4:	e3090ce4 	movw	r0, #40164	; 0x9ce4
    ebc8:	e3400001 	movt	r0, #1
    ebcc:	e30a1a44 	movw	r1, #43588	; 0xaa44
    ebd0:	e3401001 	movt	r1, #1
    ebd4:	e3a0206e 	mov	r2, #110	; 0x6e
    ebd8:	eb0024d7 	bl	17f3c <uspi_assertion_failed>
    ebdc:	e5943000 	ldr	r3, [r4]
    ebe0:	e3530000 	cmp	r3, #0
    ebe4:	1a000005 	bne	ec00 <MACAddressFormat+0x50>
    ebe8:	e30a027c 	movw	r0, #41596	; 0xa27c
    ebec:	e3400001 	movt	r0, #1
    ebf0:	e30a1a44 	movw	r1, #43588	; 0xaa44
    ebf4:	e3401001 	movt	r1, #1
    ebf8:	e3a0206f 	mov	r2, #111	; 0x6f
    ebfc:	eb0024ce 	bl	17f3c <uspi_assertion_failed>
    ec00:	e3550000 	cmp	r5, #0
    ec04:	1a000005 	bne	ec20 <MACAddressFormat+0x70>
    ec08:	e30a05dc 	movw	r0, #42460	; 0xa5dc
    ec0c:	e3400001 	movt	r0, #1
    ec10:	e30a1a44 	movw	r1, #43588	; 0xaa44
    ec14:	e3401001 	movt	r1, #1
    ec18:	e3a02071 	mov	r2, #113	; 0x71
    ec1c:	eb0024c6 	bl	17f3c <uspi_assertion_failed>
    ec20:	e5d42004 	ldrb	r2, [r4, #4]
    ec24:	e5d43005 	ldrb	r3, [r4, #5]
    ec28:	e5d41006 	ldrb	r1, [r4, #6]
    ec2c:	e58d1000 	str	r1, [sp]
    ec30:	e5d41007 	ldrb	r1, [r4, #7]
    ec34:	e58d1004 	str	r1, [sp, #4]
    ec38:	e5d41008 	ldrb	r1, [r4, #8]
    ec3c:	e58d1008 	str	r1, [sp, #8]
    ec40:	e5d41009 	ldrb	r1, [r4, #9]
    ec44:	e58d100c 	str	r1, [sp, #12]
    ec48:	e1a00005 	mov	r0, r5
    ec4c:	e30a1a64 	movw	r1, #43620	; 0xaa64
    ec50:	e3401001 	movt	r1, #1
    ec54:	eb000565 	bl	101f0 <StringFormat>
    ec58:	e28dd014 	add	sp, sp, #20
    ec5c:	e8bd8030 	pop	{r4, r5, pc}

0000ec60 <SMSC951xDevice>:
    ec60:	e92d4038 	push	{r3, r4, r5, lr}
    ec64:	e1a05001 	mov	r5, r1
    ec68:	e2504000 	subs	r4, r0, #0
    ec6c:	1a000005 	bne	ec88 <SMSC951xDevice+0x28>
    ec70:	e3090ce4 	movw	r0, #40164	; 0x9ce4
    ec74:	e3400001 	movt	r0, #1
    ec78:	e30a1a90 	movw	r1, #43664	; 0xaa90
    ec7c:	e3401001 	movt	r1, #1
    ec80:	e3a02088 	mov	r2, #136	; 0x88
    ec84:	eb0024ac 	bl	17f3c <uspi_assertion_failed>
    ec88:	e1a00004 	mov	r0, r4
    ec8c:	e1a01005 	mov	r1, r5
    ec90:	ebfff8b0 	bl	cf58 <USBDeviceCopy>
    ec94:	e30f30d4 	movw	r3, #61652	; 0xf0d4
    ec98:	e3403000 	movt	r3, #0
    ec9c:	e5843000 	str	r3, [r4]
    eca0:	e3a03000 	mov	r3, #0
    eca4:	e584303c 	str	r3, [r4, #60]	; 0x3c
    eca8:	e5843040 	str	r3, [r4, #64]	; 0x40
    ecac:	e5843050 	str	r3, [r4, #80]	; 0x50
    ecb0:	e3a00d19 	mov	r0, #1600	; 0x640
    ecb4:	eb001bea 	bl	15c64 <malloc>
    ecb8:	e5840050 	str	r0, [r4, #80]	; 0x50
    ecbc:	e3500000 	cmp	r0, #0
    ecc0:	18bd8038 	popne	{r3, r4, r5, pc}
    ecc4:	e30a0a9c 	movw	r0, #43676	; 0xaa9c
    ecc8:	e3400001 	movt	r0, #1
    eccc:	e30a1a90 	movw	r1, #43664	; 0xaa90
    ecd0:	e3401001 	movt	r1, #1
    ecd4:	e3a02092 	mov	r2, #146	; 0x92
    ecd8:	eb002497 	bl	17f3c <uspi_assertion_failed>
    ecdc:	e8bd8038 	pop	{r3, r4, r5, pc}

0000ece0 <_SMSC951xDevice>:
    ece0:	e92d4010 	push	{r4, lr}
    ece4:	e2504000 	subs	r4, r0, #0
    ece8:	1a000005 	bne	ed04 <_SMSC951xDevice+0x24>
    ecec:	e3090ce4 	movw	r0, #40164	; 0x9ce4
    ecf0:	e3400001 	movt	r0, #1
    ecf4:	e30a1a90 	movw	r1, #43664	; 0xaa90
    ecf8:	e3401001 	movt	r1, #1
    ecfc:	e3a02097 	mov	r2, #151	; 0x97
    ed00:	eb00248d 	bl	17f3c <uspi_assertion_failed>
    ed04:	e5940050 	ldr	r0, [r4, #80]	; 0x50
    ed08:	e3500000 	cmp	r0, #0
    ed0c:	0a000002 	beq	ed1c <_SMSC951xDevice+0x3c>
    ed10:	eb001c2f 	bl	15dd4 <free>
    ed14:	e3a03000 	mov	r3, #0
    ed18:	e5843050 	str	r3, [r4, #80]	; 0x50
    ed1c:	e5940040 	ldr	r0, [r4, #64]	; 0x40
    ed20:	e3500000 	cmp	r0, #0
    ed24:	0a000004 	beq	ed3c <_SMSC951xDevice+0x5c>
    ed28:	ebfffc42 	bl	de38 <_USBEndpoint>
    ed2c:	e5940040 	ldr	r0, [r4, #64]	; 0x40
    ed30:	eb001c27 	bl	15dd4 <free>
    ed34:	e3a03000 	mov	r3, #0
    ed38:	e5843040 	str	r3, [r4, #64]	; 0x40
    ed3c:	e594003c 	ldr	r0, [r4, #60]	; 0x3c
    ed40:	e3500000 	cmp	r0, #0
    ed44:	0a000004 	beq	ed5c <_SMSC951xDevice+0x7c>
    ed48:	ebfffc3a 	bl	de38 <_USBEndpoint>
    ed4c:	e594003c 	ldr	r0, [r4, #60]	; 0x3c
    ed50:	eb001c1f 	bl	15dd4 <free>
    ed54:	e3a03000 	mov	r3, #0
    ed58:	e584303c 	str	r3, [r4, #60]	; 0x3c
    ed5c:	e1a00004 	mov	r0, r4
    ed60:	ebfff8f4 	bl	d138 <_USBDevice>
    ed64:	e8bd8010 	pop	{r4, pc}

0000ed68 <SMSC951xDeviceGetMACAddress>:
    ed68:	e92d4010 	push	{r4, lr}
    ed6c:	e2504000 	subs	r4, r0, #0
    ed70:	1a000005 	bne	ed8c <SMSC951xDeviceGetMACAddress+0x24>
    ed74:	e3090ce4 	movw	r0, #40164	; 0x9ce4
    ed78:	e3400001 	movt	r0, #1
    ed7c:	e30a1a90 	movw	r1, #43664	; 0xaa90
    ed80:	e3401001 	movt	r1, #1
    ed84:	e3002145 	movw	r2, #325	; 0x145
    ed88:	eb00246b 	bl	17f3c <uspi_assertion_failed>
    ed8c:	e2840044 	add	r0, r4, #68	; 0x44
    ed90:	e8bd8010 	pop	{r4, pc}

0000ed94 <SMSC951xDeviceSendFrame>:
    ed94:	e92d4070 	push	{r4, r5, r6, lr}
    ed98:	e1a06001 	mov	r6, r1
    ed9c:	e1a05002 	mov	r5, r2
    eda0:	e2504000 	subs	r4, r0, #0
    eda4:	1a000005 	bne	edc0 <SMSC951xDeviceSendFrame+0x2c>
    eda8:	e3090ce4 	movw	r0, #40164	; 0x9ce4
    edac:	e3400001 	movt	r0, #1
    edb0:	e30a1a90 	movw	r1, #43664	; 0xaa90
    edb4:	e3401001 	movt	r1, #1
    edb8:	e3a02f53 	mov	r2, #332	; 0x14c
    edbc:	eb00245e 	bl	17f3c <uspi_assertion_failed>
    edc0:	e3003637 	movw	r3, #1591	; 0x637
    edc4:	e1550003 	cmp	r5, r3
    edc8:	8a00002c 	bhi	ee80 <SMSC951xDeviceSendFrame+0xec>
    edcc:	e5943050 	ldr	r3, [r4, #80]	; 0x50
    edd0:	e3530000 	cmp	r3, #0
    edd4:	1a000005 	bne	edf0 <SMSC951xDeviceSendFrame+0x5c>
    edd8:	e30a0a9c 	movw	r0, #43676	; 0xaa9c
    eddc:	e3400001 	movt	r0, #1
    ede0:	e30a1a90 	movw	r1, #43664	; 0xaa90
    ede4:	e3401001 	movt	r1, #1
    ede8:	e3002153 	movw	r2, #339	; 0x153
    edec:	eb002452 	bl	17f3c <uspi_assertion_failed>
    edf0:	e3560000 	cmp	r6, #0
    edf4:	1a000005 	bne	ee10 <SMSC951xDeviceSendFrame+0x7c>
    edf8:	e30a0d44 	movw	r0, #44356	; 0xad44
    edfc:	e3400001 	movt	r0, #1
    ee00:	e30a1a90 	movw	r1, #43664	; 0xaa90
    ee04:	e3401001 	movt	r1, #1
    ee08:	e3a02f55 	mov	r2, #340	; 0x154
    ee0c:	eb00244a 	bl	17f3c <uspi_assertion_failed>
    ee10:	e5940050 	ldr	r0, [r4, #80]	; 0x50
    ee14:	e2800008 	add	r0, r0, #8
    ee18:	e1a01006 	mov	r1, r6
    ee1c:	e1a02005 	mov	r2, r5
    ee20:	eb00050e 	bl	10260 <uspi_memcpy>
    ee24:	e5943050 	ldr	r3, [r4, #80]	; 0x50
    ee28:	e3852a03 	orr	r2, r5, #12288	; 0x3000
    ee2c:	e5832000 	str	r2, [r3]
    ee30:	e5943050 	ldr	r3, [r4, #80]	; 0x50
    ee34:	e5835004 	str	r5, [r3, #4]
    ee38:	e5943040 	ldr	r3, [r4, #64]	; 0x40
    ee3c:	e3530000 	cmp	r3, #0
    ee40:	1a000005 	bne	ee5c <SMSC951xDeviceSendFrame+0xc8>
    ee44:	e30a0ab4 	movw	r0, #43700	; 0xaab4
    ee48:	e3400001 	movt	r0, #1
    ee4c:	e30a1a90 	movw	r1, #43664	; 0xaa90
    ee50:	e3401001 	movt	r1, #1
    ee54:	e300215a 	movw	r2, #346	; 0x15a
    ee58:	eb002437 	bl	17f3c <uspi_assertion_failed>
    ee5c:	e1a00004 	mov	r0, r4
    ee60:	ebfff98c 	bl	d498 <USBDeviceGetHost>
    ee64:	e5941040 	ldr	r1, [r4, #64]	; 0x40
    ee68:	e5942050 	ldr	r2, [r4, #80]	; 0x50
    ee6c:	e2853008 	add	r3, r5, #8
    ee70:	ebffedc9 	bl	a59c <DWHCIDeviceTransfer>
    ee74:	e1e00000 	mvn	r0, r0
    ee78:	e1a00fa0 	lsr	r0, r0, #31
    ee7c:	e8bd8070 	pop	{r4, r5, r6, pc}
    ee80:	e3a00000 	mov	r0, #0
    ee84:	e8bd8070 	pop	{r4, r5, r6, pc}

0000ee88 <SMSC951xDeviceReceiveFrame>:
    ee88:	e92d4070 	push	{r4, r5, r6, lr}
    ee8c:	e24dd030 	sub	sp, sp, #48	; 0x30
    ee90:	e1a04001 	mov	r4, r1
    ee94:	e1a06002 	mov	r6, r2
    ee98:	e2505000 	subs	r5, r0, #0
    ee9c:	1a000005 	bne	eeb8 <SMSC951xDeviceReceiveFrame+0x30>
    eea0:	e3090ce4 	movw	r0, #40164	; 0x9ce4
    eea4:	e3400001 	movt	r0, #1
    eea8:	e30a1a90 	movw	r1, #43664	; 0xaa90
    eeac:	e3401001 	movt	r1, #1
    eeb0:	e3a02e16 	mov	r2, #352	; 0x160
    eeb4:	eb002420 	bl	17f3c <uspi_assertion_failed>
    eeb8:	e595303c 	ldr	r3, [r5, #60]	; 0x3c
    eebc:	e3530000 	cmp	r3, #0
    eec0:	1a000005 	bne	eedc <SMSC951xDeviceReceiveFrame+0x54>
    eec4:	e30a0ad4 	movw	r0, #43732	; 0xaad4
    eec8:	e3400001 	movt	r0, #1
    eecc:	e30a1a90 	movw	r1, #43664	; 0xaa90
    eed0:	e3401001 	movt	r1, #1
    eed4:	e3002162 	movw	r2, #354	; 0x162
    eed8:	eb002417 	bl	17f3c <uspi_assertion_failed>
    eedc:	e3540000 	cmp	r4, #0
    eee0:	1a000005 	bne	eefc <SMSC951xDeviceReceiveFrame+0x74>
    eee4:	e30a0d44 	movw	r0, #44356	; 0xad44
    eee8:	e3400001 	movt	r0, #1
    eeec:	e30a1a90 	movw	r1, #43664	; 0xaa90
    eef0:	e3401001 	movt	r1, #1
    eef4:	e3002163 	movw	r2, #355	; 0x163
    eef8:	eb00240f 	bl	17f3c <uspi_assertion_failed>
    eefc:	e595103c 	ldr	r1, [r5, #60]	; 0x3c
    ef00:	e3a03000 	mov	r3, #0
    ef04:	e58d3000 	str	r3, [sp]
    ef08:	e28d000c 	add	r0, sp, #12
    ef0c:	e1a02004 	mov	r2, r4
    ef10:	e3a03d19 	mov	r3, #1600	; 0x640
    ef14:	ebfffc9e 	bl	e194 <USBRequest>
    ef18:	e1a00005 	mov	r0, r5
    ef1c:	ebfff95d 	bl	d498 <USBDeviceGetHost>
    ef20:	e28d100c 	add	r1, sp, #12
    ef24:	ebffec76 	bl	a104 <DWHCIDeviceSubmitBlockingRequest>
    ef28:	e2505000 	subs	r5, r0, #0
    ef2c:	1a000002 	bne	ef3c <SMSC951xDeviceReceiveFrame+0xb4>
    ef30:	e28d000c 	add	r0, sp, #12
    ef34:	ebfffcc2 	bl	e244 <_USBRequest>
    ef38:	ea000040 	b	f040 <SMSC951xDeviceReceiveFrame+0x1b8>
    ef3c:	e28d000c 	add	r0, sp, #12
    ef40:	ebfffd05 	bl	e35c <USBRequestGetResultLength>
    ef44:	e3500003 	cmp	r0, #3
    ef48:	8a000003 	bhi	ef5c <SMSC951xDeviceReceiveFrame+0xd4>
    ef4c:	e28d000c 	add	r0, sp, #12
    ef50:	ebfffcbb 	bl	e244 <_USBRequest>
    ef54:	e3a05000 	mov	r5, #0
    ef58:	ea000038 	b	f040 <SMSC951xDeviceReceiveFrame+0x1b8>
    ef5c:	e5943000 	ldr	r3, [r4]
    ef60:	e30910de 	movw	r1, #37086	; 0x90de
    ef64:	e3441000 	movt	r1, #16384	; 0x4000
    ef68:	e0011003 	and	r1, r1, r3
    ef6c:	e3510000 	cmp	r1, #0
    ef70:	0a000009 	beq	ef9c <SMSC951xDeviceReceiveFrame+0x114>
    ef74:	e30a0a84 	movw	r0, #43652	; 0xaa84
    ef78:	e3400001 	movt	r0, #1
    ef7c:	e3a01002 	mov	r1, #2
    ef80:	e30a2af4 	movw	r2, #43764	; 0xaaf4
    ef84:	e3402001 	movt	r2, #1
    ef88:	eb0023d9 	bl	17ef4 <LogWrite>
    ef8c:	e28d000c 	add	r0, sp, #12
    ef90:	ebfffcab 	bl	e244 <_USBRequest>
    ef94:	e3a05000 	mov	r5, #0
    ef98:	ea000028 	b	f040 <SMSC951xDeviceReceiveFrame+0x1b8>
    ef9c:	e7ed5853 	ubfx	r5, r3, #16, #14
    efa0:	e2400004 	sub	r0, r0, #4
    efa4:	e1500005 	cmp	r0, r5
    efa8:	0a000005 	beq	efc4 <SMSC951xDeviceReceiveFrame+0x13c>
    efac:	e30a0b0c 	movw	r0, #43788	; 0xab0c
    efb0:	e3400001 	movt	r0, #1
    efb4:	e30a1a90 	movw	r1, #43664	; 0xaa90
    efb8:	e3401001 	movt	r1, #1
    efbc:	e3002181 	movw	r2, #385	; 0x181
    efc0:	eb0023dd 	bl	17f3c <uspi_assertion_failed>
    efc4:	e3550004 	cmp	r5, #4
    efc8:	8a000014 	bhi	f020 <SMSC951xDeviceReceiveFrame+0x198>
    efcc:	e30a0b2c 	movw	r0, #43820	; 0xab2c
    efd0:	e3400001 	movt	r0, #1
    efd4:	e30a1a90 	movw	r1, #43664	; 0xaa90
    efd8:	e3401001 	movt	r1, #1
    efdc:	e3002182 	movw	r2, #386	; 0x182
    efe0:	eb0023d5 	bl	17f3c <uspi_assertion_failed>
    efe4:	e28d000c 	add	r0, sp, #12
    efe8:	ebfffc95 	bl	e244 <_USBRequest>
    efec:	e3a05000 	mov	r5, #0
    eff0:	ea000012 	b	f040 <SMSC951xDeviceReceiveFrame+0x1b8>
    eff4:	e30a0b40 	movw	r0, #43840	; 0xab40
    eff8:	e3400001 	movt	r0, #1
    effc:	e30a1a90 	movw	r1, #43664	; 0xaa90
    f000:	e3401001 	movt	r1, #1
    f004:	e300218f 	movw	r2, #399	; 0x18f
    f008:	eb0023cb 	bl	17f3c <uspi_assertion_failed>
    f00c:	e5865000 	str	r5, [r6]
    f010:	e28d000c 	add	r0, sp, #12
    f014:	ebfffc8a 	bl	e244 <_USBRequest>
    f018:	e3a05001 	mov	r5, #1
    f01c:	ea000007 	b	f040 <SMSC951xDeviceReceiveFrame+0x1b8>
    f020:	e2455004 	sub	r5, r5, #4
    f024:	e1a00004 	mov	r0, r4
    f028:	e2841004 	add	r1, r4, #4
    f02c:	e1a02005 	mov	r2, r5
    f030:	eb00048a 	bl	10260 <uspi_memcpy>
    f034:	e3560000 	cmp	r6, #0
    f038:	1afffff3 	bne	f00c <SMSC951xDeviceReceiveFrame+0x184>
    f03c:	eaffffec 	b	eff4 <SMSC951xDeviceReceiveFrame+0x16c>
    f040:	e1a00005 	mov	r0, r5
    f044:	e28dd030 	add	sp, sp, #48	; 0x30
    f048:	e8bd8070 	pop	{r4, r5, r6, pc}

0000f04c <SMSC951xDeviceWriteReg>:
    f04c:	e92d4070 	push	{r4, r5, r6, lr}
    f050:	e24dd018 	sub	sp, sp, #24
    f054:	e1a04001 	mov	r4, r1
    f058:	e58d2014 	str	r2, [sp, #20]
    f05c:	e2505000 	subs	r5, r0, #0
    f060:	1a000005 	bne	f07c <SMSC951xDeviceWriteReg+0x30>
    f064:	e3090ce4 	movw	r0, #40164	; 0x9ce4
    f068:	e3400001 	movt	r0, #1
    f06c:	e30a1a90 	movw	r1, #43664	; 0xaa90
    f070:	e3401001 	movt	r1, #1
    f074:	e3002199 	movw	r2, #409	; 0x199
    f078:	eb0023af 	bl	17f3c <uspi_assertion_failed>
    f07c:	e1a00005 	mov	r0, r5
    f080:	ebfff904 	bl	d498 <USBDeviceGetHost>
    f084:	e1a06000 	mov	r6, r0
    f088:	e1a00005 	mov	r0, r5
    f08c:	ebfff8ed 	bl	d448 <USBDeviceGetEndpoint0>
    f090:	e1a01000 	mov	r1, r0
    f094:	e3a03000 	mov	r3, #0
    f098:	e58d3000 	str	r3, [sp]
    f09c:	e6ff4074 	uxth	r4, r4
    f0a0:	e58d4004 	str	r4, [sp, #4]
    f0a4:	e28d3014 	add	r3, sp, #20
    f0a8:	e58d3008 	str	r3, [sp, #8]
    f0ac:	e3a03004 	mov	r3, #4
    f0b0:	e58d300c 	str	r3, [sp, #12]
    f0b4:	e1a00006 	mov	r0, r6
    f0b8:	e3a02040 	mov	r2, #64	; 0x40
    f0bc:	e3a030a0 	mov	r3, #160	; 0xa0
    f0c0:	ebffeca7 	bl	a364 <DWHCIDeviceControlMessage>
    f0c4:	e1e00000 	mvn	r0, r0
    f0c8:	e1a00fa0 	lsr	r0, r0, #31
    f0cc:	e28dd018 	add	sp, sp, #24
    f0d0:	e8bd8070 	pop	{r4, r5, r6, pc}

0000f0d4 <SMSC951xDeviceConfigure>:
    f0d4:	e92d4ff0 	push	{r4, r5, r6, r7, r8, r9, sl, fp, lr}
    f0d8:	e24dd02c 	sub	sp, sp, #44	; 0x2c
    f0dc:	e2504000 	subs	r4, r0, #0
    f0e0:	1a000005 	bne	f0fc <SMSC951xDeviceConfigure+0x28>
    f0e4:	e3090ce4 	movw	r0, #40164	; 0x9ce4
    f0e8:	e3400001 	movt	r0, #1
    f0ec:	e30a1a90 	movw	r1, #43664	; 0xaa90
    f0f0:	e3401001 	movt	r1, #1
    f0f4:	e3a020b3 	mov	r2, #179	; 0xb3
    f0f8:	eb00238f 	bl	17f3c <uspi_assertion_failed>
    f0fc:	e28d0020 	add	r0, sp, #32
    f100:	eb00235f 	bl	17e84 <GetMACAddress>
    f104:	e2505000 	subs	r5, r0, #0
    f108:	0a000018 	beq	f170 <SMSC951xDeviceConfigure+0x9c>
    f10c:	e2846044 	add	r6, r4, #68	; 0x44
    f110:	e1a00006 	mov	r0, r6
    f114:	e28d1020 	add	r1, sp, #32
    f118:	ebfffdf9 	bl	e904 <MACAddressSet>
    f11c:	e28d0014 	add	r0, sp, #20
    f120:	eb0001a2 	bl	f7b0 <String>
    f124:	e1a00006 	mov	r0, r6
    f128:	e28d1014 	add	r1, sp, #20
    f12c:	ebfffe9f 	bl	ebb0 <MACAddressFormat>
    f130:	e28d0014 	add	r0, sp, #20
    f134:	eb0001cd 	bl	f870 <StringGet>
    f138:	e1a03000 	mov	r3, r0
    f13c:	e30a0a84 	movw	r0, #43652	; 0xaa84
    f140:	e3400001 	movt	r0, #1
    f144:	e3a01004 	mov	r1, #4
    f148:	e30a2b54 	movw	r2, #43860	; 0xab54
    f14c:	e3402001 	movt	r2, #1
    f150:	eb002367 	bl	17ef4 <LogWrite>
    f154:	e1a05004 	mov	r5, r4
    f158:	e1a00004 	mov	r0, r4
    f15c:	e3a01002 	mov	r1, #2
    f160:	ebfff908 	bl	d588 <USBDeviceGetDescriptor>
    f164:	e3500000 	cmp	r0, #0
    f168:	1a000007 	bne	f18c <SMSC951xDeviceConfigure+0xb8>
    f16c:	ea000009 	b	f198 <SMSC951xDeviceConfigure+0xc4>
    f170:	e30a0a84 	movw	r0, #43652	; 0xaa84
    f174:	e3400001 	movt	r0, #1
    f178:	e3a01001 	mov	r1, #1
    f17c:	e30a2b68 	movw	r2, #43880	; 0xab68
    f180:	e3402001 	movt	r2, #1
    f184:	eb00235a 	bl	17ef4 <LogWrite>
    f188:	ea0000d1 	b	f4d4 <SMSC951xDeviceConfigure+0x400>
    f18c:	e5d03004 	ldrb	r3, [r0, #4]
    f190:	e3530001 	cmp	r3, #1
    f194:	0a000007 	beq	f1b8 <SMSC951xDeviceConfigure+0xe4>
    f198:	e1a00004 	mov	r0, r4
    f19c:	e30a1a84 	movw	r1, #43652	; 0xaa84
    f1a0:	e3401001 	movt	r1, #1
    f1a4:	ebfff90e 	bl	d5e4 <USBDeviceConfigurationError>
    f1a8:	e28d0014 	add	r0, sp, #20
    f1ac:	eb00019f 	bl	f830 <_String>
    f1b0:	e3a05000 	mov	r5, #0
    f1b4:	ea0000c6 	b	f4d4 <SMSC951xDeviceConfigure+0x400>
    f1b8:	e1a00004 	mov	r0, r4
    f1bc:	e3a01004 	mov	r1, #4
    f1c0:	ebfff8f0 	bl	d588 <USBDeviceGetDescriptor>
    f1c4:	e3500000 	cmp	r0, #0
    f1c8:	0a000008 	beq	f1f0 <SMSC951xDeviceConfigure+0x11c>
    f1cc:	e5d03002 	ldrb	r3, [r0, #2]
    f1d0:	e3530000 	cmp	r3, #0
    f1d4:	1a000005 	bne	f1f0 <SMSC951xDeviceConfigure+0x11c>
    f1d8:	e5d03003 	ldrb	r3, [r0, #3]
    f1dc:	e3530000 	cmp	r3, #0
    f1e0:	1a000002 	bne	f1f0 <SMSC951xDeviceConfigure+0x11c>
    f1e4:	e5d03004 	ldrb	r3, [r0, #4]
    f1e8:	e3530003 	cmp	r3, #3
    f1ec:	0a000040 	beq	f2f4 <SMSC951xDeviceConfigure+0x220>
    f1f0:	e1a00004 	mov	r0, r4
    f1f4:	e30a1a84 	movw	r1, #43652	; 0xaa84
    f1f8:	e3401001 	movt	r1, #1
    f1fc:	ebfff8f8 	bl	d5e4 <USBDeviceConfigurationError>
    f200:	e28d0014 	add	r0, sp, #20
    f204:	eb000189 	bl	f830 <_String>
    f208:	e3a05000 	mov	r5, #0
    f20c:	ea0000b0 	b	f4d4 <SMSC951xDeviceConfigure+0x400>
    f210:	e5d73003 	ldrb	r3, [r7, #3]
    f214:	e203303f 	and	r3, r3, #63	; 0x3f
    f218:	e3530002 	cmp	r3, #2
    f21c:	1a00003b 	bne	f310 <SMSC951xDeviceConfigure+0x23c>
    f220:	e1d730d2 	ldrsb	r3, [r7, #2]
    f224:	e3530000 	cmp	r3, #0
    f228:	aa000018 	bge	f290 <SMSC951xDeviceConfigure+0x1bc>
    f22c:	e594303c 	ldr	r3, [r4, #60]	; 0x3c
    f230:	e3530000 	cmp	r3, #0
    f234:	0a000007 	beq	f258 <SMSC951xDeviceConfigure+0x184>
    f238:	e1a00004 	mov	r0, r4
    f23c:	e30a1a84 	movw	r1, #43652	; 0xaa84
    f240:	e3401001 	movt	r1, #1
    f244:	ebfff8e6 	bl	d5e4 <USBDeviceConfigurationError>
    f248:	e28d0014 	add	r0, sp, #20
    f24c:	eb000177 	bl	f830 <_String>
    f250:	e3a05000 	mov	r5, #0
    f254:	ea00009e 	b	f4d4 <SMSC951xDeviceConfigure+0x400>
    f258:	e3a0001c 	mov	r0, #28
    f25c:	eb001a80 	bl	15c64 <malloc>
    f260:	e584003c 	str	r0, [r4, #60]	; 0x3c
    f264:	e3500000 	cmp	r0, #0
    f268:	1a000003 	bne	f27c <SMSC951xDeviceConfigure+0x1a8>
    f26c:	e1a0000a 	mov	r0, sl
    f270:	e1a01009 	mov	r1, r9
    f274:	e3a020f0 	mov	r2, #240	; 0xf0
    f278:	eb00232f 	bl	17f3c <uspi_assertion_failed>
    f27c:	e594003c 	ldr	r0, [r4, #60]	; 0x3c
    f280:	e1a01005 	mov	r1, r5
    f284:	e1a02007 	mov	r2, r7
    f288:	ebfffa54 	bl	dbe0 <USBEndpoint2>
    f28c:	ea00001e 	b	f30c <SMSC951xDeviceConfigure+0x238>
    f290:	e5943040 	ldr	r3, [r4, #64]	; 0x40
    f294:	e3530000 	cmp	r3, #0
    f298:	0a000007 	beq	f2bc <SMSC951xDeviceConfigure+0x1e8>
    f29c:	e1a00004 	mov	r0, r4
    f2a0:	e30a1a84 	movw	r1, #43652	; 0xaa84
    f2a4:	e3401001 	movt	r1, #1
    f2a8:	ebfff8cd 	bl	d5e4 <USBDeviceConfigurationError>
    f2ac:	e28d0014 	add	r0, sp, #20
    f2b0:	eb00015e 	bl	f830 <_String>
    f2b4:	e3a05000 	mov	r5, #0
    f2b8:	ea000085 	b	f4d4 <SMSC951xDeviceConfigure+0x400>
    f2bc:	e3a0001c 	mov	r0, #28
    f2c0:	eb001a67 	bl	15c64 <malloc>
    f2c4:	e5840040 	str	r0, [r4, #64]	; 0x40
    f2c8:	e3500000 	cmp	r0, #0
    f2cc:	1a000003 	bne	f2e0 <SMSC951xDeviceConfigure+0x20c>
    f2d0:	e1a0000b 	mov	r0, fp
    f2d4:	e1a01009 	mov	r1, r9
    f2d8:	e3a020ff 	mov	r2, #255	; 0xff
    f2dc:	eb002316 	bl	17f3c <uspi_assertion_failed>
    f2e0:	e5940040 	ldr	r0, [r4, #64]	; 0x40
    f2e4:	e1a01005 	mov	r1, r5
    f2e8:	e1a02007 	mov	r2, r7
    f2ec:	ebfffa3b 	bl	dbe0 <USBEndpoint2>
    f2f0:	ea000005 	b	f30c <SMSC951xDeviceConfigure+0x238>
    f2f4:	e30abb9c 	movw	fp, #43932	; 0xab9c
    f2f8:	e340b001 	movt	fp, #1
    f2fc:	e30a9a90 	movw	r9, #43664	; 0xaa90
    f300:	e3409001 	movt	r9, #1
    f304:	e30aab80 	movw	sl, #43904	; 0xab80
    f308:	e340a001 	movt	sl, #1
    f30c:	e3a08005 	mov	r8, #5
    f310:	e1a00005 	mov	r0, r5
    f314:	e1a01008 	mov	r1, r8
    f318:	ebfff89a 	bl	d588 <USBDeviceGetDescriptor>
    f31c:	e2507000 	subs	r7, r0, #0
    f320:	1affffba 	bne	f210 <SMSC951xDeviceConfigure+0x13c>
    f324:	e594303c 	ldr	r3, [r4, #60]	; 0x3c
    f328:	e3530000 	cmp	r3, #0
    f32c:	0a000002 	beq	f33c <SMSC951xDeviceConfigure+0x268>
    f330:	e5943040 	ldr	r3, [r4, #64]	; 0x40
    f334:	e3530000 	cmp	r3, #0
    f338:	1a000007 	bne	f35c <SMSC951xDeviceConfigure+0x288>
    f33c:	e1a00004 	mov	r0, r4
    f340:	e30a1a84 	movw	r1, #43652	; 0xaa84
    f344:	e3401001 	movt	r1, #1
    f348:	ebfff8a5 	bl	d5e4 <USBDeviceConfigurationError>
    f34c:	e28d0014 	add	r0, sp, #20
    f350:	eb000136 	bl	f830 <_String>
    f354:	e3a05000 	mov	r5, #0
    f358:	ea00005d 	b	f4d4 <SMSC951xDeviceConfigure+0x400>
    f35c:	e1a00004 	mov	r0, r4
    f360:	ebfff683 	bl	cd74 <USBDeviceConfigure>
    f364:	e2505000 	subs	r5, r0, #0
    f368:	1a000008 	bne	f390 <SMSC951xDeviceConfigure+0x2bc>
    f36c:	e30a0a84 	movw	r0, #43652	; 0xaa84
    f370:	e3400001 	movt	r0, #1
    f374:	e3a01001 	mov	r1, #1
    f378:	e30a2bb8 	movw	r2, #43960	; 0xabb8
    f37c:	e3402001 	movt	r2, #1
    f380:	eb0022db 	bl	17ef4 <LogWrite>
    f384:	e28d0014 	add	r0, sp, #20
    f388:	eb000128 	bl	f830 <_String>
    f38c:	ea000050 	b	f4d4 <SMSC951xDeviceConfigure+0x400>
    f390:	e1a00006 	mov	r0, r6
    f394:	e28d100c 	add	r1, sp, #12
    f398:	ebfffdc0 	bl	eaa0 <MACAddressCopyTo>
    f39c:	e59d500c 	ldr	r5, [sp, #12]
    f3a0:	e1a00004 	mov	r0, r4
    f3a4:	e3a01f41 	mov	r1, #260	; 0x104
    f3a8:	e1dd21b0 	ldrh	r2, [sp, #16]
    f3ac:	ebffff26 	bl	f04c <SMSC951xDeviceWriteReg>
    f3b0:	e3500000 	cmp	r0, #0
    f3b4:	0a000005 	beq	f3d0 <SMSC951xDeviceConfigure+0x2fc>
    f3b8:	e1a00004 	mov	r0, r4
    f3bc:	e3a01f42 	mov	r1, #264	; 0x108
    f3c0:	e1a02005 	mov	r2, r5
    f3c4:	ebffff20 	bl	f04c <SMSC951xDeviceWriteReg>
    f3c8:	e3500000 	cmp	r0, #0
    f3cc:	1a000009 	bne	f3f8 <SMSC951xDeviceConfigure+0x324>
    f3d0:	e30a0a84 	movw	r0, #43652	; 0xaa84
    f3d4:	e3400001 	movt	r0, #1
    f3d8:	e3a01001 	mov	r1, #1
    f3dc:	e30a2bd4 	movw	r2, #43988	; 0xabd4
    f3e0:	e3402001 	movt	r2, #1
    f3e4:	eb0022c2 	bl	17ef4 <LogWrite>
    f3e8:	e28d0014 	add	r0, sp, #20
    f3ec:	eb00010f 	bl	f830 <_String>
    f3f0:	e3a05000 	mov	r5, #0
    f3f4:	ea000036 	b	f4d4 <SMSC951xDeviceConfigure+0x400>
    f3f8:	e1a00004 	mov	r0, r4
    f3fc:	e3a01024 	mov	r1, #36	; 0x24
    f400:	e3a02000 	mov	r2, #0
    f404:	e3402111 	movt	r2, #273	; 0x111
    f408:	ebffff0f 	bl	f04c <SMSC951xDeviceWriteReg>
    f40c:	e3500000 	cmp	r0, #0
    f410:	0a00000c 	beq	f448 <SMSC951xDeviceConfigure+0x374>
    f414:	e1a00004 	mov	r0, r4
    f418:	e3a01c01 	mov	r1, #256	; 0x100
    f41c:	e3a0200c 	mov	r2, #12
    f420:	e3402080 	movt	r2, #128	; 0x80
    f424:	ebffff08 	bl	f04c <SMSC951xDeviceWriteReg>
    f428:	e3500000 	cmp	r0, #0
    f42c:	0a000005 	beq	f448 <SMSC951xDeviceConfigure+0x374>
    f430:	e1a00004 	mov	r0, r4
    f434:	e3a01010 	mov	r1, #16
    f438:	e3a02004 	mov	r2, #4
    f43c:	ebffff02 	bl	f04c <SMSC951xDeviceWriteReg>
    f440:	e3500000 	cmp	r0, #0
    f444:	1a000009 	bne	f470 <SMSC951xDeviceConfigure+0x39c>
    f448:	e30a0a84 	movw	r0, #43652	; 0xaa84
    f44c:	e3400001 	movt	r0, #1
    f450:	e3a01001 	mov	r1, #1
    f454:	e30a2bec 	movw	r2, #44012	; 0xabec
    f458:	e3402001 	movt	r2, #1
    f45c:	eb0022a4 	bl	17ef4 <LogWrite>
    f460:	e28d0014 	add	r0, sp, #20
    f464:	eb0000f1 	bl	f830 <_String>
    f468:	e3a05000 	mov	r5, #0
    f46c:	ea000018 	b	f4d4 <SMSC951xDeviceConfigure+0x400>
    f470:	e1a0000d 	mov	r0, sp
    f474:	eb0000cd 	bl	f7b0 <String>
    f478:	e30c3640 	movw	r3, #50752	; 0xc640
    f47c:	e3403001 	movt	r3, #1
    f480:	e5932000 	ldr	r2, [r3]
    f484:	e2821001 	add	r1, r2, #1
    f488:	e5831000 	str	r1, [r3]
    f48c:	e1a0000d 	mov	r0, sp
    f490:	e30a1c00 	movw	r1, #44032	; 0xac00
    f494:	e3401001 	movt	r1, #1
    f498:	eb000354 	bl	101f0 <StringFormat>
    f49c:	ebfffcf0 	bl	e864 <DeviceNameServiceGet>
    f4a0:	e1a05000 	mov	r5, r0
    f4a4:	e1a0000d 	mov	r0, sp
    f4a8:	eb0000f0 	bl	f870 <StringGet>
    f4ac:	e1a01000 	mov	r1, r0
    f4b0:	e1a00005 	mov	r0, r5
    f4b4:	e1a02004 	mov	r2, r4
    f4b8:	e3a03000 	mov	r3, #0
    f4bc:	ebfffc70 	bl	e684 <DeviceNameServiceAddDevice>
    f4c0:	e1a0000d 	mov	r0, sp
    f4c4:	eb0000d9 	bl	f830 <_String>
    f4c8:	e28d0014 	add	r0, sp, #20
    f4cc:	eb0000d7 	bl	f830 <_String>
    f4d0:	e3a05001 	mov	r5, #1
    f4d4:	e1a00005 	mov	r0, r5
    f4d8:	e28dd02c 	add	sp, sp, #44	; 0x2c
    f4dc:	e8bd8ff0 	pop	{r4, r5, r6, r7, r8, r9, sl, fp, pc}

0000f4e0 <SMSC951xDeviceReadReg>:
    f4e0:	e92d40f0 	push	{r4, r5, r6, r7, lr}
    f4e4:	e24dd014 	sub	sp, sp, #20
    f4e8:	e1a04001 	mov	r4, r1
    f4ec:	e1a07002 	mov	r7, r2
    f4f0:	e2505000 	subs	r5, r0, #0
    f4f4:	1a000005 	bne	f510 <SMSC951xDeviceReadReg+0x30>
    f4f8:	e3090ce4 	movw	r0, #40164	; 0x9ce4
    f4fc:	e3400001 	movt	r0, #1
    f500:	e30a1a90 	movw	r1, #43664	; 0xaa90
    f504:	e3401001 	movt	r1, #1
    f508:	e30021a3 	movw	r2, #419	; 0x1a3
    f50c:	eb00228a 	bl	17f3c <uspi_assertion_failed>
    f510:	e1a00005 	mov	r0, r5
    f514:	ebfff7df 	bl	d498 <USBDeviceGetHost>
    f518:	e1a06000 	mov	r6, r0
    f51c:	e1a00005 	mov	r0, r5
    f520:	ebfff7c8 	bl	d448 <USBDeviceGetEndpoint0>
    f524:	e1a01000 	mov	r1, r0
    f528:	e3a03000 	mov	r3, #0
    f52c:	e58d3000 	str	r3, [sp]
    f530:	e6ff4074 	uxth	r4, r4
    f534:	e58d4004 	str	r4, [sp, #4]
    f538:	e58d7008 	str	r7, [sp, #8]
    f53c:	e3a03004 	mov	r3, #4
    f540:	e58d300c 	str	r3, [sp, #12]
    f544:	e1a00006 	mov	r0, r6
    f548:	e3a020c0 	mov	r2, #192	; 0xc0
    f54c:	e3a030a1 	mov	r3, #161	; 0xa1
    f550:	ebffeb83 	bl	a364 <DWHCIDeviceControlMessage>
    f554:	e3500004 	cmp	r0, #4
    f558:	13a00000 	movne	r0, #0
    f55c:	03a00001 	moveq	r0, #1
    f560:	e28dd014 	add	sp, sp, #20
    f564:	e8bd80f0 	pop	{r4, r5, r6, r7, pc}

0000f568 <SMSC951xDeviceDumpReg>:
    f568:	e92d4070 	push	{r4, r5, r6, lr}
    f56c:	e24dd010 	sub	sp, sp, #16
    f570:	e1a06001 	mov	r6, r1
    f574:	e1a04002 	mov	r4, r2
    f578:	e2505000 	subs	r5, r0, #0
    f57c:	1a000005 	bne	f598 <SMSC951xDeviceDumpReg+0x30>
    f580:	e3090ce4 	movw	r0, #40164	; 0x9ce4
    f584:	e3400001 	movt	r0, #1
    f588:	e30a1a90 	movw	r1, #43664	; 0xaa90
    f58c:	e3401001 	movt	r1, #1
    f590:	e30021af 	movw	r2, #431	; 0x1af
    f594:	eb002268 	bl	17f3c <uspi_assertion_failed>
    f598:	e1a00005 	mov	r0, r5
    f59c:	e1a01004 	mov	r1, r4
    f5a0:	e28d200c 	add	r2, sp, #12
    f5a4:	ebffffcd 	bl	f4e0 <SMSC951xDeviceReadReg>
    f5a8:	e3500000 	cmp	r0, #0
    f5ac:	1a000007 	bne	f5d0 <SMSC951xDeviceDumpReg+0x68>
    f5b0:	e30a0a84 	movw	r0, #43652	; 0xaa84
    f5b4:	e3400001 	movt	r0, #1
    f5b8:	e3a01001 	mov	r1, #1
    f5bc:	e30a2c08 	movw	r2, #44040	; 0xac08
    f5c0:	e3402001 	movt	r2, #1
    f5c4:	e1a03004 	mov	r3, r4
    f5c8:	eb002249 	bl	17ef4 <LogWrite>
    f5cc:	ea000007 	b	f5f0 <SMSC951xDeviceDumpReg+0x88>
    f5d0:	e58d6000 	str	r6, [sp]
    f5d4:	e30a0a84 	movw	r0, #43652	; 0xaa84
    f5d8:	e3400001 	movt	r0, #1
    f5dc:	e3a01004 	mov	r1, #4
    f5e0:	e30a2c24 	movw	r2, #44068	; 0xac24
    f5e4:	e3402001 	movt	r2, #1
    f5e8:	e59d300c 	ldr	r3, [sp, #12]
    f5ec:	eb002240 	bl	17ef4 <LogWrite>
    f5f0:	e28dd010 	add	sp, sp, #16
    f5f4:	e8bd8070 	pop	{r4, r5, r6, pc}

0000f5f8 <SMSC951xDeviceDumpRegs>:
    f5f8:	e92d4010 	push	{r4, lr}
    f5fc:	e2504000 	subs	r4, r0, #0
    f600:	1a000005 	bne	f61c <SMSC951xDeviceDumpRegs+0x24>
    f604:	e3090ce4 	movw	r0, #40164	; 0x9ce4
    f608:	e3400001 	movt	r0, #1
    f60c:	e30a1a90 	movw	r1, #43664	; 0xaa90
    f610:	e3401001 	movt	r1, #1
    f614:	e30021be 	movw	r2, #446	; 0x1be
    f618:	eb002247 	bl	17f3c <uspi_assertion_failed>
    f61c:	e1a00004 	mov	r0, r4
    f620:	e30a1c2c 	movw	r1, #44076	; 0xac2c
    f624:	e3401001 	movt	r1, #1
    f628:	e3a02000 	mov	r2, #0
    f62c:	ebffffcd 	bl	f568 <SMSC951xDeviceDumpReg>
    f630:	e1a00004 	mov	r0, r4
    f634:	e30a1c34 	movw	r1, #44084	; 0xac34
    f638:	e3401001 	movt	r1, #1
    f63c:	e3a02008 	mov	r2, #8
    f640:	ebffffc8 	bl	f568 <SMSC951xDeviceDumpReg>
    f644:	e1a00004 	mov	r0, r4
    f648:	e30a1c3c 	movw	r1, #44092	; 0xac3c
    f64c:	e3401001 	movt	r1, #1
    f650:	e3a0200c 	mov	r2, #12
    f654:	ebffffc3 	bl	f568 <SMSC951xDeviceDumpReg>
    f658:	e1a00004 	mov	r0, r4
    f65c:	e30a1c44 	movw	r1, #44100	; 0xac44
    f660:	e3401001 	movt	r1, #1
    f664:	e3a02010 	mov	r2, #16
    f668:	ebffffbe 	bl	f568 <SMSC951xDeviceDumpReg>
    f66c:	e1a00004 	mov	r0, r4
    f670:	e30a1c4c 	movw	r1, #44108	; 0xac4c
    f674:	e3401001 	movt	r1, #1
    f678:	e3a02014 	mov	r2, #20
    f67c:	ebffffb9 	bl	f568 <SMSC951xDeviceDumpReg>
    f680:	e1a00004 	mov	r0, r4
    f684:	e30a1c54 	movw	r1, #44116	; 0xac54
    f688:	e3401001 	movt	r1, #1
    f68c:	e3a02018 	mov	r2, #24
    f690:	ebffffb4 	bl	f568 <SMSC951xDeviceDumpReg>
    f694:	e1a00004 	mov	r0, r4
    f698:	e30a1c60 	movw	r1, #44128	; 0xac60
    f69c:	e3401001 	movt	r1, #1
    f6a0:	e3a02020 	mov	r2, #32
    f6a4:	ebffffaf 	bl	f568 <SMSC951xDeviceDumpReg>
    f6a8:	e1a00004 	mov	r0, r4
    f6ac:	e30a1c68 	movw	r1, #44136	; 0xac68
    f6b0:	e3401001 	movt	r1, #1
    f6b4:	e3a02024 	mov	r2, #36	; 0x24
    f6b8:	ebffffaa 	bl	f568 <SMSC951xDeviceDumpReg>
    f6bc:	e1a00004 	mov	r0, r4
    f6c0:	e30a1c6c 	movw	r1, #44140	; 0xac6c
    f6c4:	e3401001 	movt	r1, #1
    f6c8:	e3a02028 	mov	r2, #40	; 0x28
    f6cc:	ebffffa5 	bl	f568 <SMSC951xDeviceDumpReg>
    f6d0:	e1a00004 	mov	r0, r4
    f6d4:	e30a1c78 	movw	r1, #44152	; 0xac78
    f6d8:	e3401001 	movt	r1, #1
    f6dc:	e3a0202c 	mov	r2, #44	; 0x2c
    f6e0:	ebffffa0 	bl	f568 <SMSC951xDeviceDumpReg>
    f6e4:	e1a00004 	mov	r0, r4
    f6e8:	e30a1c80 	movw	r1, #44160	; 0xac80
    f6ec:	e3401001 	movt	r1, #1
    f6f0:	e3a02038 	mov	r2, #56	; 0x38
    f6f4:	ebffff9b 	bl	f568 <SMSC951xDeviceDumpReg>
    f6f8:	e1a00004 	mov	r0, r4
    f6fc:	e30a1c8c 	movw	r1, #44172	; 0xac8c
    f700:	e3401001 	movt	r1, #1
    f704:	e3a02068 	mov	r2, #104	; 0x68
    f708:	ebffff96 	bl	f568 <SMSC951xDeviceDumpReg>
    f70c:	e1a00004 	mov	r0, r4
    f710:	e30a1c98 	movw	r1, #44184	; 0xac98
    f714:	e3401001 	movt	r1, #1
    f718:	e3a0206c 	mov	r2, #108	; 0x6c
    f71c:	ebffff91 	bl	f568 <SMSC951xDeviceDumpReg>
    f720:	e1a00004 	mov	r0, r4
    f724:	e30a1ca4 	movw	r1, #44196	; 0xaca4
    f728:	e3401001 	movt	r1, #1
    f72c:	e3a02c01 	mov	r2, #256	; 0x100
    f730:	ebffff8c 	bl	f568 <SMSC951xDeviceDumpReg>
    f734:	e1a00004 	mov	r0, r4
    f738:	e30a1cac 	movw	r1, #44204	; 0xacac
    f73c:	e3401001 	movt	r1, #1
    f740:	e3a02f41 	mov	r2, #260	; 0x104
    f744:	ebffff87 	bl	f568 <SMSC951xDeviceDumpReg>
    f748:	e1a00004 	mov	r0, r4
    f74c:	e30a1cb4 	movw	r1, #44212	; 0xacb4
    f750:	e3401001 	movt	r1, #1
    f754:	e3a02f42 	mov	r2, #264	; 0x108
    f758:	ebffff82 	bl	f568 <SMSC951xDeviceDumpReg>
    f75c:	e1a00004 	mov	r0, r4
    f760:	e30a1cbc 	movw	r1, #44220	; 0xacbc
    f764:	e3401001 	movt	r1, #1
    f768:	e3a02f43 	mov	r2, #268	; 0x10c
    f76c:	ebffff7d 	bl	f568 <SMSC951xDeviceDumpReg>
    f770:	e1a00004 	mov	r0, r4
    f774:	e30a1cc4 	movw	r1, #44228	; 0xacc4
    f778:	e3401001 	movt	r1, #1
    f77c:	e3a02e11 	mov	r2, #272	; 0x110
    f780:	ebffff78 	bl	f568 <SMSC951xDeviceDumpReg>
    f784:	e1a00004 	mov	r0, r4
    f788:	e30a1ccc 	movw	r1, #44236	; 0xaccc
    f78c:	e3401001 	movt	r1, #1
    f790:	e3a02f47 	mov	r2, #284	; 0x11c
    f794:	ebffff73 	bl	f568 <SMSC951xDeviceDumpReg>
    f798:	e1a00004 	mov	r0, r4
    f79c:	e30a1cd4 	movw	r1, #44244	; 0xacd4
    f7a0:	e3401001 	movt	r1, #1
    f7a4:	e3a02f4b 	mov	r2, #300	; 0x12c
    f7a8:	ebffff6e 	bl	f568 <SMSC951xDeviceDumpReg>
    f7ac:	e8bd8010 	pop	{r4, pc}

0000f7b0 <String>:
    f7b0:	e92d4010 	push	{r4, lr}
    f7b4:	e2504000 	subs	r4, r0, #0
    f7b8:	1a000005 	bne	f7d4 <String+0x24>
    f7bc:	e3090ce4 	movw	r0, #40164	; 0x9ce4
    f7c0:	e3400001 	movt	r0, #1
    f7c4:	e30a1cdc 	movw	r1, #44252	; 0xacdc
    f7c8:	e3401001 	movt	r1, #1
    f7cc:	e3a02023 	mov	r2, #35	; 0x23
    f7d0:	eb0021d9 	bl	17f3c <uspi_assertion_failed>
    f7d4:	e3a03000 	mov	r3, #0
    f7d8:	e5843000 	str	r3, [r4]
    f7dc:	e5843004 	str	r3, [r4, #4]
    f7e0:	e8bd8010 	pop	{r4, pc}

0000f7e4 <String2>:
    f7e4:	e92d4038 	push	{r3, r4, r5, lr}
    f7e8:	e1a04001 	mov	r4, r1
    f7ec:	e2505000 	subs	r5, r0, #0
    f7f0:	1a000005 	bne	f80c <String2+0x28>
    f7f4:	e3090ce4 	movw	r0, #40164	; 0x9ce4
    f7f8:	e3400001 	movt	r0, #1
    f7fc:	e30a1cdc 	movw	r1, #44252	; 0xacdc
    f800:	e3401001 	movt	r1, #1
    f804:	e3a0202a 	mov	r2, #42	; 0x2a
    f808:	eb0021cb 	bl	17f3c <uspi_assertion_failed>
    f80c:	e1a00004 	mov	r0, r4
    f810:	eb0002b9 	bl	102fc <uspi_strlen>
    f814:	e2800001 	add	r0, r0, #1
    f818:	e5850004 	str	r0, [r5, #4]
    f81c:	eb001910 	bl	15c64 <malloc>
    f820:	e5850000 	str	r0, [r5]
    f824:	e1a01004 	mov	r1, r4
    f828:	eb0002ed 	bl	103e4 <uspi_strcpy>
    f82c:	e8bd8038 	pop	{r3, r4, r5, pc}

0000f830 <_String>:
    f830:	e92d4010 	push	{r4, lr}
    f834:	e2504000 	subs	r4, r0, #0
    f838:	1a000005 	bne	f854 <_String+0x24>
    f83c:	e3090ce4 	movw	r0, #40164	; 0x9ce4
    f840:	e3400001 	movt	r0, #1
    f844:	e30a1cdc 	movw	r1, #44252	; 0xacdc
    f848:	e3401001 	movt	r1, #1
    f84c:	e3a02035 	mov	r2, #53	; 0x35
    f850:	eb0021b9 	bl	17f3c <uspi_assertion_failed>
    f854:	e5940000 	ldr	r0, [r4]
    f858:	e3500000 	cmp	r0, #0
    f85c:	08bd8010 	popeq	{r4, pc}
    f860:	eb00195b 	bl	15dd4 <free>
    f864:	e3a03000 	mov	r3, #0
    f868:	e5843000 	str	r3, [r4]
    f86c:	e8bd8010 	pop	{r4, pc}

0000f870 <StringGet>:
    f870:	e92d4010 	push	{r4, lr}
    f874:	e2504000 	subs	r4, r0, #0
    f878:	1a000005 	bne	f894 <StringGet+0x24>
    f87c:	e3090ce4 	movw	r0, #40164	; 0x9ce4
    f880:	e3400001 	movt	r0, #1
    f884:	e30a1cdc 	movw	r1, #44252	; 0xacdc
    f888:	e3401001 	movt	r1, #1
    f88c:	e3a02040 	mov	r2, #64	; 0x40
    f890:	eb0021a9 	bl	17f3c <uspi_assertion_failed>
    f894:	e5940000 	ldr	r0, [r4]
    f898:	e30b3dd8 	movw	r3, #48600	; 0xbdd8
    f89c:	e3403001 	movt	r3, #1
    f8a0:	e3500000 	cmp	r0, #0
    f8a4:	01a00003 	moveq	r0, r3
    f8a8:	e8bd8010 	pop	{r4, pc}

0000f8ac <StringSet>:
    f8ac:	e92d4038 	push	{r3, r4, r5, lr}
    f8b0:	e1a05001 	mov	r5, r1
    f8b4:	e2504000 	subs	r4, r0, #0
    f8b8:	1a000005 	bne	f8d4 <StringSet+0x28>
    f8bc:	e3090ce4 	movw	r0, #40164	; 0x9ce4
    f8c0:	e3400001 	movt	r0, #1
    f8c4:	e30a1cdc 	movw	r1, #44252	; 0xacdc
    f8c8:	e3401001 	movt	r1, #1
    f8cc:	e3a0204c 	mov	r2, #76	; 0x4c
    f8d0:	eb002199 	bl	17f3c <uspi_assertion_failed>
    f8d4:	e5940000 	ldr	r0, [r4]
    f8d8:	e3500000 	cmp	r0, #0
    f8dc:	0a000000 	beq	f8e4 <StringSet+0x38>
    f8e0:	eb00193b 	bl	15dd4 <free>
    f8e4:	e1a00005 	mov	r0, r5
    f8e8:	eb000283 	bl	102fc <uspi_strlen>
    f8ec:	e2800001 	add	r0, r0, #1
    f8f0:	e5840004 	str	r0, [r4, #4]
    f8f4:	eb0018da 	bl	15c64 <malloc>
    f8f8:	e5840000 	str	r0, [r4]
    f8fc:	e1a01005 	mov	r1, r5
    f900:	eb0002b7 	bl	103e4 <uspi_strcpy>
    f904:	e5940000 	ldr	r0, [r4]
    f908:	e8bd8038 	pop	{r3, r4, r5, pc}

0000f90c <StringGetLength>:
    f90c:	e92d4010 	push	{r4, lr}
    f910:	e2504000 	subs	r4, r0, #0
    f914:	1a000005 	bne	f930 <StringGetLength+0x24>
    f918:	e3090ce4 	movw	r0, #40164	; 0x9ce4
    f91c:	e3400001 	movt	r0, #1
    f920:	e30a1cdc 	movw	r1, #44252	; 0xacdc
    f924:	e3401001 	movt	r1, #1
    f928:	e3a0205e 	mov	r2, #94	; 0x5e
    f92c:	eb002182 	bl	17f3c <uspi_assertion_failed>
    f930:	e5940000 	ldr	r0, [r4]
    f934:	e3500000 	cmp	r0, #0
    f938:	0a000001 	beq	f944 <StringGetLength+0x38>
    f93c:	eb00026e 	bl	102fc <uspi_strlen>
    f940:	e8bd8010 	pop	{r4, pc}
    f944:	e3a00000 	mov	r0, #0
    f948:	e8bd8010 	pop	{r4, pc}

0000f94c <StringAppend>:
    f94c:	e92d4070 	push	{r4, r5, r6, lr}
    f950:	e1a06001 	mov	r6, r1
    f954:	e2504000 	subs	r4, r0, #0
    f958:	1a000005 	bne	f974 <StringAppend+0x28>
    f95c:	e3090ce4 	movw	r0, #40164	; 0x9ce4
    f960:	e3400001 	movt	r0, #1
    f964:	e30a1cdc 	movw	r1, #44252	; 0xacdc
    f968:	e3401001 	movt	r1, #1
    f96c:	e3a0206a 	mov	r2, #106	; 0x6a
    f970:	eb002171 	bl	17f3c <uspi_assertion_failed>
    f974:	e3a03001 	mov	r3, #1
    f978:	e5843004 	str	r3, [r4, #4]
    f97c:	e5940000 	ldr	r0, [r4]
    f980:	e3500000 	cmp	r0, #0
    f984:	0a000003 	beq	f998 <StringAppend+0x4c>
    f988:	eb00025b 	bl	102fc <uspi_strlen>
    f98c:	e5943004 	ldr	r3, [r4, #4]
    f990:	e0830000 	add	r0, r3, r0
    f994:	e5840004 	str	r0, [r4, #4]
    f998:	e1a00006 	mov	r0, r6
    f99c:	eb000256 	bl	102fc <uspi_strlen>
    f9a0:	e5943004 	ldr	r3, [r4, #4]
    f9a4:	e0800003 	add	r0, r0, r3
    f9a8:	e5840004 	str	r0, [r4, #4]
    f9ac:	eb0018ac 	bl	15c64 <malloc>
    f9b0:	e1a05000 	mov	r5, r0
    f9b4:	e5941000 	ldr	r1, [r4]
    f9b8:	e3510000 	cmp	r1, #0
    f9bc:	03a03000 	moveq	r3, #0
    f9c0:	05c03000 	strbeq	r3, [r0]
    f9c4:	0a000003 	beq	f9d8 <StringAppend+0x8c>
    f9c8:	eb000285 	bl	103e4 <uspi_strcpy>
    f9cc:	e5940000 	ldr	r0, [r4]
    f9d0:	eb0018ff 	bl	15dd4 <free>
    f9d4:	eaffffff 	b	f9d8 <StringAppend+0x8c>
    f9d8:	e1a00005 	mov	r0, r5
    f9dc:	e1a01006 	mov	r1, r6
    f9e0:	eb0002a1 	bl	1046c <uspi_strcat>
    f9e4:	e5845000 	str	r5, [r4]
    f9e8:	e8bd8070 	pop	{r4, r5, r6, pc}

0000f9ec <StringCompare>:
    f9ec:	e92d4038 	push	{r3, r4, r5, lr}
    f9f0:	e1a04001 	mov	r4, r1
    f9f4:	e2505000 	subs	r5, r0, #0
    f9f8:	1a000005 	bne	fa14 <StringCompare+0x28>
    f9fc:	e3090ce4 	movw	r0, #40164	; 0x9ce4
    fa00:	e3400001 	movt	r0, #1
    fa04:	e30a1cdc 	movw	r1, #44252	; 0xacdc
    fa08:	e3401001 	movt	r1, #1
    fa0c:	e3a02086 	mov	r2, #134	; 0x86
    fa10:	eb002149 	bl	17f3c <uspi_assertion_failed>
    fa14:	e5950000 	ldr	r0, [r5]
    fa18:	e1a01004 	mov	r1, r4
    fa1c:	eb000242 	bl	1032c <uspi_strcmp>
    fa20:	e8bd8038 	pop	{r3, r4, r5, pc}

0000fa24 <StringFind>:
    fa24:	e92d4038 	push	{r3, r4, r5, lr}
    fa28:	e1a04001 	mov	r4, r1
    fa2c:	e2505000 	subs	r5, r0, #0
    fa30:	1a000005 	bne	fa4c <StringFind+0x28>
    fa34:	e3090ce4 	movw	r0, #40164	; 0x9ce4
    fa38:	e3400001 	movt	r0, #1
    fa3c:	e30a1cdc 	movw	r1, #44252	; 0xacdc
    fa40:	e3401001 	movt	r1, #1
    fa44:	e3a0208d 	mov	r2, #141	; 0x8d
    fa48:	eb00213b 	bl	17f3c <uspi_assertion_failed>
    fa4c:	e5952000 	ldr	r2, [r5]
    fa50:	e5d23000 	ldrb	r3, [r2]
    fa54:	e3530000 	cmp	r3, #0
    fa58:	0a000010 	beq	faa0 <StringFind+0x7c>
    fa5c:	e6af3073 	sxtb	r3, r3
    fa60:	e1530004 	cmp	r3, r4
    fa64:	0a000005 	beq	fa80 <StringFind+0x5c>
    fa68:	e3a00000 	mov	r0, #0
    fa6c:	ea000005 	b	fa88 <StringFind+0x64>
    fa70:	e6af3073 	sxtb	r3, r3
    fa74:	e1530004 	cmp	r3, r4
    fa78:	1a000002 	bne	fa88 <StringFind+0x64>
    fa7c:	e8bd8038 	pop	{r3, r4, r5, pc}
    fa80:	e3a00000 	mov	r0, #0
    fa84:	e8bd8038 	pop	{r3, r4, r5, pc}
    fa88:	e2800001 	add	r0, r0, #1
    fa8c:	e5f23001 	ldrb	r3, [r2, #1]!
    fa90:	e3530000 	cmp	r3, #0
    fa94:	1afffff5 	bne	fa70 <StringFind+0x4c>
    fa98:	e3e00000 	mvn	r0, #0
    fa9c:	e8bd8038 	pop	{r3, r4, r5, pc}
    faa0:	e3e00000 	mvn	r0, #0
    faa4:	e8bd8038 	pop	{r3, r4, r5, pc}

0000faa8 <StringReserveSpace>:
    faa8:	e92d40f8 	push	{r3, r4, r5, r6, r7, lr}
    faac:	e1a04001 	mov	r4, r1
    fab0:	e2505000 	subs	r5, r0, #0
    fab4:	1a000005 	bne	fad0 <StringReserveSpace+0x28>
    fab8:	e3090ce4 	movw	r0, #40164	; 0x9ce4
    fabc:	e3400001 	movt	r0, #1
    fac0:	e30a1cdc 	movw	r1, #44252	; 0xacdc
    fac4:	e3401001 	movt	r1, #1
    fac8:	e3002199 	movw	r2, #409	; 0x199
    facc:	eb00211a 	bl	17f3c <uspi_assertion_failed>
    fad0:	e3540000 	cmp	r4, #0
    fad4:	08bd80f8 	popeq	{r3, r4, r5, r6, r7, pc}
    fad8:	e5956008 	ldr	r6, [r5, #8]
    fadc:	e5953000 	ldr	r3, [r5]
    fae0:	e0636006 	rsb	r6, r3, r6
    fae4:	e0864004 	add	r4, r6, r4
    fae8:	e2842001 	add	r2, r4, #1
    faec:	e5953004 	ldr	r3, [r5, #4]
    faf0:	e1520003 	cmp	r2, r3
    faf4:	98bd80f8 	popls	{r3, r4, r5, r6, r7, pc}
    faf8:	e2844041 	add	r4, r4, #65	; 0x41
    fafc:	e1a00004 	mov	r0, r4
    fb00:	eb001857 	bl	15c64 <malloc>
    fb04:	e1a07000 	mov	r7, r0
    fb08:	e5953008 	ldr	r3, [r5, #8]
    fb0c:	e3a02000 	mov	r2, #0
    fb10:	e5c32000 	strb	r2, [r3]
    fb14:	e5951000 	ldr	r1, [r5]
    fb18:	eb000231 	bl	103e4 <uspi_strcpy>
    fb1c:	e5950000 	ldr	r0, [r5]
    fb20:	eb0018ab 	bl	15dd4 <free>
    fb24:	e5857000 	str	r7, [r5]
    fb28:	e5854004 	str	r4, [r5, #4]
    fb2c:	e0876006 	add	r6, r7, r6
    fb30:	e5856008 	str	r6, [r5, #8]
    fb34:	e8bd80f8 	pop	{r3, r4, r5, r6, r7, pc}

0000fb38 <StringPutChar>:
    fb38:	e92d4070 	push	{r4, r5, r6, lr}
    fb3c:	e1a05001 	mov	r5, r1
    fb40:	e1a06002 	mov	r6, r2
    fb44:	e2504000 	subs	r4, r0, #0
    fb48:	1a000005 	bne	fb64 <StringPutChar+0x2c>
    fb4c:	e3090ce4 	movw	r0, #40164	; 0x9ce4
    fb50:	e3400001 	movt	r0, #1
    fb54:	e30a1cdc 	movw	r1, #44252	; 0xacdc
    fb58:	e3401001 	movt	r1, #1
    fb5c:	e3a02d06 	mov	r2, #384	; 0x180
    fb60:	eb0020f5 	bl	17f3c <uspi_assertion_failed>
    fb64:	e1a00004 	mov	r0, r4
    fb68:	e1a01006 	mov	r1, r6
    fb6c:	ebffffcd 	bl	faa8 <StringReserveSpace>
    fb70:	e2463001 	sub	r3, r6, #1
    fb74:	e3560000 	cmp	r6, #0
    fb78:	08bd8070 	popeq	{r4, r5, r6, pc}
    fb7c:	e5942008 	ldr	r2, [r4, #8]
    fb80:	e2820001 	add	r0, r2, #1
    fb84:	e5840008 	str	r0, [r4, #8]
    fb88:	e5c25000 	strb	r5, [r2]
    fb8c:	e2433001 	sub	r3, r3, #1
    fb90:	e3730001 	cmn	r3, #1
    fb94:	1afffff8 	bne	fb7c <StringPutChar+0x44>
    fb98:	e8bd8070 	pop	{r4, r5, r6, pc}

0000fb9c <StringPutString>:
    fb9c:	e92d4070 	push	{r4, r5, r6, lr}
    fba0:	e1a06001 	mov	r6, r1
    fba4:	e2504000 	subs	r4, r0, #0
    fba8:	1a000005 	bne	fbc4 <StringPutString+0x28>
    fbac:	e3090ce4 	movw	r0, #40164	; 0x9ce4
    fbb0:	e3400001 	movt	r0, #1
    fbb4:	e30a1cdc 	movw	r1, #44252	; 0xacdc
    fbb8:	e3401001 	movt	r1, #1
    fbbc:	e3a02f63 	mov	r2, #396	; 0x18c
    fbc0:	eb0020dd 	bl	17f3c <uspi_assertion_failed>
    fbc4:	e1a00006 	mov	r0, r6
    fbc8:	eb0001cb 	bl	102fc <uspi_strlen>
    fbcc:	e1a05000 	mov	r5, r0
    fbd0:	e1a00004 	mov	r0, r4
    fbd4:	e1a01005 	mov	r1, r5
    fbd8:	ebffffb2 	bl	faa8 <StringReserveSpace>
    fbdc:	e5940008 	ldr	r0, [r4, #8]
    fbe0:	e1a01006 	mov	r1, r6
    fbe4:	eb0001fe 	bl	103e4 <uspi_strcpy>
    fbe8:	e5943008 	ldr	r3, [r4, #8]
    fbec:	e0830005 	add	r0, r3, r5
    fbf0:	e5840008 	str	r0, [r4, #8]
    fbf4:	e8bd8070 	pop	{r4, r5, r6, pc}

0000fbf8 <ntoa>:
    fbf8:	e92d4070 	push	{r4, r5, r6, lr}
    fbfc:	e1510002 	cmp	r1, r2
    fc00:	23a0c001 	movcs	ip, #1
    fc04:	2a000003 	bcs	fc18 <ntoa+0x20>
    fc08:	e1a0e001 	mov	lr, r1
    fc0c:	e3a0c001 	mov	ip, #1
    fc10:	e1a05000 	mov	r5, r0
    fc14:	ea000004 	b	fc2c <ntoa+0x34>
    fc18:	e00c0c92 	mul	ip, r2, ip
    fc1c:	e73efc11 	udiv	lr, r1, ip
    fc20:	e15e0002 	cmp	lr, r2
    fc24:	2afffffb 	bcs	fc18 <ntoa+0x20>
    fc28:	eafffff8 	b	fc10 <ntoa+0x18>
    fc2c:	e1a06005 	mov	r6, r5
    fc30:	e734fc11 	udiv	r4, r1, ip
    fc34:	e061149c 	mls	r1, ip, r4, r1
    fc38:	e35e0009 	cmp	lr, #9
    fc3c:	928ee030 	addls	lr, lr, #48	; 0x30
    fc40:	96efe07e 	uxtbls	lr, lr
    fc44:	9a000005 	bls	fc60 <ntoa+0x68>
    fc48:	e3530000 	cmp	r3, #0
    fc4c:	13a04000 	movne	r4, #0
    fc50:	03a04020 	moveq	r4, #32
    fc54:	e28ee037 	add	lr, lr, #55	; 0x37
    fc58:	e084e00e 	add	lr, r4, lr
    fc5c:	e6efe07e 	uxtb	lr, lr
    fc60:	e5c6e000 	strb	lr, [r6]
    fc64:	e2855001 	add	r5, r5, #1
    fc68:	e73cf21c 	udiv	ip, ip, r2
    fc6c:	e35c0000 	cmp	ip, #0
    fc70:	173efc11 	udivne	lr, r1, ip
    fc74:	1affffec 	bne	fc2c <ntoa+0x34>
    fc78:	e3a03000 	mov	r3, #0
    fc7c:	e5c63001 	strb	r3, [r6, #1]
    fc80:	e8bd8070 	pop	{r4, r5, r6, pc}

0000fc84 <StringFormatV>:
    fc84:	e92d4ff0 	push	{r4, r5, r6, r7, r8, r9, sl, fp, lr}
    fc88:	e24dd01c 	sub	sp, sp, #28
    fc8c:	e1a04001 	mov	r4, r1
    fc90:	e1a08002 	mov	r8, r2
    fc94:	e2506000 	subs	r6, r0, #0
    fc98:	1a000005 	bne	fcb4 <StringFormatV+0x30>
    fc9c:	e3090ce4 	movw	r0, #40164	; 0x9ce4
    fca0:	e3400001 	movt	r0, #1
    fca4:	e30a1cdc 	movw	r1, #44252	; 0xacdc
    fca8:	e3401001 	movt	r1, #1
    fcac:	e3a020ad 	mov	r2, #173	; 0xad
    fcb0:	eb0020a1 	bl	17f3c <uspi_assertion_failed>
    fcb4:	e5960000 	ldr	r0, [r6]
    fcb8:	e3500000 	cmp	r0, #0
    fcbc:	0a000000 	beq	fcc4 <StringFormatV+0x40>
    fcc0:	eb001843 	bl	15dd4 <free>
    fcc4:	e3a00040 	mov	r0, #64	; 0x40
    fcc8:	e5860004 	str	r0, [r6, #4]
    fccc:	eb0017e4 	bl	15c64 <malloc>
    fcd0:	e5860000 	str	r0, [r6]
    fcd4:	e5860008 	str	r0, [r6, #8]
    fcd8:	e3a09001 	mov	r9, #1
    fcdc:	e3a07000 	mov	r7, #0
    fce0:	ea000102 	b	100f0 <StringFormatV+0x46c>
    fce4:	e6af3071 	sxtb	r3, r1
    fce8:	e3530025 	cmp	r3, #37	; 0x25
    fcec:	1a0000fa 	bne	100dc <StringFormatV+0x458>
    fcf0:	e5d43001 	ldrb	r3, [r4, #1]
    fcf4:	e6af2073 	sxtb	r2, r3
    fcf8:	e3520025 	cmp	r2, #37	; 0x25
    fcfc:	1a000005 	bne	fd18 <StringFormatV+0x94>
    fd00:	e1a00006 	mov	r0, r6
    fd04:	e3a01025 	mov	r1, #37	; 0x25
    fd08:	e1a02009 	mov	r2, r9
    fd0c:	ebffff89 	bl	fb38 <StringPutChar>
    fd10:	e2844002 	add	r4, r4, #2
    fd14:	ea0000f5 	b	100f0 <StringFormatV+0x46c>
    fd18:	e6af3073 	sxtb	r3, r3
    fd1c:	e353002d 	cmp	r3, #45	; 0x2d
    fd20:	12844001 	addne	r4, r4, #1
    fd24:	11a0a007 	movne	sl, r7
    fd28:	02844002 	addeq	r4, r4, #2
    fd2c:	01a0a009 	moveq	sl, r9
    fd30:	e1d430d0 	ldrsb	r3, [r4]
    fd34:	e3530030 	cmp	r3, #48	; 0x30
    fd38:	02844001 	addeq	r4, r4, #1
    fd3c:	058d9004 	streq	r9, [sp, #4]
    fd40:	158d7004 	strne	r7, [sp, #4]
    fd44:	e5d42000 	ldrb	r2, [r4]
    fd48:	e2423030 	sub	r3, r2, #48	; 0x30
    fd4c:	e6ef3073 	uxtb	r3, r3
    fd50:	e3530009 	cmp	r3, #9
    fd54:	8a00000a 	bhi	fd84 <StringFormatV+0x100>
    fd58:	e1a05007 	mov	r5, r7
    fd5c:	e1a03185 	lsl	r3, r5, #3
    fd60:	e0835085 	add	r5, r3, r5, lsl #1
    fd64:	e6a55072 	sxtab	r5, r5, r2
    fd68:	e2455030 	sub	r5, r5, #48	; 0x30
    fd6c:	e5f42001 	ldrb	r2, [r4, #1]!
    fd70:	e2423030 	sub	r3, r2, #48	; 0x30
    fd74:	e6ef3073 	uxtb	r3, r3
    fd78:	e3530009 	cmp	r3, #9
    fd7c:	9afffff6 	bls	fd5c <StringFormatV+0xd8>
    fd80:	ea000000 	b	fd88 <StringFormatV+0x104>
    fd84:	e1a05007 	mov	r5, r7
    fd88:	e6af2072 	sxtb	r2, r2
    fd8c:	e352006c 	cmp	r2, #108	; 0x6c
    fd90:	1a0000dd 	bne	1010c <StringFormatV+0x488>
    fd94:	e2840001 	add	r0, r4, #1
    fd98:	e5d43001 	ldrb	r3, [r4, #1]
    fd9c:	e6af2073 	sxtb	r2, r3
    fda0:	e2422058 	sub	r2, r2, #88	; 0x58
    fda4:	e3520020 	cmp	r2, #32
    fda8:	979ff102 	ldrls	pc, [pc, r2, lsl #2]
    fdac:	ea0000c0 	b	100b4 <StringFormatV+0x430>
    fdb0:	00010004 	andeq	r0, r1, r4
    fdb4:	000100b4 	strheq	r0, [r1], -r4
    fdb8:	000100b4 	strheq	r0, [r1], -r4
    fdbc:	000100b4 	strheq	r0, [r1], -r4
    fdc0:	000100b4 	strheq	r0, [r1], -r4
    fdc4:	000100b4 	strheq	r0, [r1], -r4
    fdc8:	000100b4 	strheq	r0, [r1], -r4
    fdcc:	000100b4 	strheq	r0, [r1], -r4
    fdd0:	000100b4 	strheq	r0, [r1], -r4
    fdd4:	000100b4 	strheq	r0, [r1], -r4
    fdd8:	000100b4 	strheq	r0, [r1], -r4
    fddc:	0000fe34 	andeq	pc, r0, r4, lsr lr	; <UNPREDICTABLE>
    fde0:	0000feac 	andeq	pc, r0, ip, lsr #29
    fde4:	000100b4 	strheq	r0, [r1], -r4
    fde8:	000100b4 	strheq	r0, [r1], -r4
    fdec:	000100b4 	strheq	r0, [r1], -r4
    fdf0:	000100b4 	strheq	r0, [r1], -r4
    fdf4:	000100b4 	strheq	r0, [r1], -r4
    fdf8:	000100b4 	strheq	r0, [r1], -r4
    fdfc:	000100b4 	strheq	r0, [r1], -r4
    fe00:	000100b4 	strheq	r0, [r1], -r4
    fe04:	000100b4 	strheq	r0, [r1], -r4
    fe08:	000100b4 	strheq	r0, [r1], -r4
    fe0c:	00010014 	andeq	r0, r1, r4, lsl r0
    fe10:	000100b4 	strheq	r0, [r1], -r4
    fe14:	000100b4 	strheq	r0, [r1], -r4
    fe18:	000100b4 	strheq	r0, [r1], -r4
    fe1c:	0000ff70 	andeq	pc, r0, r0, ror pc	; <UNPREDICTABLE>
    fe20:	000100b4 	strheq	r0, [r1], -r4
    fe24:	0000fff0 	strdeq	pc, [r0], -r0
    fe28:	000100b4 	strheq	r0, [r1], -r4
    fe2c:	000100b4 	strheq	r0, [r1], -r4
    fe30:	00010004 	andeq	r0, r1, r4
    fe34:	e1a04000 	mov	r4, r0
    fe38:	e288b004 	add	fp, r8, #4
    fe3c:	e5d88000 	ldrb	r8, [r8]
    fe40:	e35a0000 	cmp	sl, #0
    fe44:	0a00000c 	beq	fe7c <StringFormatV+0x1f8>
    fe48:	e1a00006 	mov	r0, r6
    fe4c:	e6af1078 	sxtb	r1, r8
    fe50:	e1a02009 	mov	r2, r9
    fe54:	ebffff37 	bl	fb38 <StringPutChar>
    fe58:	e3550001 	cmp	r5, #1
    fe5c:	91a0800b 	movls	r8, fp
    fe60:	9a0000a1 	bls	100ec <StringFormatV+0x468>
    fe64:	e1a00006 	mov	r0, r6
    fe68:	e3a01020 	mov	r1, #32
    fe6c:	e2452001 	sub	r2, r5, #1
    fe70:	ebffff30 	bl	fb38 <StringPutChar>
    fe74:	e1a0800b 	mov	r8, fp
    fe78:	ea00009b 	b	100ec <StringFormatV+0x468>
    fe7c:	e3550001 	cmp	r5, #1
    fe80:	9a000003 	bls	fe94 <StringFormatV+0x210>
    fe84:	e1a00006 	mov	r0, r6
    fe88:	e3a01020 	mov	r1, #32
    fe8c:	e2452001 	sub	r2, r5, #1
    fe90:	ebffff28 	bl	fb38 <StringPutChar>
    fe94:	e1a00006 	mov	r0, r6
    fe98:	e6af1078 	sxtb	r1, r8
    fe9c:	e1a02009 	mov	r2, r9
    fea0:	ebffff24 	bl	fb38 <StringPutChar>
    fea4:	e1a0800b 	mov	r8, fp
    fea8:	ea00008f 	b	100ec <StringFormatV+0x468>
    feac:	e5981000 	ldr	r1, [r8]
    feb0:	e1a04000 	mov	r4, r0
    feb4:	e2888004 	add	r8, r8, #4
    feb8:	ea000001 	b	fec4 <StringFormatV+0x240>
    febc:	e5981000 	ldr	r1, [r8]
    fec0:	e2888004 	add	r8, r8, #4
    fec4:	e3510000 	cmp	r1, #0
    fec8:	aa0000b6 	bge	101a8 <StringFormatV+0x524>
    fecc:	e28d000c 	add	r0, sp, #12
    fed0:	e2611000 	rsb	r1, r1, #0
    fed4:	e3a0200a 	mov	r2, #10
    fed8:	e1a03007 	mov	r3, r7
    fedc:	ebffff45 	bl	fbf8 <ntoa>
    fee0:	e28d000c 	add	r0, sp, #12
    fee4:	eb000104 	bl	102fc <uspi_strlen>
    fee8:	e280b001 	add	fp, r0, #1
    feec:	e35a0000 	cmp	sl, #0
    fef0:	0a0000b6 	beq	101d0 <StringFormatV+0x54c>
    fef4:	e1a00006 	mov	r0, r6
    fef8:	e3a0102d 	mov	r1, #45	; 0x2d
    fefc:	e1a02009 	mov	r2, r9
    ff00:	ebffff0c 	bl	fb38 <StringPutChar>
    ff04:	e1a00006 	mov	r0, r6
    ff08:	e28d100c 	add	r1, sp, #12
    ff0c:	ebffff22 	bl	fb9c <StringPutString>
    ff10:	e155000b 	cmp	r5, fp
    ff14:	9a000074 	bls	100ec <StringFormatV+0x468>
    ff18:	e1a00006 	mov	r0, r6
    ff1c:	e3a01020 	mov	r1, #32
    ff20:	e06b2005 	rsb	r2, fp, r5
    ff24:	ebffff03 	bl	fb38 <StringPutChar>
    ff28:	ea00006f 	b	100ec <StringFormatV+0x468>
    ff2c:	e1a0a009 	mov	sl, r9
    ff30:	ea000000 	b	ff38 <StringFormatV+0x2b4>
    ff34:	e1a0a007 	mov	sl, r7
    ff38:	e1a00006 	mov	r0, r6
    ff3c:	e3a01020 	mov	r1, #32
    ff40:	e06b2005 	rsb	r2, fp, r5
    ff44:	ebfffefb 	bl	fb38 <StringPutChar>
    ff48:	e35a0000 	cmp	sl, #0
    ff4c:	0a000003 	beq	ff60 <StringFormatV+0x2dc>
    ff50:	e1a00006 	mov	r0, r6
    ff54:	e3a0102d 	mov	r1, #45	; 0x2d
    ff58:	e1a02009 	mov	r2, r9
    ff5c:	ebfffef5 	bl	fb38 <StringPutChar>
    ff60:	e1a00006 	mov	r0, r6
    ff64:	e28d100c 	add	r1, sp, #12
    ff68:	ebffff0b 	bl	fb9c <StringPutString>
    ff6c:	ea00005e 	b	100ec <StringFormatV+0x468>
    ff70:	e1a04000 	mov	r4, r0
    ff74:	e2883004 	add	r3, r8, #4
    ff78:	e58d3004 	str	r3, [sp, #4]
    ff7c:	e5988000 	ldr	r8, [r8]
    ff80:	e1a00008 	mov	r0, r8
    ff84:	eb0000dc 	bl	102fc <uspi_strlen>
    ff88:	e1a0b000 	mov	fp, r0
    ff8c:	e35a0000 	cmp	sl, #0
    ff90:	0a00000b 	beq	ffc4 <StringFormatV+0x340>
    ff94:	e1a00006 	mov	r0, r6
    ff98:	e1a01008 	mov	r1, r8
    ff9c:	ebfffefe 	bl	fb9c <StringPutString>
    ffa0:	e15b0005 	cmp	fp, r5
    ffa4:	259d8004 	ldrcs	r8, [sp, #4]
    ffa8:	2a00004f 	bcs	100ec <StringFormatV+0x468>
    ffac:	e1a00006 	mov	r0, r6
    ffb0:	e3a01020 	mov	r1, #32
    ffb4:	e06b2005 	rsb	r2, fp, r5
    ffb8:	ebfffede 	bl	fb38 <StringPutChar>
    ffbc:	e59d8004 	ldr	r8, [sp, #4]
    ffc0:	ea000049 	b	100ec <StringFormatV+0x468>
    ffc4:	e1500005 	cmp	r0, r5
    ffc8:	2a000003 	bcs	ffdc <StringFormatV+0x358>
    ffcc:	e1a00006 	mov	r0, r6
    ffd0:	e3a01020 	mov	r1, #32
    ffd4:	e06b2005 	rsb	r2, fp, r5
    ffd8:	ebfffed6 	bl	fb38 <StringPutChar>
    ffdc:	e1a00006 	mov	r0, r6
    ffe0:	e1a01008 	mov	r1, r8
    ffe4:	ebfffeec 	bl	fb9c <StringPutString>
    ffe8:	e59d8004 	ldr	r8, [sp, #4]
    ffec:	ea00003e 	b	100ec <StringFormatV+0x468>
    fff0:	e1a04000 	mov	r4, r0
    fff4:	eaffffff 	b	fff8 <StringFormatV+0x374>
    fff8:	e3a03075 	mov	r3, #117	; 0x75
    fffc:	e3a0200a 	mov	r2, #10
   10000:	ea000007 	b	10024 <StringFormatV+0x3a0>
   10004:	e1a04000 	mov	r4, r0
   10008:	eaffffff 	b	1000c <StringFormatV+0x388>
   1000c:	e3a02010 	mov	r2, #16
   10010:	ea000003 	b	10024 <StringFormatV+0x3a0>
   10014:	e1a04000 	mov	r4, r0
   10018:	e3a02008 	mov	r2, #8
   1001c:	ea000000 	b	10024 <StringFormatV+0x3a0>
   10020:	e3a02008 	mov	r2, #8
   10024:	e5981000 	ldr	r1, [r8]
   10028:	e2888004 	add	r8, r8, #4
   1002c:	e6af3073 	sxtb	r3, r3
   10030:	e28d000c 	add	r0, sp, #12
   10034:	e3530058 	cmp	r3, #88	; 0x58
   10038:	13a03000 	movne	r3, #0
   1003c:	03a03001 	moveq	r3, #1
   10040:	ebfffeec 	bl	fbf8 <ntoa>
   10044:	e28d000c 	add	r0, sp, #12
   10048:	eb0000ab 	bl	102fc <uspi_strlen>
   1004c:	e1a0b000 	mov	fp, r0
   10050:	e35a0000 	cmp	sl, #0
   10054:	0a000009 	beq	10080 <StringFormatV+0x3fc>
   10058:	e1a00006 	mov	r0, r6
   1005c:	e28d100c 	add	r1, sp, #12
   10060:	ebfffecd 	bl	fb9c <StringPutString>
   10064:	e15b0005 	cmp	fp, r5
   10068:	2a00001f 	bcs	100ec <StringFormatV+0x468>
   1006c:	e1a00006 	mov	r0, r6
   10070:	e3a01020 	mov	r1, #32
   10074:	e06b2005 	rsb	r2, fp, r5
   10078:	ebfffeae 	bl	fb38 <StringPutChar>
   1007c:	ea00001a 	b	100ec <StringFormatV+0x468>
   10080:	e1500005 	cmp	r0, r5
   10084:	2a000006 	bcs	100a4 <StringFormatV+0x420>
   10088:	e59d3004 	ldr	r3, [sp, #4]
   1008c:	e3530000 	cmp	r3, #0
   10090:	e1a00006 	mov	r0, r6
   10094:	13a01030 	movne	r1, #48	; 0x30
   10098:	03a01020 	moveq	r1, #32
   1009c:	e06b2005 	rsb	r2, fp, r5
   100a0:	ebfffea4 	bl	fb38 <StringPutChar>
   100a4:	e1a00006 	mov	r0, r6
   100a8:	e28d100c 	add	r1, sp, #12
   100ac:	ebfffeba 	bl	fb9c <StringPutString>
   100b0:	ea00000d 	b	100ec <StringFormatV+0x468>
   100b4:	e1a04000 	mov	r4, r0
   100b8:	e1a00006 	mov	r0, r6
   100bc:	e3a01025 	mov	r1, #37	; 0x25
   100c0:	e1a02009 	mov	r2, r9
   100c4:	ebfffe9b 	bl	fb38 <StringPutChar>
   100c8:	e1a00006 	mov	r0, r6
   100cc:	e1d410d0 	ldrsb	r1, [r4]
   100d0:	e1a02009 	mov	r2, r9
   100d4:	ebfffe97 	bl	fb38 <StringPutChar>
   100d8:	ea000003 	b	100ec <StringFormatV+0x468>
   100dc:	e1a00006 	mov	r0, r6
   100e0:	e6af1071 	sxtb	r1, r1
   100e4:	e1a02009 	mov	r2, r9
   100e8:	ebfffe92 	bl	fb38 <StringPutChar>
   100ec:	e2844001 	add	r4, r4, #1
   100f0:	e5d41000 	ldrb	r1, [r4]
   100f4:	e3510000 	cmp	r1, #0
   100f8:	1afffef9 	bne	fce4 <StringFormatV+0x60>
   100fc:	e5963008 	ldr	r3, [r6, #8]
   10100:	e3a02000 	mov	r2, #0
   10104:	e5c32000 	strb	r2, [r3]
   10108:	ea000036 	b	101e8 <StringFormatV+0x564>
   1010c:	e5d43000 	ldrb	r3, [r4]
   10110:	e6af2073 	sxtb	r2, r3
   10114:	e2422058 	sub	r2, r2, #88	; 0x58
   10118:	e3520020 	cmp	r2, #32
   1011c:	979ff102 	ldrls	pc, [pc, r2, lsl #2]
   10120:	eaffffe4 	b	100b8 <StringFormatV+0x434>
   10124:	0001000c 	andeq	r0, r1, ip
   10128:	000100b8 	strheq	r0, [r1], -r8
   1012c:	000100b8 	strheq	r0, [r1], -r8
   10130:	000100b8 	strheq	r0, [r1], -r8
   10134:	000100b8 	strheq	r0, [r1], -r8
   10138:	000100b8 	strheq	r0, [r1], -r8
   1013c:	000100b8 	strheq	r0, [r1], -r8
   10140:	000100b8 	strheq	r0, [r1], -r8
   10144:	000100b8 	strheq	r0, [r1], -r8
   10148:	000100b8 	strheq	r0, [r1], -r8
   1014c:	000100b8 	strheq	r0, [r1], -r8
   10150:	0000fe38 	andeq	pc, r0, r8, lsr lr	; <UNPREDICTABLE>
   10154:	0000febc 			; <UNDEFINED> instruction: 0x0000febc
   10158:	000100b8 	strheq	r0, [r1], -r8
   1015c:	000100b8 	strheq	r0, [r1], -r8
   10160:	000100b8 	strheq	r0, [r1], -r8
   10164:	000100b8 	strheq	r0, [r1], -r8
   10168:	000100b8 	strheq	r0, [r1], -r8
   1016c:	000100b8 	strheq	r0, [r1], -r8
   10170:	000100b8 	strheq	r0, [r1], -r8
   10174:	000100b8 	strheq	r0, [r1], -r8
   10178:	000100b8 	strheq	r0, [r1], -r8
   1017c:	000100b8 	strheq	r0, [r1], -r8
   10180:	00010020 	andeq	r0, r1, r0, lsr #32
   10184:	000100b8 	strheq	r0, [r1], -r8
   10188:	000100b8 	strheq	r0, [r1], -r8
   1018c:	000100b8 	strheq	r0, [r1], -r8
   10190:	0000ff74 	andeq	pc, r0, r4, ror pc	; <UNPREDICTABLE>
   10194:	000100b8 	strheq	r0, [r1], -r8
   10198:	0000fff8 	strdeq	pc, [r0], -r8
   1019c:	000100b8 	strheq	r0, [r1], -r8
   101a0:	000100b8 	strheq	r0, [r1], -r8
   101a4:	0001000c 	andeq	r0, r1, ip
   101a8:	e28d000c 	add	r0, sp, #12
   101ac:	e3a0200a 	mov	r2, #10
   101b0:	e1a03007 	mov	r3, r7
   101b4:	ebfffe8f 	bl	fbf8 <ntoa>
   101b8:	e28d000c 	add	r0, sp, #12
   101bc:	eb00004e 	bl	102fc <uspi_strlen>
   101c0:	e1a0b000 	mov	fp, r0
   101c4:	e35a0000 	cmp	sl, #0
   101c8:	1affff4d 	bne	ff04 <StringFormatV+0x280>
   101cc:	ea000002 	b	101dc <StringFormatV+0x558>
   101d0:	e155000b 	cmp	r5, fp
   101d4:	9affff5d 	bls	ff50 <StringFormatV+0x2cc>
   101d8:	eaffff53 	b	ff2c <StringFormatV+0x2a8>
   101dc:	e1550000 	cmp	r5, r0
   101e0:	9affff5e 	bls	ff60 <StringFormatV+0x2dc>
   101e4:	eaffff52 	b	ff34 <StringFormatV+0x2b0>
   101e8:	e28dd01c 	add	sp, sp, #28
   101ec:	e8bd8ff0 	pop	{r4, r5, r6, r7, r8, r9, sl, fp, pc}

000101f0 <StringFormat>:
   101f0:	e92d000e 	push	{r1, r2, r3}
   101f4:	e92d4010 	push	{r4, lr}
   101f8:	e24dd00c 	sub	sp, sp, #12
   101fc:	e2504000 	subs	r4, r0, #0
   10200:	1a000005 	bne	1021c <StringFormat+0x2c>
   10204:	e3090ce4 	movw	r0, #40164	; 0x9ce4
   10208:	e3400001 	movt	r0, #1
   1020c:	e30a1cdc 	movw	r1, #44252	; 0xacdc
   10210:	e3401001 	movt	r1, #1
   10214:	e3a020a1 	mov	r2, #161	; 0xa1
   10218:	eb001f47 	bl	17f3c <uspi_assertion_failed>
   1021c:	e28d2018 	add	r2, sp, #24
   10220:	e58d2004 	str	r2, [sp, #4]
   10224:	e1a00004 	mov	r0, r4
   10228:	e59d1014 	ldr	r1, [sp, #20]
   1022c:	ebfffe94 	bl	fc84 <StringFormatV>
   10230:	e28dd00c 	add	sp, sp, #12
   10234:	e8bd4010 	pop	{r4, lr}
   10238:	e28dd00c 	add	sp, sp, #12
   1023c:	e12fff1e 	bx	lr

00010240 <uspi_memset>:
   10240:	e3520000 	cmp	r2, #0
   10244:	012fff1e 	bxeq	lr
   10248:	e0802002 	add	r2, r0, r2
   1024c:	e1a03000 	mov	r3, r0
   10250:	e4c31001 	strb	r1, [r3], #1
   10254:	e1530002 	cmp	r3, r2
   10258:	1afffffc 	bne	10250 <uspi_memset+0x10>
   1025c:	e12fff1e 	bx	lr

00010260 <uspi_memcpy>:
   10260:	e3520000 	cmp	r2, #0
   10264:	012fff1e 	bxeq	lr
   10268:	e2403001 	sub	r3, r0, #1
   1026c:	e0812002 	add	r2, r1, r2
   10270:	e4d1c001 	ldrb	ip, [r1], #1
   10274:	e5e3c001 	strb	ip, [r3, #1]!
   10278:	e1510002 	cmp	r1, r2
   1027c:	1afffffb 	bne	10270 <uspi_memcpy+0x10>
   10280:	e12fff1e 	bx	lr

00010284 <uspi_memcmp>:
   10284:	e3520000 	cmp	r2, #0
   10288:	0a000011 	beq	102d4 <uspi_memcmp+0x50>
   1028c:	e5d0c000 	ldrb	ip, [r0]
   10290:	e5d13000 	ldrb	r3, [r1]
   10294:	e15c0003 	cmp	ip, r3
   10298:	8a00000f 	bhi	102dc <uspi_memcmp+0x58>
   1029c:	3a000010 	bcc	102e4 <uspi_memcmp+0x60>
   102a0:	e52de004 	push	{lr}		; (str lr, [sp, #-4]!)
   102a4:	e2803001 	add	r3, r0, #1
   102a8:	e0800002 	add	r0, r0, r2
   102ac:	ea000004 	b	102c4 <uspi_memcmp+0x40>
   102b0:	e4d3e001 	ldrb	lr, [r3], #1
   102b4:	e5f1c001 	ldrb	ip, [r1, #1]!
   102b8:	e15e000c 	cmp	lr, ip
   102bc:	8a00000a 	bhi	102ec <uspi_memcmp+0x68>
   102c0:	3a00000b 	bcc	102f4 <uspi_memcmp+0x70>
   102c4:	e1530000 	cmp	r3, r0
   102c8:	1afffff8 	bne	102b0 <uspi_memcmp+0x2c>
   102cc:	e3a00000 	mov	r0, #0
   102d0:	e49df004 	pop	{pc}		; (ldr pc, [sp], #4)
   102d4:	e3a00000 	mov	r0, #0
   102d8:	e12fff1e 	bx	lr
   102dc:	e3a00001 	mov	r0, #1
   102e0:	e12fff1e 	bx	lr
   102e4:	e3e00000 	mvn	r0, #0
   102e8:	e12fff1e 	bx	lr
   102ec:	e3a00001 	mov	r0, #1
   102f0:	e49df004 	pop	{pc}		; (ldr pc, [sp], #4)
   102f4:	e3e00000 	mvn	r0, #0
   102f8:	e49df004 	pop	{pc}		; (ldr pc, [sp], #4)

000102fc <uspi_strlen>:
   102fc:	e1a01000 	mov	r1, r0
   10300:	e2803001 	add	r3, r0, #1
   10304:	e1d020d0 	ldrsb	r2, [r0]
   10308:	e3520000 	cmp	r2, #0
   1030c:	0a000004 	beq	10324 <uspi_strlen+0x28>
   10310:	e0610003 	rsb	r0, r1, r3
   10314:	e0d320d1 	ldrsb	r2, [r3], #1
   10318:	e3520000 	cmp	r2, #0
   1031c:	1afffffb 	bne	10310 <uspi_strlen+0x14>
   10320:	e12fff1e 	bx	lr
   10324:	e3a00000 	mov	r0, #0
   10328:	e12fff1e 	bx	lr

0001032c <uspi_strcmp>:
   1032c:	e52de004 	push	{lr}		; (str lr, [sp, #-4]!)
   10330:	e5d03000 	ldrb	r3, [r0]
   10334:	e3530000 	cmp	r3, #0
   10338:	0a000015 	beq	10394 <uspi_strcmp+0x68>
   1033c:	e5d12000 	ldrb	r2, [r1]
   10340:	e3520000 	cmp	r2, #0
   10344:	0a000012 	beq	10394 <uspi_strcmp+0x68>
   10348:	e6afc073 	sxtb	ip, r3
   1034c:	e6afe072 	sxtb	lr, r2
   10350:	e15c000e 	cmp	ip, lr
   10354:	ca000018 	bgt	103bc <uspi_strcmp+0x90>
   10358:	ba000019 	blt	103c4 <uspi_strcmp+0x98>
   1035c:	e281c001 	add	ip, r1, #1
   10360:	ea000004 	b	10378 <uspi_strcmp+0x4c>
   10364:	e6af1073 	sxtb	r1, r3
   10368:	e6afe072 	sxtb	lr, r2
   1036c:	e151000e 	cmp	r1, lr
   10370:	ca000015 	bgt	103cc <uspi_strcmp+0xa0>
   10374:	ba000016 	blt	103d4 <uspi_strcmp+0xa8>
   10378:	e1a0100c 	mov	r1, ip
   1037c:	e5f03001 	ldrb	r3, [r0, #1]!
   10380:	e3530000 	cmp	r3, #0
   10384:	0a000002 	beq	10394 <uspi_strcmp+0x68>
   10388:	e4dc2001 	ldrb	r2, [ip], #1
   1038c:	e3520000 	cmp	r2, #0
   10390:	1afffff3 	bne	10364 <uspi_strcmp+0x38>
   10394:	e5d10000 	ldrb	r0, [r1]
   10398:	e6af1070 	sxtb	r1, r0
   1039c:	e6af2073 	sxtb	r2, r3
   103a0:	e1510002 	cmp	r1, r2
   103a4:	ba00000c 	blt	103dc <uspi_strcmp+0xb0>
   103a8:	e1a00001 	mov	r0, r1
   103ac:	e1510002 	cmp	r1, r2
   103b0:	d3a00000 	movle	r0, #0
   103b4:	c3e00000 	mvngt	r0, #0
   103b8:	e49df004 	pop	{pc}		; (ldr pc, [sp], #4)
   103bc:	e3a00001 	mov	r0, #1
   103c0:	e49df004 	pop	{pc}		; (ldr pc, [sp], #4)
   103c4:	e3e00000 	mvn	r0, #0
   103c8:	e49df004 	pop	{pc}		; (ldr pc, [sp], #4)
   103cc:	e3a00001 	mov	r0, #1
   103d0:	e49df004 	pop	{pc}		; (ldr pc, [sp], #4)
   103d4:	e3e00000 	mvn	r0, #0
   103d8:	e49df004 	pop	{pc}		; (ldr pc, [sp], #4)
   103dc:	e3a00001 	mov	r0, #1
   103e0:	e49df004 	pop	{pc}		; (ldr pc, [sp], #4)

000103e4 <uspi_strcpy>:
   103e4:	e5d13000 	ldrb	r3, [r1]
   103e8:	e3530000 	cmp	r3, #0
   103ec:	0a000005 	beq	10408 <uspi_strcpy+0x24>
   103f0:	e1a02000 	mov	r2, r0
   103f4:	e4c23001 	strb	r3, [r2], #1
   103f8:	e5f13001 	ldrb	r3, [r1, #1]!
   103fc:	e3530000 	cmp	r3, #0
   10400:	1afffffb 	bne	103f4 <uspi_strcpy+0x10>
   10404:	ea000000 	b	1040c <uspi_strcpy+0x28>
   10408:	e1a02000 	mov	r2, r0
   1040c:	e3a03000 	mov	r3, #0
   10410:	e5c23000 	strb	r3, [r2]
   10414:	e12fff1e 	bx	lr

00010418 <uspi_strncpy>:
   10418:	e3520000 	cmp	r2, #0
   1041c:	012fff1e 	bxeq	lr
   10420:	e52de004 	push	{lr}		; (str lr, [sp, #-4]!)
   10424:	e5d13000 	ldrb	r3, [r1]
   10428:	e3530000 	cmp	r3, #0
   1042c:	0a00000a 	beq	1045c <uspi_strncpy+0x44>
   10430:	e281c001 	add	ip, r1, #1
   10434:	e0811002 	add	r1, r1, r2
   10438:	e1a0e000 	mov	lr, r0
   1043c:	ea000002 	b	1044c <uspi_strncpy+0x34>
   10440:	e4dc3001 	ldrb	r3, [ip], #1
   10444:	e3530000 	cmp	r3, #0
   10448:	0a000004 	beq	10460 <uspi_strncpy+0x48>
   1044c:	e4ce3001 	strb	r3, [lr], #1
   10450:	e15c0001 	cmp	ip, r1
   10454:	1afffff9 	bne	10440 <uspi_strncpy+0x28>
   10458:	e49df004 	pop	{pc}		; (ldr pc, [sp], #4)
   1045c:	e1a0e000 	mov	lr, r0
   10460:	e3a03000 	mov	r3, #0
   10464:	e5ce3000 	strb	r3, [lr]
   10468:	e49df004 	pop	{pc}		; (ldr pc, [sp], #4)

0001046c <uspi_strcat>:
   1046c:	e1d030d0 	ldrsb	r3, [r0]
   10470:	e3530000 	cmp	r3, #0
   10474:	0a000004 	beq	1048c <uspi_strcat+0x20>
   10478:	e1a03000 	mov	r3, r0
   1047c:	e1f320d1 	ldrsb	r2, [r3, #1]!
   10480:	e3520000 	cmp	r2, #0
   10484:	1afffffc 	bne	1047c <uspi_strcat+0x10>
   10488:	ea000000 	b	10490 <uspi_strcat+0x24>
   1048c:	e1a03000 	mov	r3, r0
   10490:	e5d12000 	ldrb	r2, [r1]
   10494:	e3520000 	cmp	r2, #0
   10498:	0a000003 	beq	104ac <uspi_strcat+0x40>
   1049c:	e4c32001 	strb	r2, [r3], #1
   104a0:	e5f12001 	ldrb	r2, [r1, #1]!
   104a4:	e3520000 	cmp	r2, #0
   104a8:	1afffffb 	bne	1049c <uspi_strcat+0x30>
   104ac:	e3a02000 	mov	r2, #0
   104b0:	e5c32000 	strb	r2, [r3]
   104b4:	e12fff1e 	bx	lr

000104b8 <uspi_char2int>:
   104b8:	e12fff1e 	bx	lr

000104bc <uspi_le2be16>:
   104bc:	e1a03420 	lsr	r3, r0, #8
   104c0:	e1830400 	orr	r0, r3, r0, lsl #8
   104c4:	e6ff0070 	uxth	r0, r0
   104c8:	e12fff1e 	bx	lr

000104cc <uspi_le2be32>:
   104cc:	e1a03c00 	lsl	r3, r0, #24
   104d0:	e1833c20 	orr	r3, r3, r0, lsr #24
   104d4:	e2002cff 	and	r2, r0, #65280	; 0xff00
   104d8:	e1833402 	orr	r3, r3, r2, lsl #8
   104dc:	e20008ff 	and	r0, r0, #16711680	; 0xff0000
   104e0:	e1830420 	orr	r0, r3, r0, lsr #8
   104e4:	e12fff1e 	bx	lr

000104e8 <USBBulkOnlyMassStorageDevice>:
   104e8:	e92d4038 	push	{r3, r4, r5, lr}
   104ec:	e1a05001 	mov	r5, r1
   104f0:	e2504000 	subs	r4, r0, #0
   104f4:	1a000005 	bne	10510 <USBBulkOnlyMassStorageDevice+0x28>
   104f8:	e3090ce4 	movw	r0, #40164	; 0x9ce4
   104fc:	e3400001 	movt	r0, #1
   10500:	e30a1cf0 	movw	r1, #44272	; 0xacf0
   10504:	e3401001 	movt	r1, #1
   10508:	e3a020c8 	mov	r2, #200	; 0xc8
   1050c:	eb001e8a 	bl	17f3c <uspi_assertion_failed>
   10510:	e1a00004 	mov	r0, r4
   10514:	e1a01005 	mov	r1, r5
   10518:	ebfff28e 	bl	cf58 <USBDeviceCopy>
   1051c:	e30038e0 	movw	r3, #2272	; 0x8e0
   10520:	e3403001 	movt	r3, #1
   10524:	e5843000 	str	r3, [r4]
   10528:	e3a03000 	mov	r3, #0
   1052c:	e584303c 	str	r3, [r4, #60]	; 0x3c
   10530:	e5843040 	str	r3, [r4, #64]	; 0x40
   10534:	e5843044 	str	r3, [r4, #68]	; 0x44
   10538:	e5843048 	str	r3, [r4, #72]	; 0x48
   1053c:	e3a02000 	mov	r2, #0
   10540:	e3a03000 	mov	r3, #0
   10544:	e1c425f0 	strd	r2, [r4, #80]	; 0x50
   10548:	e8bd8038 	pop	{r3, r4, r5, pc}

0001054c <_USBBulkOnlyMassStorageDevice>:
   1054c:	e92d4010 	push	{r4, lr}
   10550:	e2504000 	subs	r4, r0, #0
   10554:	1a000005 	bne	10570 <_USBBulkOnlyMassStorageDevice+0x24>
   10558:	e3090ce4 	movw	r0, #40164	; 0x9ce4
   1055c:	e3400001 	movt	r0, #1
   10560:	e30a1cf0 	movw	r1, #44272	; 0xacf0
   10564:	e3401001 	movt	r1, #1
   10568:	e3a020d6 	mov	r2, #214	; 0xd6
   1056c:	eb001e72 	bl	17f3c <uspi_assertion_failed>
   10570:	e5940040 	ldr	r0, [r4, #64]	; 0x40
   10574:	e3500000 	cmp	r0, #0
   10578:	0a000004 	beq	10590 <_USBBulkOnlyMassStorageDevice+0x44>
   1057c:	ebfff62d 	bl	de38 <_USBEndpoint>
   10580:	e5940040 	ldr	r0, [r4, #64]	; 0x40
   10584:	eb001612 	bl	15dd4 <free>
   10588:	e3a03000 	mov	r3, #0
   1058c:	e5843040 	str	r3, [r4, #64]	; 0x40
   10590:	e594003c 	ldr	r0, [r4, #60]	; 0x3c
   10594:	e3500000 	cmp	r0, #0
   10598:	0a000004 	beq	105b0 <_USBBulkOnlyMassStorageDevice+0x64>
   1059c:	ebfff625 	bl	de38 <_USBEndpoint>
   105a0:	e594003c 	ldr	r0, [r4, #60]	; 0x3c
   105a4:	eb00160a 	bl	15dd4 <free>
   105a8:	e3a03000 	mov	r3, #0
   105ac:	e584303c 	str	r3, [r4, #60]	; 0x3c
   105b0:	e1a00004 	mov	r0, r4
   105b4:	ebfff2df 	bl	d138 <_USBDevice>
   105b8:	e8bd8010 	pop	{r4, pc}

000105bc <USBBulkOnlyMassStorageDeviceSeek>:
   105bc:	e92d4070 	push	{r4, r5, r6, lr}
   105c0:	e1a04002 	mov	r4, r2
   105c4:	e1a05003 	mov	r5, r3
   105c8:	e2506000 	subs	r6, r0, #0
   105cc:	1a000005 	bne	105e8 <USBBulkOnlyMassStorageDeviceSeek+0x2c>
   105d0:	e3090ce4 	movw	r0, #40164	; 0x9ce4
   105d4:	e3400001 	movt	r0, #1
   105d8:	e30a1cf0 	movw	r1, #44272	; 0xacf0
   105dc:	e3401001 	movt	r1, #1
   105e0:	e30021e5 	movw	r2, #485	; 0x1e5
   105e4:	eb001e54 	bl	17f3c <uspi_assertion_failed>
   105e8:	e1c645f0 	strd	r4, [r6, #80]	; 0x50
   105ec:	e1a00004 	mov	r0, r4
   105f0:	e1a01005 	mov	r1, r5
   105f4:	e8bd8070 	pop	{r4, r5, r6, pc}

000105f8 <USBBulkOnlyMassStorageDeviceGetCapacity>:
   105f8:	e92d4010 	push	{r4, lr}
   105fc:	e2504000 	subs	r4, r0, #0
   10600:	1a000005 	bne	1061c <USBBulkOnlyMassStorageDeviceGetCapacity+0x24>
   10604:	e3090ce4 	movw	r0, #40164	; 0x9ce4
   10608:	e3400001 	movt	r0, #1
   1060c:	e30a1cf0 	movw	r1, #44272	; 0xacf0
   10610:	e3401001 	movt	r1, #1
   10614:	e30021ee 	movw	r2, #494	; 0x1ee
   10618:	eb001e47 	bl	17f3c <uspi_assertion_failed>
   1061c:	e5940048 	ldr	r0, [r4, #72]	; 0x48
   10620:	e8bd8010 	pop	{r4, pc}

00010624 <USBBulkOnlyMassStorageDeviceCommand>:
   10624:	e92d47f0 	push	{r4, r5, r6, r7, r8, r9, sl, lr}
   10628:	e24dd030 	sub	sp, sp, #48	; 0x30
   1062c:	e1a07001 	mov	r7, r1
   10630:	e1a05002 	mov	r5, r2
   10634:	e1a09003 	mov	r9, r3
   10638:	e59d6050 	ldr	r6, [sp, #80]	; 0x50
   1063c:	e59da054 	ldr	sl, [sp, #84]	; 0x54
   10640:	e2504000 	subs	r4, r0, #0
   10644:	1a000005 	bne	10660 <USBBulkOnlyMassStorageDeviceCommand+0x3c>
   10648:	e3090ce4 	movw	r0, #40164	; 0x9ce4
   1064c:	e3400001 	movt	r0, #1
   10650:	e30a1cf0 	movw	r1, #44272	; 0xacf0
   10654:	e3401001 	movt	r1, #1
   10658:	e3002249 	movw	r2, #585	; 0x249
   1065c:	eb001e36 	bl	17f3c <uspi_assertion_failed>
   10660:	e3570000 	cmp	r7, #0
   10664:	1a000005 	bne	10680 <USBBulkOnlyMassStorageDeviceCommand+0x5c>
   10668:	e30a0d00 	movw	r0, #44288	; 0xad00
   1066c:	e3400001 	movt	r0, #1
   10670:	e30a1cf0 	movw	r1, #44272	; 0xacf0
   10674:	e3401001 	movt	r1, #1
   10678:	e300224b 	movw	r2, #587	; 0x24b
   1067c:	eb001e2e 	bl	17f3c <uspi_assertion_failed>
   10680:	e2453006 	sub	r3, r5, #6
   10684:	e353000a 	cmp	r3, #10
   10688:	9a000005 	bls	106a4 <USBBulkOnlyMassStorageDeviceCommand+0x80>
   1068c:	e30a0d10 	movw	r0, #44304	; 0xad10
   10690:	e3400001 	movt	r0, #1
   10694:	e30a1cf0 	movw	r1, #44272	; 0xacf0
   10698:	e3401001 	movt	r1, #1
   1069c:	e3a02f93 	mov	r2, #588	; 0x24c
   106a0:	eb001e25 	bl	17f3c <uspi_assertion_failed>
   106a4:	e2968000 	adds	r8, r6, #0
   106a8:	13a08001 	movne	r8, #1
   106ac:	e3590000 	cmp	r9, #0
   106b0:	13a03000 	movne	r3, #0
   106b4:	02083001 	andeq	r3, r8, #1
   106b8:	e3530000 	cmp	r3, #0
   106bc:	0a000005 	beq	106d8 <USBBulkOnlyMassStorageDeviceCommand+0xb4>
   106c0:	e30a0d34 	movw	r0, #44340	; 0xad34
   106c4:	e3400001 	movt	r0, #1
   106c8:	e30a1cf0 	movw	r1, #44272	; 0xacf0
   106cc:	e3401001 	movt	r1, #1
   106d0:	e300224d 	movw	r2, #589	; 0x24d
   106d4:	eb001e18 	bl	17f3c <uspi_assertion_failed>
   106d8:	e28d0010 	add	r0, sp, #16
   106dc:	e3a01000 	mov	r1, #0
   106e0:	e3a0201f 	mov	r2, #31
   106e4:	ebfffed5 	bl	10240 <uspi_memset>
   106e8:	e3053355 	movw	r3, #21333	; 0x5355
   106ec:	e3443342 	movt	r3, #17218	; 0x4342
   106f0:	e58d3010 	str	r3, [sp, #16]
   106f4:	e5940044 	ldr	r0, [r4, #68]	; 0x44
   106f8:	e2800001 	add	r0, r0, #1
   106fc:	e5840044 	str	r0, [r4, #68]	; 0x44
   10700:	e58d0014 	str	r0, [sp, #20]
   10704:	e58d6018 	str	r6, [sp, #24]
   10708:	e35a0000 	cmp	sl, #0
   1070c:	13a03080 	movne	r3, #128	; 0x80
   10710:	03a03000 	moveq	r3, #0
   10714:	e5cd301c 	strb	r3, [sp, #28]
   10718:	e5dd301d 	ldrb	r3, [sp, #29]
   1071c:	e7c3301f 	bfc	r3, #0, #4
   10720:	e5cd301d 	strb	r3, [sp, #29]
   10724:	e5dd301e 	ldrb	r3, [sp, #30]
   10728:	e7c43015 	bfi	r3, r5, #0, #5
   1072c:	e5cd301e 	strb	r3, [sp, #30]
   10730:	e28d001f 	add	r0, sp, #31
   10734:	e1a01007 	mov	r1, r7
   10738:	e1a02005 	mov	r2, r5
   1073c:	ebfffec7 	bl	10260 <uspi_memcpy>
   10740:	e1a00004 	mov	r0, r4
   10744:	ebfff353 	bl	d498 <USBDeviceGetHost>
   10748:	e2507000 	subs	r7, r0, #0
   1074c:	1a000005 	bne	10768 <USBBulkOnlyMassStorageDeviceCommand+0x144>
   10750:	e30a0d54 	movw	r0, #44372	; 0xad54
   10754:	e3400001 	movt	r0, #1
   10758:	e30a1cf0 	movw	r1, #44272	; 0xacf0
   1075c:	e3401001 	movt	r1, #1
   10760:	e3a02f97 	mov	r2, #604	; 0x25c
   10764:	eb001df4 	bl	17f3c <uspi_assertion_failed>
   10768:	e1a00007 	mov	r0, r7
   1076c:	e5941040 	ldr	r1, [r4, #64]	; 0x40
   10770:	e28d2010 	add	r2, sp, #16
   10774:	e3a0301f 	mov	r3, #31
   10778:	ebffe787 	bl	a59c <DWHCIDeviceTransfer>
   1077c:	e3500000 	cmp	r0, #0
   10780:	aa000007 	bge	107a4 <USBBulkOnlyMassStorageDeviceCommand+0x180>
   10784:	e30a0ce8 	movw	r0, #44264	; 0xace8
   10788:	e3400001 	movt	r0, #1
   1078c:	e3a01001 	mov	r1, #1
   10790:	e30a2d60 	movw	r2, #44384	; 0xad60
   10794:	e3402001 	movt	r2, #1
   10798:	eb001dd5 	bl	17ef4 <LogWrite>
   1079c:	e3e00000 	mvn	r0, #0
   107a0:	ea00004c 	b	108d8 <USBBulkOnlyMassStorageDeviceCommand+0x2b4>
   107a4:	e3580000 	cmp	r8, #0
   107a8:	0a000010 	beq	107f0 <USBBulkOnlyMassStorageDeviceCommand+0x1cc>
   107ac:	e35a0000 	cmp	sl, #0
   107b0:	1594103c 	ldrne	r1, [r4, #60]	; 0x3c
   107b4:	05941040 	ldreq	r1, [r4, #64]	; 0x40
   107b8:	e1a00007 	mov	r0, r7
   107bc:	e1a02009 	mov	r2, r9
   107c0:	e1a03006 	mov	r3, r6
   107c4:	ebffe774 	bl	a59c <DWHCIDeviceTransfer>
   107c8:	e2505000 	subs	r5, r0, #0
   107cc:	aa000008 	bge	107f4 <USBBulkOnlyMassStorageDeviceCommand+0x1d0>
   107d0:	e30a0ce8 	movw	r0, #44264	; 0xace8
   107d4:	e3400001 	movt	r0, #1
   107d8:	e3a01001 	mov	r1, #1
   107dc:	e30a2d74 	movw	r2, #44404	; 0xad74
   107e0:	e3402001 	movt	r2, #1
   107e4:	eb001dc2 	bl	17ef4 <LogWrite>
   107e8:	e3e00000 	mvn	r0, #0
   107ec:	ea000039 	b	108d8 <USBBulkOnlyMassStorageDeviceCommand+0x2b4>
   107f0:	e3a05000 	mov	r5, #0
   107f4:	e1a00007 	mov	r0, r7
   107f8:	e594103c 	ldr	r1, [r4, #60]	; 0x3c
   107fc:	e1a0200d 	mov	r2, sp
   10800:	e3a0300d 	mov	r3, #13
   10804:	ebffe764 	bl	a59c <DWHCIDeviceTransfer>
   10808:	e350000d 	cmp	r0, #13
   1080c:	0a000007 	beq	10830 <USBBulkOnlyMassStorageDeviceCommand+0x20c>
   10810:	e30a0ce8 	movw	r0, #44264	; 0xace8
   10814:	e3400001 	movt	r0, #1
   10818:	e3a01001 	mov	r1, #1
   1081c:	e30a2d8c 	movw	r2, #44428	; 0xad8c
   10820:	e3402001 	movt	r2, #1
   10824:	eb001db2 	bl	17ef4 <LogWrite>
   10828:	e3e00000 	mvn	r0, #0
   1082c:	ea000029 	b	108d8 <USBBulkOnlyMassStorageDeviceCommand+0x2b4>
   10830:	e3053355 	movw	r3, #21333	; 0x5355
   10834:	e3453342 	movt	r3, #21314	; 0x5342
   10838:	e59d2000 	ldr	r2, [sp]
   1083c:	e1520003 	cmp	r2, r3
   10840:	0a000007 	beq	10864 <USBBulkOnlyMassStorageDeviceCommand+0x240>
   10844:	e30a0ce8 	movw	r0, #44264	; 0xace8
   10848:	e3400001 	movt	r0, #1
   1084c:	e3a01001 	mov	r1, #1
   10850:	e30a2da0 	movw	r2, #44448	; 0xada0
   10854:	e3402001 	movt	r2, #1
   10858:	eb001da5 	bl	17ef4 <LogWrite>
   1085c:	e3e00000 	mvn	r0, #0
   10860:	ea00001c 	b	108d8 <USBBulkOnlyMassStorageDeviceCommand+0x2b4>
   10864:	e5943044 	ldr	r3, [r4, #68]	; 0x44
   10868:	e59d2004 	ldr	r2, [sp, #4]
   1086c:	e1520003 	cmp	r2, r3
   10870:	0a000007 	beq	10894 <USBBulkOnlyMassStorageDeviceCommand+0x270>
   10874:	e30a0ce8 	movw	r0, #44264	; 0xace8
   10878:	e3400001 	movt	r0, #1
   1087c:	e3a01001 	mov	r1, #1
   10880:	e30a2db8 	movw	r2, #44472	; 0xadb8
   10884:	e3402001 	movt	r2, #1
   10888:	eb001d99 	bl	17ef4 <LogWrite>
   1088c:	e3e00000 	mvn	r0, #0
   10890:	ea000010 	b	108d8 <USBBulkOnlyMassStorageDeviceCommand+0x2b4>
   10894:	e5dd300c 	ldrb	r3, [sp, #12]
   10898:	e3530000 	cmp	r3, #0
   1089c:	1a00000b 	bne	108d0 <USBBulkOnlyMassStorageDeviceCommand+0x2ac>
   108a0:	e59d3008 	ldr	r3, [sp, #8]
   108a4:	e3530000 	cmp	r3, #0
   108a8:	01a00005 	moveq	r0, r5
   108ac:	0a000009 	beq	108d8 <USBBulkOnlyMassStorageDeviceCommand+0x2b4>
   108b0:	e30a0ce8 	movw	r0, #44264	; 0xace8
   108b4:	e3400001 	movt	r0, #1
   108b8:	e3a01001 	mov	r1, #1
   108bc:	e30a2dcc 	movw	r2, #44492	; 0xadcc
   108c0:	e3402001 	movt	r2, #1
   108c4:	eb001d8a 	bl	17ef4 <LogWrite>
   108c8:	e3e00000 	mvn	r0, #0
   108cc:	ea000001 	b	108d8 <USBBulkOnlyMassStorageDeviceCommand+0x2b4>
   108d0:	e3e00000 	mvn	r0, #0
   108d4:	eaffffff 	b	108d8 <USBBulkOnlyMassStorageDeviceCommand+0x2b4>
   108d8:	e28dd030 	add	sp, sp, #48	; 0x30
   108dc:	e8bd87f0 	pop	{r4, r5, r6, r7, r8, r9, sl, pc}

000108e0 <USBBulkOnlyMassStorageDeviceConfigure>:
   108e0:	e92d47f0 	push	{r4, r5, r6, r7, r8, r9, sl, lr}
   108e4:	e24dd078 	sub	sp, sp, #120	; 0x78
   108e8:	e2504000 	subs	r4, r0, #0
   108ec:	1a000005 	bne	10908 <USBBulkOnlyMassStorageDeviceConfigure+0x28>
   108f0:	e3090ce4 	movw	r0, #40164	; 0x9ce4
   108f4:	e3400001 	movt	r0, #1
   108f8:	e30a1cf0 	movw	r1, #44272	; 0xacf0
   108fc:	e3401001 	movt	r1, #1
   10900:	e3a020ec 	mov	r2, #236	; 0xec
   10904:	eb001d8c 	bl	17f3c <uspi_assertion_failed>
   10908:	e1a05004 	mov	r5, r4
   1090c:	e1a00004 	mov	r0, r4
   10910:	e3a01002 	mov	r1, #2
   10914:	ebfff31b 	bl	d588 <USBDeviceGetDescriptor>
   10918:	e3500000 	cmp	r0, #0
   1091c:	0a000002 	beq	1092c <USBBulkOnlyMassStorageDeviceConfigure+0x4c>
   10920:	e5d03004 	ldrb	r3, [r0, #4]
   10924:	e3530000 	cmp	r3, #0
   10928:	1a000005 	bne	10944 <USBBulkOnlyMassStorageDeviceConfigure+0x64>
   1092c:	e1a00004 	mov	r0, r4
   10930:	e30a1ce8 	movw	r1, #44264	; 0xace8
   10934:	e3401001 	movt	r1, #1
   10938:	ebfff329 	bl	d5e4 <USBDeviceConfigurationError>
   1093c:	e3a05000 	mov	r5, #0
   10940:	ea000134 	b	10e18 <USBBulkOnlyMassStorageDeviceConfigure+0x538>
   10944:	e1a00004 	mov	r0, r4
   10948:	e3a01004 	mov	r1, #4
   1094c:	ebfff30d 	bl	d588 <USBDeviceGetDescriptor>
   10950:	e3500000 	cmp	r0, #0
   10954:	0a000011 	beq	109a0 <USBBulkOnlyMassStorageDeviceConfigure+0xc0>
   10958:	e5d02002 	ldrb	r2, [r0, #2]
   1095c:	e3520000 	cmp	r2, #0
   10960:	1a00000e 	bne	109a0 <USBBulkOnlyMassStorageDeviceConfigure+0xc0>
   10964:	e5d02003 	ldrb	r2, [r0, #3]
   10968:	e3520000 	cmp	r2, #0
   1096c:	1a00000b 	bne	109a0 <USBBulkOnlyMassStorageDeviceConfigure+0xc0>
   10970:	e5d02004 	ldrb	r2, [r0, #4]
   10974:	e3520001 	cmp	r2, #1
   10978:	9a000008 	bls	109a0 <USBBulkOnlyMassStorageDeviceConfigure+0xc0>
   1097c:	e5d02005 	ldrb	r2, [r0, #5]
   10980:	e3520008 	cmp	r2, #8
   10984:	1a000005 	bne	109a0 <USBBulkOnlyMassStorageDeviceConfigure+0xc0>
   10988:	e5d02006 	ldrb	r2, [r0, #6]
   1098c:	e3520006 	cmp	r2, #6
   10990:	1a000002 	bne	109a0 <USBBulkOnlyMassStorageDeviceConfigure+0xc0>
   10994:	e5d03007 	ldrb	r3, [r0, #7]
   10998:	e3530050 	cmp	r3, #80	; 0x50
   1099c:	0a00003a 	beq	10a8c <USBBulkOnlyMassStorageDeviceConfigure+0x1ac>
   109a0:	e1a00004 	mov	r0, r4
   109a4:	e30a1ce8 	movw	r1, #44264	; 0xace8
   109a8:	e3401001 	movt	r1, #1
   109ac:	ebfff30c 	bl	d5e4 <USBDeviceConfigurationError>
   109b0:	e3a05000 	mov	r5, #0
   109b4:	ea000117 	b	10e18 <USBBulkOnlyMassStorageDeviceConfigure+0x538>
   109b8:	e5d63003 	ldrb	r3, [r6, #3]
   109bc:	e203303f 	and	r3, r3, #63	; 0x3f
   109c0:	e3530002 	cmp	r3, #2
   109c4:	1a000037 	bne	10aa8 <USBBulkOnlyMassStorageDeviceConfigure+0x1c8>
   109c8:	e1d630d2 	ldrsb	r3, [r6, #2]
   109cc:	e3530000 	cmp	r3, #0
   109d0:	aa000016 	bge	10a30 <USBBulkOnlyMassStorageDeviceConfigure+0x150>
   109d4:	e594303c 	ldr	r3, [r4, #60]	; 0x3c
   109d8:	e3530000 	cmp	r3, #0
   109dc:	0a000005 	beq	109f8 <USBBulkOnlyMassStorageDeviceConfigure+0x118>
   109e0:	e1a00004 	mov	r0, r4
   109e4:	e30a1ce8 	movw	r1, #44264	; 0xace8
   109e8:	e3401001 	movt	r1, #1
   109ec:	ebfff2fc 	bl	d5e4 <USBDeviceConfigurationError>
   109f0:	e3a05000 	mov	r5, #0
   109f4:	ea000107 	b	10e18 <USBBulkOnlyMassStorageDeviceConfigure+0x538>
   109f8:	e3a0001c 	mov	r0, #28
   109fc:	eb001498 	bl	15c64 <malloc>
   10a00:	e584003c 	str	r0, [r4, #60]	; 0x3c
   10a04:	e3500000 	cmp	r0, #0
   10a08:	1a000003 	bne	10a1c <USBBulkOnlyMassStorageDeviceConfigure+0x13c>
   10a0c:	e1a00009 	mov	r0, r9
   10a10:	e1a01008 	mov	r1, r8
   10a14:	e3002116 	movw	r2, #278	; 0x116
   10a18:	eb001d47 	bl	17f3c <uspi_assertion_failed>
   10a1c:	e594003c 	ldr	r0, [r4, #60]	; 0x3c
   10a20:	e1a01005 	mov	r1, r5
   10a24:	e1a02006 	mov	r2, r6
   10a28:	ebfff46c 	bl	dbe0 <USBEndpoint2>
   10a2c:	ea00001c 	b	10aa4 <USBBulkOnlyMassStorageDeviceConfigure+0x1c4>
   10a30:	e5943040 	ldr	r3, [r4, #64]	; 0x40
   10a34:	e3530000 	cmp	r3, #0
   10a38:	0a000005 	beq	10a54 <USBBulkOnlyMassStorageDeviceConfigure+0x174>
   10a3c:	e1a00004 	mov	r0, r4
   10a40:	e30a1ce8 	movw	r1, #44264	; 0xace8
   10a44:	e3401001 	movt	r1, #1
   10a48:	ebfff2e5 	bl	d5e4 <USBDeviceConfigurationError>
   10a4c:	e3a05000 	mov	r5, #0
   10a50:	ea0000f0 	b	10e18 <USBBulkOnlyMassStorageDeviceConfigure+0x538>
   10a54:	e3a0001c 	mov	r0, #28
   10a58:	eb001481 	bl	15c64 <malloc>
   10a5c:	e5840040 	str	r0, [r4, #64]	; 0x40
   10a60:	e3500000 	cmp	r0, #0
   10a64:	1a000003 	bne	10a78 <USBBulkOnlyMassStorageDeviceConfigure+0x198>
   10a68:	e1a0000a 	mov	r0, sl
   10a6c:	e1a01008 	mov	r1, r8
   10a70:	e3002123 	movw	r2, #291	; 0x123
   10a74:	eb001d30 	bl	17f3c <uspi_assertion_failed>
   10a78:	e5940040 	ldr	r0, [r4, #64]	; 0x40
   10a7c:	e1a01005 	mov	r1, r5
   10a80:	e1a02006 	mov	r2, r6
   10a84:	ebfff455 	bl	dbe0 <USBEndpoint2>
   10a88:	ea000005 	b	10aa4 <USBBulkOnlyMassStorageDeviceConfigure+0x1c4>
   10a8c:	e30aae00 	movw	sl, #44544	; 0xae00
   10a90:	e340a001 	movt	sl, #1
   10a94:	e30a8cf0 	movw	r8, #44272	; 0xacf0
   10a98:	e3408001 	movt	r8, #1
   10a9c:	e30a9de4 	movw	r9, #44516	; 0xade4
   10aa0:	e3409001 	movt	r9, #1
   10aa4:	e3a07005 	mov	r7, #5
   10aa8:	e1a00005 	mov	r0, r5
   10aac:	e1a01007 	mov	r1, r7
   10ab0:	ebfff2b4 	bl	d588 <USBDeviceGetDescriptor>
   10ab4:	e2506000 	subs	r6, r0, #0
   10ab8:	1affffbe 	bne	109b8 <USBBulkOnlyMassStorageDeviceConfigure+0xd8>
   10abc:	e594303c 	ldr	r3, [r4, #60]	; 0x3c
   10ac0:	e3530000 	cmp	r3, #0
   10ac4:	0a000002 	beq	10ad4 <USBBulkOnlyMassStorageDeviceConfigure+0x1f4>
   10ac8:	e5943040 	ldr	r3, [r4, #64]	; 0x40
   10acc:	e3530000 	cmp	r3, #0
   10ad0:	1a000005 	bne	10aec <USBBulkOnlyMassStorageDeviceConfigure+0x20c>
   10ad4:	e1a00004 	mov	r0, r4
   10ad8:	e30a1ce8 	movw	r1, #44264	; 0xace8
   10adc:	e3401001 	movt	r1, #1
   10ae0:	ebfff2bf 	bl	d5e4 <USBDeviceConfigurationError>
   10ae4:	e3a05000 	mov	r5, #0
   10ae8:	ea0000ca 	b	10e18 <USBBulkOnlyMassStorageDeviceConfigure+0x538>
   10aec:	e1a00004 	mov	r0, r4
   10af0:	ebfff09f 	bl	cd74 <USBDeviceConfigure>
   10af4:	e2505000 	subs	r5, r0, #0
   10af8:	1a000006 	bne	10b18 <USBBulkOnlyMassStorageDeviceConfigure+0x238>
   10afc:	e30a0ce8 	movw	r0, #44264	; 0xace8
   10b00:	e3400001 	movt	r0, #1
   10b04:	e3a01001 	mov	r1, #1
   10b08:	e30a2bb8 	movw	r2, #43960	; 0xabb8
   10b0c:	e3402001 	movt	r2, #1
   10b10:	eb001cf7 	bl	17ef4 <LogWrite>
   10b14:	ea0000bf 	b	10e18 <USBBulkOnlyMassStorageDeviceConfigure+0x538>
   10b18:	e3a03012 	mov	r3, #18
   10b1c:	e5cd3070 	strb	r3, [sp, #112]	; 0x70
   10b20:	e3a03000 	mov	r3, #0
   10b24:	e5cd3071 	strb	r3, [sp, #113]	; 0x71
   10b28:	e5cd3072 	strb	r3, [sp, #114]	; 0x72
   10b2c:	e5cd3073 	strb	r3, [sp, #115]	; 0x73
   10b30:	e3a02024 	mov	r2, #36	; 0x24
   10b34:	e5cd2074 	strb	r2, [sp, #116]	; 0x74
   10b38:	e5cd3075 	strb	r3, [sp, #117]	; 0x75
   10b3c:	e58d2000 	str	r2, [sp]
   10b40:	e3a03001 	mov	r3, #1
   10b44:	e58d3004 	str	r3, [sp, #4]
   10b48:	e1a00004 	mov	r0, r4
   10b4c:	e28d1070 	add	r1, sp, #112	; 0x70
   10b50:	e3a02006 	mov	r2, #6
   10b54:	e28d304c 	add	r3, sp, #76	; 0x4c
   10b58:	ebfffeb1 	bl	10624 <USBBulkOnlyMassStorageDeviceCommand>
   10b5c:	e3500024 	cmp	r0, #36	; 0x24
   10b60:	0a000007 	beq	10b84 <USBBulkOnlyMassStorageDeviceConfigure+0x2a4>
   10b64:	e30a0ce8 	movw	r0, #44264	; 0xace8
   10b68:	e3400001 	movt	r0, #1
   10b6c:	e3a01001 	mov	r1, #1
   10b70:	e30a2e1c 	movw	r2, #44572	; 0xae1c
   10b74:	e3402001 	movt	r2, #1
   10b78:	eb001cdd 	bl	17ef4 <LogWrite>
   10b7c:	e3a05000 	mov	r5, #0
   10b80:	ea0000a4 	b	10e18 <USBBulkOnlyMassStorageDeviceConfigure+0x538>
   10b84:	e5dd304c 	ldrb	r3, [sp, #76]	; 0x4c
   10b88:	e313001f 	tst	r3, #31
   10b8c:	03a06063 	moveq	r6, #99	; 0x63
   10b90:	03a05000 	moveq	r5, #0
   10b94:	03a07006 	moveq	r7, #6
   10b98:	0a000008 	beq	10bc0 <USBBulkOnlyMassStorageDeviceConfigure+0x2e0>
   10b9c:	e30a0ce8 	movw	r0, #44264	; 0xace8
   10ba0:	e3400001 	movt	r0, #1
   10ba4:	e3a01001 	mov	r1, #1
   10ba8:	e30a2e34 	movw	r2, #44596	; 0xae34
   10bac:	e3402001 	movt	r2, #1
   10bb0:	e203301f 	and	r3, r3, #31
   10bb4:	eb001cce 	bl	17ef4 <LogWrite>
   10bb8:	e3a05000 	mov	r5, #0
   10bbc:	ea000095 	b	10e18 <USBBulkOnlyMassStorageDeviceConfigure+0x538>
   10bc0:	e5cd5008 	strb	r5, [sp, #8]
   10bc4:	e5cd5009 	strb	r5, [sp, #9]
   10bc8:	e5cd500a 	strb	r5, [sp, #10]
   10bcc:	e5cd500b 	strb	r5, [sp, #11]
   10bd0:	e5cd500c 	strb	r5, [sp, #12]
   10bd4:	e5cd500d 	strb	r5, [sp, #13]
   10bd8:	e58d5000 	str	r5, [sp]
   10bdc:	e58d5004 	str	r5, [sp, #4]
   10be0:	e1a00004 	mov	r0, r4
   10be4:	e28d1008 	add	r1, sp, #8
   10be8:	e1a02007 	mov	r2, r7
   10bec:	e1a03005 	mov	r3, r5
   10bf0:	ebfffe8b 	bl	10624 <USBBulkOnlyMassStorageDeviceCommand>
   10bf4:	e3500000 	cmp	r0, #0
   10bf8:	aa000020 	bge	10c80 <USBBulkOnlyMassStorageDeviceConfigure+0x3a0>
   10bfc:	e3a03003 	mov	r3, #3
   10c00:	e5cd3010 	strb	r3, [sp, #16]
   10c04:	e5dd3011 	ldrb	r3, [sp, #17]
   10c08:	e20330fe 	and	r3, r3, #254	; 0xfe
   10c0c:	e7c7309f 	bfc	r3, #1, #7
   10c10:	e5cd3011 	strb	r3, [sp, #17]
   10c14:	e1cd51b2 	strh	r5, [sp, #18]
   10c18:	e3a03012 	mov	r3, #18
   10c1c:	e5cd3014 	strb	r3, [sp, #20]
   10c20:	e5cd5015 	strb	r5, [sp, #21]
   10c24:	e58d3000 	str	r3, [sp]
   10c28:	e3a03001 	mov	r3, #1
   10c2c:	e58d3004 	str	r3, [sp, #4]
   10c30:	e1a00004 	mov	r0, r4
   10c34:	e28d1010 	add	r1, sp, #16
   10c38:	e1a02007 	mov	r2, r7
   10c3c:	e28d3018 	add	r3, sp, #24
   10c40:	ebfffe77 	bl	10624 <USBBulkOnlyMassStorageDeviceCommand>
   10c44:	e3500000 	cmp	r0, #0
   10c48:	aa000007 	bge	10c6c <USBBulkOnlyMassStorageDeviceConfigure+0x38c>
   10c4c:	e30a0ce8 	movw	r0, #44264	; 0xace8
   10c50:	e3400001 	movt	r0, #1
   10c54:	e3a01001 	mov	r1, #1
   10c58:	e30a2e54 	movw	r2, #44628	; 0xae54
   10c5c:	e3402001 	movt	r2, #1
   10c60:	eb001ca3 	bl	17ef4 <LogWrite>
   10c64:	e3a05000 	mov	r5, #0
   10c68:	ea00006a 	b	10e18 <USBBulkOnlyMassStorageDeviceConfigure+0x538>
   10c6c:	e3a00064 	mov	r0, #100	; 0x64
   10c70:	eb001c3a 	bl	17d60 <MsDelay>
   10c74:	e2566001 	subs	r6, r6, #1
   10c78:	1affffd0 	bne	10bc0 <USBBulkOnlyMassStorageDeviceConfigure+0x2e0>
   10c7c:	ea000001 	b	10c88 <USBBulkOnlyMassStorageDeviceConfigure+0x3a8>
   10c80:	e3560000 	cmp	r6, #0
   10c84:	1a000007 	bne	10ca8 <USBBulkOnlyMassStorageDeviceConfigure+0x3c8>
   10c88:	e30a0ce8 	movw	r0, #44264	; 0xace8
   10c8c:	e3400001 	movt	r0, #1
   10c90:	e3a01001 	mov	r1, #1
   10c94:	e30a2e6c 	movw	r2, #44652	; 0xae6c
   10c98:	e3402001 	movt	r2, #1
   10c9c:	eb001c94 	bl	17ef4 <LogWrite>
   10ca0:	e3a05000 	mov	r5, #0
   10ca4:	ea00005b 	b	10e18 <USBBulkOnlyMassStorageDeviceConfigure+0x538>
   10ca8:	e3a03025 	mov	r3, #37	; 0x25
   10cac:	e5cd3040 	strb	r3, [sp, #64]	; 0x40
   10cb0:	e5dd3041 	ldrb	r3, [sp, #65]	; 0x41
   10cb4:	e20330fe 	and	r3, r3, #254	; 0xfe
   10cb8:	e7c7309f 	bfc	r3, #1, #7
   10cbc:	e5cd3041 	strb	r3, [sp, #65]	; 0x41
   10cc0:	e3a03000 	mov	r3, #0
   10cc4:	e1cd34b2 	strh	r3, [sp, #66]	; 0x42
   10cc8:	e1cd34b4 	strh	r3, [sp, #68]	; 0x44
   10ccc:	e1cd34b6 	strh	r3, [sp, #70]	; 0x46
   10cd0:	e5dd2048 	ldrb	r2, [sp, #72]	; 0x48
   10cd4:	e20220fe 	and	r2, r2, #254	; 0xfe
   10cd8:	e7c72093 	bfi	r2, r3, #1, #7
   10cdc:	e5cd2048 	strb	r2, [sp, #72]	; 0x48
   10ce0:	e5cd3049 	strb	r3, [sp, #73]	; 0x49
   10ce4:	e3a03008 	mov	r3, #8
   10ce8:	e58d3000 	str	r3, [sp]
   10cec:	e3a03001 	mov	r3, #1
   10cf0:	e58d3004 	str	r3, [sp, #4]
   10cf4:	e1a00004 	mov	r0, r4
   10cf8:	e28d1040 	add	r1, sp, #64	; 0x40
   10cfc:	e3a0200a 	mov	r2, #10
   10d00:	e28d3038 	add	r3, sp, #56	; 0x38
   10d04:	ebfffe46 	bl	10624 <USBBulkOnlyMassStorageDeviceCommand>
   10d08:	e3500008 	cmp	r0, #8
   10d0c:	0a000007 	beq	10d30 <USBBulkOnlyMassStorageDeviceConfigure+0x450>
   10d10:	e30a0ce8 	movw	r0, #44264	; 0xace8
   10d14:	e3400001 	movt	r0, #1
   10d18:	e3a01001 	mov	r1, #1
   10d1c:	e30a2e80 	movw	r2, #44672	; 0xae80
   10d20:	e3402001 	movt	r2, #1
   10d24:	eb001c72 	bl	17ef4 <LogWrite>
   10d28:	e3a05000 	mov	r5, #0
   10d2c:	ea000039 	b	10e18 <USBBulkOnlyMassStorageDeviceConfigure+0x538>
   10d30:	e59d003c 	ldr	r0, [sp, #60]	; 0x3c
   10d34:	ebfffde4 	bl	104cc <uspi_le2be32>
   10d38:	e1a03000 	mov	r3, r0
   10d3c:	e3500c02 	cmp	r0, #512	; 0x200
   10d40:	0a000007 	beq	10d64 <USBBulkOnlyMassStorageDeviceConfigure+0x484>
   10d44:	e30a0ce8 	movw	r0, #44264	; 0xace8
   10d48:	e3400001 	movt	r0, #1
   10d4c:	e3a01001 	mov	r1, #1
   10d50:	e30a2e98 	movw	r2, #44696	; 0xae98
   10d54:	e3402001 	movt	r2, #1
   10d58:	eb001c65 	bl	17ef4 <LogWrite>
   10d5c:	e3a05000 	mov	r5, #0
   10d60:	ea00002c 	b	10e18 <USBBulkOnlyMassStorageDeviceConfigure+0x538>
   10d64:	e59d0038 	ldr	r0, [sp, #56]	; 0x38
   10d68:	ebfffdd7 	bl	104cc <uspi_le2be32>
   10d6c:	e5840048 	str	r0, [r4, #72]	; 0x48
   10d70:	e3700001 	cmn	r0, #1
   10d74:	1a000007 	bne	10d98 <USBBulkOnlyMassStorageDeviceConfigure+0x4b8>
   10d78:	e30a0ce8 	movw	r0, #44264	; 0xace8
   10d7c:	e3400001 	movt	r0, #1
   10d80:	e3a01001 	mov	r1, #1
   10d84:	e30a2eb4 	movw	r2, #44724	; 0xaeb4
   10d88:	e3402001 	movt	r2, #1
   10d8c:	eb001c58 	bl	17ef4 <LogWrite>
   10d90:	e3a05000 	mov	r5, #0
   10d94:	ea00001f 	b	10e18 <USBBulkOnlyMassStorageDeviceConfigure+0x538>
   10d98:	e2803001 	add	r3, r0, #1
   10d9c:	e5843048 	str	r3, [r4, #72]	; 0x48
   10da0:	e30a0ce8 	movw	r0, #44264	; 0xace8
   10da4:	e3400001 	movt	r0, #1
   10da8:	e3a01004 	mov	r1, #4
   10dac:	e30a2ed0 	movw	r2, #44752	; 0xaed0
   10db0:	e3402001 	movt	r2, #1
   10db4:	e1a035a3 	lsr	r3, r3, #11
   10db8:	eb001c4d 	bl	17ef4 <LogWrite>
   10dbc:	e28d002c 	add	r0, sp, #44	; 0x2c
   10dc0:	ebfffa7a 	bl	f7b0 <String>
   10dc4:	e30c35bc 	movw	r3, #50620	; 0xc5bc
   10dc8:	e3403001 	movt	r3, #1
   10dcc:	e5932000 	ldr	r2, [r3]
   10dd0:	e2821001 	add	r1, r2, #1
   10dd4:	e5831000 	str	r1, [r3]
   10dd8:	e28d002c 	add	r0, sp, #44	; 0x2c
   10ddc:	e3091c38 	movw	r1, #39992	; 0x9c38
   10de0:	e3401001 	movt	r1, #1
   10de4:	ebfffd01 	bl	101f0 <StringFormat>
   10de8:	ebfff69d 	bl	e864 <DeviceNameServiceGet>
   10dec:	e1a05000 	mov	r5, r0
   10df0:	e28d002c 	add	r0, sp, #44	; 0x2c
   10df4:	ebfffa9d 	bl	f870 <StringGet>
   10df8:	e1a01000 	mov	r1, r0
   10dfc:	e1a00005 	mov	r0, r5
   10e00:	e1a02004 	mov	r2, r4
   10e04:	e3a03001 	mov	r3, #1
   10e08:	ebfff61d 	bl	e684 <DeviceNameServiceAddDevice>
   10e0c:	e28d002c 	add	r0, sp, #44	; 0x2c
   10e10:	ebfffa86 	bl	f830 <_String>
   10e14:	e3a05001 	mov	r5, #1
   10e18:	e1a00005 	mov	r0, r5
   10e1c:	e28dd078 	add	sp, sp, #120	; 0x78
   10e20:	e8bd87f0 	pop	{r4, r5, r6, r7, r8, r9, sl, pc}

00010e24 <USBBulkOnlyMassStorageDeviceTryRead>:
   10e24:	e92d43f0 	push	{r4, r5, r6, r7, r8, r9, lr}
   10e28:	e24dd01c 	sub	sp, sp, #28
   10e2c:	e1a05001 	mov	r5, r1
   10e30:	e1a04002 	mov	r4, r2
   10e34:	e2506000 	subs	r6, r0, #0
   10e38:	1a000005 	bne	10e54 <USBBulkOnlyMassStorageDeviceTryRead+0x30>
   10e3c:	e3090ce4 	movw	r0, #40164	; 0x9ce4
   10e40:	e3400001 	movt	r0, #1
   10e44:	e30a1cf0 	movw	r1, #44272	; 0xacf0
   10e48:	e3401001 	movt	r1, #1
   10e4c:	e30021f5 	movw	r2, #501	; 0x1f5
   10e50:	eb001c39 	bl	17f3c <uspi_assertion_failed>
   10e54:	e3550000 	cmp	r5, #0
   10e58:	1a000005 	bne	10e74 <USBBulkOnlyMassStorageDeviceTryRead+0x50>
   10e5c:	e30a0d44 	movw	r0, #44356	; 0xad44
   10e60:	e3400001 	movt	r0, #1
   10e64:	e30a1cf0 	movw	r1, #44272	; 0xacf0
   10e68:	e3401001 	movt	r1, #1
   10e6c:	e30021f7 	movw	r2, #503	; 0x1f7
   10e70:	eb001c31 	bl	17f3c <uspi_assertion_failed>
   10e74:	e1c685d0 	ldrd	r8, [r6, #80]	; 0x50
   10e78:	e30021ff 	movw	r2, #511	; 0x1ff
   10e7c:	e3a03000 	mov	r3, #0
   10e80:	e0022008 	and	r2, r2, r8
   10e84:	e0033009 	and	r3, r3, r9
   10e88:	e1923003 	orrs	r3, r2, r3
   10e8c:	13a03001 	movne	r3, #1
   10e90:	03a03000 	moveq	r3, #0
   10e94:	e3e00000 	mvn	r0, #0
   10e98:	e30011ff 	movw	r1, #511	; 0x1ff
   10e9c:	e1590001 	cmp	r9, r1
   10ea0:	01580000 	cmpeq	r8, r0
   10ea4:	83833001 	orrhi	r3, r3, #1
   10ea8:	e3530000 	cmp	r3, #0
   10eac:	1a000022 	bne	10f3c <USBBulkOnlyMassStorageDeviceTryRead+0x118>
   10eb0:	e1a004a8 	lsr	r0, r8, #9
   10eb4:	e1800b89 	orr	r0, r0, r9, lsl #23
   10eb8:	e7e83054 	ubfx	r3, r4, #0, #9
   10ebc:	e3530000 	cmp	r3, #0
   10ec0:	1a00001f 	bne	10f44 <USBBulkOnlyMassStorageDeviceTryRead+0x120>
   10ec4:	e3a03028 	mov	r3, #40	; 0x28
   10ec8:	e5cd300c 	strb	r3, [sp, #12]
   10ecc:	e3a07000 	mov	r7, #0
   10ed0:	e5cd700d 	strb	r7, [sp, #13]
   10ed4:	ebfffd7c 	bl	104cc <uspi_le2be32>
   10ed8:	e58d000e 	str	r0, [sp, #14]
   10edc:	e5cd7012 	strb	r7, [sp, #18]
   10ee0:	e7ef04d4 	ubfx	r0, r4, #9, #16
   10ee4:	ebfffd74 	bl	104bc <uspi_le2be16>
   10ee8:	e1cd01b3 	strh	r0, [sp, #19]
   10eec:	e5cd7015 	strb	r7, [sp, #21]
   10ef0:	e58d4000 	str	r4, [sp]
   10ef4:	e3a03001 	mov	r3, #1
   10ef8:	e58d3004 	str	r3, [sp, #4]
   10efc:	e1a00006 	mov	r0, r6
   10f00:	e28d100c 	add	r1, sp, #12
   10f04:	e3a0200a 	mov	r2, #10
   10f08:	e1a03005 	mov	r3, r5
   10f0c:	ebfffdc4 	bl	10624 <USBBulkOnlyMassStorageDeviceCommand>
   10f10:	e1a03004 	mov	r3, r4
   10f14:	e1500004 	cmp	r0, r4
   10f18:	0a00000a 	beq	10f48 <USBBulkOnlyMassStorageDeviceTryRead+0x124>
   10f1c:	e30a0ce8 	movw	r0, #44264	; 0xace8
   10f20:	e3400001 	movt	r0, #1
   10f24:	e3a01001 	mov	r1, #1
   10f28:	e30a2ee8 	movw	r2, #44776	; 0xaee8
   10f2c:	e3402001 	movt	r2, #1
   10f30:	eb001bef 	bl	17ef4 <LogWrite>
   10f34:	e3e03000 	mvn	r3, #0
   10f38:	ea000002 	b	10f48 <USBBulkOnlyMassStorageDeviceTryRead+0x124>
   10f3c:	e3e03000 	mvn	r3, #0
   10f40:	ea000000 	b	10f48 <USBBulkOnlyMassStorageDeviceTryRead+0x124>
   10f44:	e3e03000 	mvn	r3, #0
   10f48:	e1a00003 	mov	r0, r3
   10f4c:	e28dd01c 	add	sp, sp, #28
   10f50:	e8bd83f0 	pop	{r4, r5, r6, r7, r8, r9, pc}

00010f54 <USBBulkOnlyMassStorageDeviceTryWrite>:
   10f54:	e92d43f0 	push	{r4, r5, r6, r7, r8, r9, lr}
   10f58:	e24dd01c 	sub	sp, sp, #28
   10f5c:	e1a05001 	mov	r5, r1
   10f60:	e1a04002 	mov	r4, r2
   10f64:	e2506000 	subs	r6, r0, #0
   10f68:	1a000005 	bne	10f84 <USBBulkOnlyMassStorageDeviceTryWrite+0x30>
   10f6c:	e3090ce4 	movw	r0, #40164	; 0x9ce4
   10f70:	e3400001 	movt	r0, #1
   10f74:	e30a1cf0 	movw	r1, #44272	; 0xacf0
   10f78:	e3401001 	movt	r1, #1
   10f7c:	e300221e 	movw	r2, #542	; 0x21e
   10f80:	eb001bed 	bl	17f3c <uspi_assertion_failed>
   10f84:	e3550000 	cmp	r5, #0
   10f88:	1a000005 	bne	10fa4 <USBBulkOnlyMassStorageDeviceTryWrite+0x50>
   10f8c:	e30a0d44 	movw	r0, #44356	; 0xad44
   10f90:	e3400001 	movt	r0, #1
   10f94:	e30a1cf0 	movw	r1, #44272	; 0xacf0
   10f98:	e3401001 	movt	r1, #1
   10f9c:	e3a02e22 	mov	r2, #544	; 0x220
   10fa0:	eb001be5 	bl	17f3c <uspi_assertion_failed>
   10fa4:	e1c685d0 	ldrd	r8, [r6, #80]	; 0x50
   10fa8:	e30021ff 	movw	r2, #511	; 0x1ff
   10fac:	e3a03000 	mov	r3, #0
   10fb0:	e0022008 	and	r2, r2, r8
   10fb4:	e0033009 	and	r3, r3, r9
   10fb8:	e1923003 	orrs	r3, r2, r3
   10fbc:	13a03001 	movne	r3, #1
   10fc0:	03a03000 	moveq	r3, #0
   10fc4:	e3e00000 	mvn	r0, #0
   10fc8:	e30011ff 	movw	r1, #511	; 0x1ff
   10fcc:	e1590001 	cmp	r9, r1
   10fd0:	01580000 	cmpeq	r8, r0
   10fd4:	83833001 	orrhi	r3, r3, #1
   10fd8:	e3530000 	cmp	r3, #0
   10fdc:	1a000022 	bne	1106c <USBBulkOnlyMassStorageDeviceTryWrite+0x118>
   10fe0:	e1a004a8 	lsr	r0, r8, #9
   10fe4:	e1800b89 	orr	r0, r0, r9, lsl #23
   10fe8:	e7e83054 	ubfx	r3, r4, #0, #9
   10fec:	e3530000 	cmp	r3, #0
   10ff0:	1a00001f 	bne	11074 <USBBulkOnlyMassStorageDeviceTryWrite+0x120>
   10ff4:	e3a0302a 	mov	r3, #42	; 0x2a
   10ff8:	e5cd300c 	strb	r3, [sp, #12]
   10ffc:	e3a03008 	mov	r3, #8
   11000:	e5cd300d 	strb	r3, [sp, #13]
   11004:	ebfffd30 	bl	104cc <uspi_le2be32>
   11008:	e58d000e 	str	r0, [sp, #14]
   1100c:	e3a07000 	mov	r7, #0
   11010:	e5cd7012 	strb	r7, [sp, #18]
   11014:	e7ef04d4 	ubfx	r0, r4, #9, #16
   11018:	ebfffd27 	bl	104bc <uspi_le2be16>
   1101c:	e1cd01b3 	strh	r0, [sp, #19]
   11020:	e5cd7015 	strb	r7, [sp, #21]
   11024:	e58d4000 	str	r4, [sp]
   11028:	e58d7004 	str	r7, [sp, #4]
   1102c:	e1a00006 	mov	r0, r6
   11030:	e28d100c 	add	r1, sp, #12
   11034:	e3a0200a 	mov	r2, #10
   11038:	e1a03005 	mov	r3, r5
   1103c:	ebfffd78 	bl	10624 <USBBulkOnlyMassStorageDeviceCommand>
   11040:	e1500007 	cmp	r0, r7
   11044:	a1a00004 	movge	r0, r4
   11048:	aa00000a 	bge	11078 <USBBulkOnlyMassStorageDeviceTryWrite+0x124>
   1104c:	e30a0ce8 	movw	r0, #44264	; 0xace8
   11050:	e3400001 	movt	r0, #1
   11054:	e3a01001 	mov	r1, #1
   11058:	e30a2ef8 	movw	r2, #44792	; 0xaef8
   1105c:	e3402001 	movt	r2, #1
   11060:	eb001ba3 	bl	17ef4 <LogWrite>
   11064:	e3e00000 	mvn	r0, #0
   11068:	ea000002 	b	11078 <USBBulkOnlyMassStorageDeviceTryWrite+0x124>
   1106c:	e3e00000 	mvn	r0, #0
   11070:	ea000000 	b	11078 <USBBulkOnlyMassStorageDeviceTryWrite+0x124>
   11074:	e3e00000 	mvn	r0, #0
   11078:	e28dd01c 	add	sp, sp, #28
   1107c:	e8bd83f0 	pop	{r4, r5, r6, r7, r8, r9, pc}

00011080 <USBBulkOnlyMassStorageDeviceReset>:
   11080:	e92d4030 	push	{r4, r5, lr}
   11084:	e24dd014 	sub	sp, sp, #20
   11088:	e2504000 	subs	r4, r0, #0
   1108c:	1a000005 	bne	110a8 <USBBulkOnlyMassStorageDeviceReset+0x28>
   11090:	e3090ce4 	movw	r0, #40164	; 0x9ce4
   11094:	e3400001 	movt	r0, #1
   11098:	e30a1cf0 	movw	r1, #44272	; 0xacf0
   1109c:	e3401001 	movt	r1, #1
   110a0:	e300229a 	movw	r2, #666	; 0x29a
   110a4:	eb001ba4 	bl	17f3c <uspi_assertion_failed>
   110a8:	e1a00004 	mov	r0, r4
   110ac:	ebfff0f9 	bl	d498 <USBDeviceGetHost>
   110b0:	e2505000 	subs	r5, r0, #0
   110b4:	1a000005 	bne	110d0 <USBBulkOnlyMassStorageDeviceReset+0x50>
   110b8:	e30a0d54 	movw	r0, #44372	; 0xad54
   110bc:	e3400001 	movt	r0, #1
   110c0:	e30a1cf0 	movw	r1, #44272	; 0xacf0
   110c4:	e3401001 	movt	r1, #1
   110c8:	e300229d 	movw	r2, #669	; 0x29d
   110cc:	eb001b9a 	bl	17f3c <uspi_assertion_failed>
   110d0:	e1a00004 	mov	r0, r4
   110d4:	ebfff0db 	bl	d448 <USBDeviceGetEndpoint0>
   110d8:	e1a01000 	mov	r1, r0
   110dc:	e3a03000 	mov	r3, #0
   110e0:	e58d3000 	str	r3, [sp]
   110e4:	e58d3004 	str	r3, [sp, #4]
   110e8:	e58d3008 	str	r3, [sp, #8]
   110ec:	e58d300c 	str	r3, [sp, #12]
   110f0:	e1a00005 	mov	r0, r5
   110f4:	e3a02021 	mov	r2, #33	; 0x21
   110f8:	e3a030ff 	mov	r3, #255	; 0xff
   110fc:	ebffe498 	bl	a364 <DWHCIDeviceControlMessage>
   11100:	e3500000 	cmp	r0, #0
   11104:	aa000007 	bge	11128 <USBBulkOnlyMassStorageDeviceReset+0xa8>
   11108:	e30a0ce8 	movw	r0, #44264	; 0xace8
   1110c:	e3400001 	movt	r0, #1
   11110:	e3a01004 	mov	r1, #4
   11114:	e30a2f08 	movw	r2, #44808	; 0xaf08
   11118:	e3402001 	movt	r2, #1
   1111c:	eb001b74 	bl	17ef4 <LogWrite>
   11120:	e3e00000 	mvn	r0, #0
   11124:	ea000030 	b	111ec <USBBulkOnlyMassStorageDeviceReset+0x16c>
   11128:	e1a00004 	mov	r0, r4
   1112c:	ebfff0c5 	bl	d448 <USBDeviceGetEndpoint0>
   11130:	e1a01000 	mov	r1, r0
   11134:	e3a02000 	mov	r2, #0
   11138:	e58d2000 	str	r2, [sp]
   1113c:	e3a03001 	mov	r3, #1
   11140:	e58d3004 	str	r3, [sp, #4]
   11144:	e58d2008 	str	r2, [sp, #8]
   11148:	e58d200c 	str	r2, [sp, #12]
   1114c:	e1a00005 	mov	r0, r5
   11150:	e3a02002 	mov	r2, #2
   11154:	ebffe482 	bl	a364 <DWHCIDeviceControlMessage>
   11158:	e3500000 	cmp	r0, #0
   1115c:	aa000007 	bge	11180 <USBBulkOnlyMassStorageDeviceReset+0x100>
   11160:	e30a0ce8 	movw	r0, #44264	; 0xace8
   11164:	e3400001 	movt	r0, #1
   11168:	e3a01004 	mov	r1, #4
   1116c:	e30a2f1c 	movw	r2, #44828	; 0xaf1c
   11170:	e3402001 	movt	r2, #1
   11174:	eb001b5e 	bl	17ef4 <LogWrite>
   11178:	e3e00000 	mvn	r0, #0
   1117c:	ea00001a 	b	111ec <USBBulkOnlyMassStorageDeviceReset+0x16c>
   11180:	e1a00004 	mov	r0, r4
   11184:	ebfff0af 	bl	d448 <USBDeviceGetEndpoint0>
   11188:	e1a01000 	mov	r1, r0
   1118c:	e3a03000 	mov	r3, #0
   11190:	e58d3000 	str	r3, [sp]
   11194:	e3a02002 	mov	r2, #2
   11198:	e58d2004 	str	r2, [sp, #4]
   1119c:	e58d3008 	str	r3, [sp, #8]
   111a0:	e58d300c 	str	r3, [sp, #12]
   111a4:	e1a00005 	mov	r0, r5
   111a8:	e3a03001 	mov	r3, #1
   111ac:	ebffe46c 	bl	a364 <DWHCIDeviceControlMessage>
   111b0:	e3500000 	cmp	r0, #0
   111b4:	aa000007 	bge	111d8 <USBBulkOnlyMassStorageDeviceReset+0x158>
   111b8:	e30a0ce8 	movw	r0, #44264	; 0xace8
   111bc:	e3400001 	movt	r0, #1
   111c0:	e3a01004 	mov	r1, #4
   111c4:	e30a2f3c 	movw	r2, #44860	; 0xaf3c
   111c8:	e3402001 	movt	r2, #1
   111cc:	eb001b48 	bl	17ef4 <LogWrite>
   111d0:	e3e00000 	mvn	r0, #0
   111d4:	ea000004 	b	111ec <USBBulkOnlyMassStorageDeviceReset+0x16c>
   111d8:	e594003c 	ldr	r0, [r4, #60]	; 0x3c
   111dc:	ebfff3d7 	bl	e140 <USBEndpointResetPID>
   111e0:	e5940040 	ldr	r0, [r4, #64]	; 0x40
   111e4:	ebfff3d5 	bl	e140 <USBEndpointResetPID>
   111e8:	e3a00000 	mov	r0, #0
   111ec:	e28dd014 	add	sp, sp, #20
   111f0:	e8bd8030 	pop	{r4, r5, pc}

000111f4 <USBBulkOnlyMassStorageDeviceRead>:
   111f4:	e92d41f0 	push	{r4, r5, r6, r7, r8, lr}
   111f8:	e1a08001 	mov	r8, r1
   111fc:	e1a06002 	mov	r6, r2
   11200:	e2507000 	subs	r7, r0, #0
   11204:	1a000005 	bne	11220 <USBBulkOnlyMassStorageDeviceRead+0x2c>
   11208:	e3090ce4 	movw	r0, #40164	; 0x9ce4
   1120c:	e3400001 	movt	r0, #1
   11210:	e30a1cf0 	movw	r1, #44272	; 0xacf0
   11214:	e3401001 	movt	r1, #1
   11218:	e30021af 	movw	r2, #431	; 0x1af
   1121c:	eb001b46 	bl	17f3c <uspi_assertion_failed>
   11220:	e3a04004 	mov	r4, #4
   11224:	e1a00007 	mov	r0, r7
   11228:	e1a01008 	mov	r1, r8
   1122c:	e1a02006 	mov	r2, r6
   11230:	ebfffefb 	bl	10e24 <USBBulkOnlyMassStorageDeviceTryRead>
   11234:	e1a05000 	mov	r5, r0
   11238:	e1560000 	cmp	r6, r0
   1123c:	0a000005 	beq	11258 <USBBulkOnlyMassStorageDeviceRead+0x64>
   11240:	e1a00007 	mov	r0, r7
   11244:	ebffff8d 	bl	11080 <USBBulkOnlyMassStorageDeviceReset>
   11248:	e3500000 	cmp	r0, #0
   1124c:	18bd81f0 	popne	{r4, r5, r6, r7, r8, pc}
   11250:	e2544001 	subs	r4, r4, #1
   11254:	1afffff2 	bne	11224 <USBBulkOnlyMassStorageDeviceRead+0x30>
   11258:	e1a00005 	mov	r0, r5
   1125c:	e8bd81f0 	pop	{r4, r5, r6, r7, r8, pc}

00011260 <USBBulkOnlyMassStorageDeviceWrite>:
   11260:	e92d41f0 	push	{r4, r5, r6, r7, r8, lr}
   11264:	e1a08001 	mov	r8, r1
   11268:	e1a06002 	mov	r6, r2
   1126c:	e2507000 	subs	r7, r0, #0
   11270:	1a000005 	bne	1128c <USBBulkOnlyMassStorageDeviceWrite+0x2c>
   11274:	e3090ce4 	movw	r0, #40164	; 0x9ce4
   11278:	e3400001 	movt	r0, #1
   1127c:	e30a1cf0 	movw	r1, #44272	; 0xacf0
   11280:	e3401001 	movt	r1, #1
   11284:	e30021ca 	movw	r2, #458	; 0x1ca
   11288:	eb001b2b 	bl	17f3c <uspi_assertion_failed>
   1128c:	e3a04004 	mov	r4, #4
   11290:	e1a00007 	mov	r0, r7
   11294:	e1a01008 	mov	r1, r8
   11298:	e1a02006 	mov	r2, r6
   1129c:	ebffff2c 	bl	10f54 <USBBulkOnlyMassStorageDeviceTryWrite>
   112a0:	e1a05000 	mov	r5, r0
   112a4:	e1560000 	cmp	r6, r0
   112a8:	0a000005 	beq	112c4 <USBBulkOnlyMassStorageDeviceWrite+0x64>
   112ac:	e1a00007 	mov	r0, r7
   112b0:	ebffff72 	bl	11080 <USBBulkOnlyMassStorageDeviceReset>
   112b4:	e3500000 	cmp	r0, #0
   112b8:	18bd81f0 	popne	{r4, r5, r6, r7, r8, pc}
   112bc:	e2544001 	subs	r4, r4, #1
   112c0:	1afffff2 	bne	11290 <USBBulkOnlyMassStorageDeviceWrite+0x30>
   112c4:	e1a00005 	mov	r0, r5
   112c8:	e8bd81f0 	pop	{r4, r5, r6, r7, r8, pc}

000112cc <DWHCIFrameSchedulerNonPeriodicWaitForFrame>:
   112cc:	e12fff1e 	bx	lr

000112d0 <DWHCIFrameSchedulerNonPeriodicIsOddFrame>:
   112d0:	e3a00000 	mov	r0, #0
   112d4:	e12fff1e 	bx	lr

000112d8 <_DWHCIFrameSchedulerNonPeriodic>:
   112d8:	e92d4010 	push	{r4, lr}
   112dc:	e2504000 	subs	r4, r0, #0
   112e0:	1a000005 	bne	112fc <_DWHCIFrameSchedulerNonPeriodic+0x24>
   112e4:	e3090ce4 	movw	r0, #40164	; 0x9ce4
   112e8:	e3400001 	movt	r0, #1
   112ec:	e30a1f5c 	movw	r1, #44892	; 0xaf5c
   112f0:	e3401001 	movt	r1, #1
   112f4:	e3a0203a 	mov	r2, #58	; 0x3a
   112f8:	eb001b0f 	bl	17f3c <uspi_assertion_failed>
   112fc:	e3a03006 	mov	r3, #6
   11300:	e5843018 	str	r3, [r4, #24]
   11304:	e8bd8010 	pop	{r4, pc}

00011308 <DWHCIFrameSchedulerNonPeriodicStartSplit>:
   11308:	e92d4010 	push	{r4, lr}
   1130c:	e2504000 	subs	r4, r0, #0
   11310:	1a000005 	bne	1132c <DWHCIFrameSchedulerNonPeriodicStartSplit+0x24>
   11314:	e3090ce4 	movw	r0, #40164	; 0x9ce4
   11318:	e3400001 	movt	r0, #1
   1131c:	e30a1f5c 	movw	r1, #44892	; 0xaf5c
   11320:	e3401001 	movt	r1, #1
   11324:	e3a02042 	mov	r2, #66	; 0x42
   11328:	eb001b03 	bl	17f3c <uspi_assertion_failed>
   1132c:	e3a03000 	mov	r3, #0
   11330:	e5843018 	str	r3, [r4, #24]
   11334:	e8bd8010 	pop	{r4, pc}

00011338 <DWHCIFrameSchedulerNonPeriodicCompleteSplit>:
   11338:	e92d4010 	push	{r4, lr}
   1133c:	e2504000 	subs	r4, r0, #0
   11340:	1a000005 	bne	1135c <DWHCIFrameSchedulerNonPeriodicCompleteSplit+0x24>
   11344:	e3090ce4 	movw	r0, #40164	; 0x9ce4
   11348:	e3400001 	movt	r0, #1
   1134c:	e30a1f5c 	movw	r1, #44892	; 0xaf5c
   11350:	e3401001 	movt	r1, #1
   11354:	e3a0204a 	mov	r2, #74	; 0x4a
   11358:	eb001af7 	bl	17f3c <uspi_assertion_failed>
   1135c:	e5943018 	ldr	r3, [r4, #24]
   11360:	e2433001 	sub	r3, r3, #1
   11364:	e3530004 	cmp	r3, #4
   11368:	979ff103 	ldrls	pc, [pc, r3, lsl #2]
   1136c:	ea00000e 	b	113ac <DWHCIFrameSchedulerNonPeriodicCompleteSplit+0x74>
   11370:	00011384 	andeq	r1, r1, r4, lsl #7
   11374:	0001139c 	muleq	r1, ip, r3
   11378:	0001139c 	muleq	r1, ip, r3
   1137c:	000113cc 	andeq	r1, r1, ip, asr #7
   11380:	000113cc 	andeq	r1, r1, ip, asr #7
   11384:	e3a03002 	mov	r3, #2
   11388:	e5843018 	str	r3, [r4, #24]
   1138c:	e3a03003 	mov	r3, #3
   11390:	e584301c 	str	r3, [r4, #28]
   11394:	e3a00001 	mov	r0, #1
   11398:	e8bd8010 	pop	{r4, pc}
   1139c:	e3000271 	movw	r0, #625	; 0x271
   113a0:	eb001a74 	bl	17d78 <usDelay>
   113a4:	e3a00001 	mov	r0, #1
   113a8:	e8bd8010 	pop	{r4, pc}
   113ac:	e30b0e18 	movw	r0, #48664	; 0xbe18
   113b0:	e3400001 	movt	r0, #1
   113b4:	e30a1f5c 	movw	r1, #44892	; 0xaf5c
   113b8:	e3401001 	movt	r1, #1
   113bc:	e3a02061 	mov	r2, #97	; 0x61
   113c0:	eb001add 	bl	17f3c <uspi_assertion_failed>
   113c4:	e3a00000 	mov	r0, #0
   113c8:	e8bd8010 	pop	{r4, pc}
   113cc:	e3a00000 	mov	r0, #0
   113d0:	e8bd8010 	pop	{r4, pc}

000113d4 <DWHCIFrameSchedulerNonPeriodicTransactionComplete>:
   113d4:	e92d4038 	push	{r3, r4, r5, lr}
   113d8:	e1a05001 	mov	r5, r1
   113dc:	e2504000 	subs	r4, r0, #0
   113e0:	1a000005 	bne	113fc <DWHCIFrameSchedulerNonPeriodicTransactionComplete+0x28>
   113e4:	e3090ce4 	movw	r0, #40164	; 0x9ce4
   113e8:	e3400001 	movt	r0, #1
   113ec:	e30a1f5c 	movw	r1, #44892	; 0xaf5c
   113f0:	e3401001 	movt	r1, #1
   113f4:	e3a0206b 	mov	r2, #107	; 0x6b
   113f8:	eb001acf 	bl	17f3c <uspi_assertion_failed>
   113fc:	e5942018 	ldr	r2, [r4, #24]
   11400:	e3520000 	cmp	r2, #0
   11404:	0a000003 	beq	11418 <DWHCIFrameSchedulerNonPeriodicTransactionComplete+0x44>
   11408:	e2422002 	sub	r2, r2, #2
   1140c:	e3520001 	cmp	r2, #1
   11410:	8a000035 	bhi	114ec <DWHCIFrameSchedulerNonPeriodicTransactionComplete+0x118>
   11414:	ea00000a 	b	11444 <DWHCIFrameSchedulerNonPeriodicTransactionComplete+0x70>
   11418:	e3150020 	tst	r5, #32
   1141c:	1a000005 	bne	11438 <DWHCIFrameSchedulerNonPeriodicTransactionComplete+0x64>
   11420:	e30a0f74 	movw	r0, #44916	; 0xaf74
   11424:	e3400001 	movt	r0, #1
   11428:	e30a1f5c 	movw	r1, #44892	; 0xaf5c
   1142c:	e3401001 	movt	r1, #1
   11430:	e3a02070 	mov	r2, #112	; 0x70
   11434:	eb001ac0 	bl	17f3c <uspi_assertion_failed>
   11438:	e3a03001 	mov	r3, #1
   1143c:	e5843018 	str	r3, [r4, #24]
   11440:	e8bd8038 	pop	{r3, r4, r5, pc}
   11444:	e3150001 	tst	r5, #1
   11448:	13a03004 	movne	r3, #4
   1144c:	15843018 	strne	r3, [r4, #24]
   11450:	18bd8038 	popne	{r3, r4, r5, pc}
   11454:	e3150060 	tst	r5, #96	; 0x60
   11458:	0a000007 	beq	1147c <DWHCIFrameSchedulerNonPeriodicTransactionComplete+0xa8>
   1145c:	e594301c 	ldr	r3, [r4, #28]
   11460:	e2432001 	sub	r2, r3, #1
   11464:	e584201c 	str	r2, [r4, #28]
   11468:	e3530000 	cmp	r3, #0
   1146c:	03a03005 	moveq	r3, #5
   11470:	13a03003 	movne	r3, #3
   11474:	e5843018 	str	r3, [r4, #24]
   11478:	e8bd8038 	pop	{r3, r4, r5, pc}
   1147c:	e3150010 	tst	r5, #16
   11480:	0a00000b 	beq	114b4 <DWHCIFrameSchedulerNonPeriodicTransactionComplete+0xe0>
   11484:	e594301c 	ldr	r3, [r4, #28]
   11488:	e2432001 	sub	r2, r3, #1
   1148c:	e584201c 	str	r2, [r4, #28]
   11490:	e3530000 	cmp	r3, #0
   11494:	13a03003 	movne	r3, #3
   11498:	15843018 	strne	r3, [r4, #24]
   1149c:	18bd8038 	popne	{r3, r4, r5, pc}
   114a0:	e3000271 	movw	r0, #625	; 0x271
   114a4:	eb001a33 	bl	17d78 <usDelay>
   114a8:	e3a03005 	mov	r3, #5
   114ac:	e5843018 	str	r3, [r4, #24]
   114b0:	e8bd8038 	pop	{r3, r4, r5, pc}
   114b4:	e30a0f98 	movw	r0, #44952	; 0xaf98
   114b8:	e3400001 	movt	r0, #1
   114bc:	e3a01001 	mov	r1, #1
   114c0:	e30a2fa0 	movw	r2, #44960	; 0xafa0
   114c4:	e3402001 	movt	r2, #1
   114c8:	e1a03005 	mov	r3, r5
   114cc:	eb001a88 	bl	17ef4 <LogWrite>
   114d0:	e30b0e18 	movw	r0, #48664	; 0xbe18
   114d4:	e3400001 	movt	r0, #1
   114d8:	e30a1f5c 	movw	r1, #44892	; 0xaf5c
   114dc:	e3401001 	movt	r1, #1
   114e0:	e3a02094 	mov	r2, #148	; 0x94
   114e4:	eb001a94 	bl	17f3c <uspi_assertion_failed>
   114e8:	e8bd8038 	pop	{r3, r4, r5, pc}
   114ec:	e30b0e18 	movw	r0, #48664	; 0xbe18
   114f0:	e3400001 	movt	r0, #1
   114f4:	e30a1f5c 	movw	r1, #44892	; 0xaf5c
   114f8:	e3401001 	movt	r1, #1
   114fc:	e3a02099 	mov	r2, #153	; 0x99
   11500:	eb001a8d 	bl	17f3c <uspi_assertion_failed>
   11504:	e8bd8038 	pop	{r3, r4, r5, pc}

00011508 <DWHCIFrameSchedulerNonPeriodic>:
   11508:	e92d4010 	push	{r4, lr}
   1150c:	e2504000 	subs	r4, r0, #0
   11510:	1a000005 	bne	1152c <DWHCIFrameSchedulerNonPeriodic+0x24>
   11514:	e3090ce4 	movw	r0, #40164	; 0x9ce4
   11518:	e3400001 	movt	r0, #1
   1151c:	e30a1f5c 	movw	r1, #44892	; 0xaf5c
   11520:	e3401001 	movt	r1, #1
   11524:	e3a02029 	mov	r2, #41	; 0x29
   11528:	eb001a83 	bl	17f3c <uspi_assertion_failed>
   1152c:	e30132d8 	movw	r3, #4824	; 0x12d8
   11530:	e3403001 	movt	r3, #1
   11534:	e5843000 	str	r3, [r4]
   11538:	e3013308 	movw	r3, #4872	; 0x1308
   1153c:	e3403001 	movt	r3, #1
   11540:	e5843004 	str	r3, [r4, #4]
   11544:	e3013338 	movw	r3, #4920	; 0x1338
   11548:	e3403001 	movt	r3, #1
   1154c:	e5843008 	str	r3, [r4, #8]
   11550:	e30133d4 	movw	r3, #5076	; 0x13d4
   11554:	e3403001 	movt	r3, #1
   11558:	e584300c 	str	r3, [r4, #12]
   1155c:	e30132cc 	movw	r3, #4812	; 0x12cc
   11560:	e3403001 	movt	r3, #1
   11564:	e5843010 	str	r3, [r4, #16]
   11568:	e30132d0 	movw	r3, #4816	; 0x12d0
   1156c:	e3403001 	movt	r3, #1
   11570:	e5843014 	str	r3, [r4, #20]
   11574:	e3a03006 	mov	r3, #6
   11578:	e5843018 	str	r3, [r4, #24]
   1157c:	e8bd8010 	pop	{r4, pc}

00011580 <_DWHCIFrameSchedulerPeriodic>:
   11580:	e92d4010 	push	{r4, lr}
   11584:	e2504000 	subs	r4, r0, #0
   11588:	1a000005 	bne	115a4 <_DWHCIFrameSchedulerPeriodic+0x24>
   1158c:	e3090ce4 	movw	r0, #40164	; 0x9ce4
   11590:	e3400001 	movt	r0, #1
   11594:	e30a1fb4 	movw	r1, #44980	; 0xafb4
   11598:	e3401001 	movt	r1, #1
   1159c:	e3a0203e 	mov	r2, #62	; 0x3e
   115a0:	eb001a65 	bl	17f3c <uspi_assertion_failed>
   115a4:	e3a03006 	mov	r3, #6
   115a8:	e5843018 	str	r3, [r4, #24]
   115ac:	e8bd8010 	pop	{r4, pc}

000115b0 <DWHCIFrameSchedulerPeriodicStartSplit>:
   115b0:	e92d4010 	push	{r4, lr}
   115b4:	e2504000 	subs	r4, r0, #0
   115b8:	1a000005 	bne	115d4 <DWHCIFrameSchedulerPeriodicStartSplit+0x24>
   115bc:	e3090ce4 	movw	r0, #40164	; 0x9ce4
   115c0:	e3400001 	movt	r0, #1
   115c4:	e30a1fb4 	movw	r1, #44980	; 0xafb4
   115c8:	e3401001 	movt	r1, #1
   115cc:	e3a02046 	mov	r2, #70	; 0x46
   115d0:	eb001a59 	bl	17f3c <uspi_assertion_failed>
   115d4:	e3a03000 	mov	r3, #0
   115d8:	e5843018 	str	r3, [r4, #24]
   115dc:	e3a03008 	mov	r3, #8
   115e0:	e5843020 	str	r3, [r4, #32]
   115e4:	e8bd8010 	pop	{r4, pc}

000115e8 <DWHCIFrameSchedulerPeriodicCompleteSplit>:
   115e8:	e92d4010 	push	{r4, lr}
   115ec:	e2504000 	subs	r4, r0, #0
   115f0:	1a000005 	bne	1160c <DWHCIFrameSchedulerPeriodicCompleteSplit+0x24>
   115f4:	e3090ce4 	movw	r0, #40164	; 0x9ce4
   115f8:	e3400001 	movt	r0, #1
   115fc:	e30a1fb4 	movw	r1, #44980	; 0xafb4
   11600:	e3401001 	movt	r1, #1
   11604:	e3a0204f 	mov	r2, #79	; 0x4f
   11608:	eb001a4b 	bl	17f3c <uspi_assertion_failed>
   1160c:	e5943018 	ldr	r3, [r4, #24]
   11610:	e2433001 	sub	r3, r3, #1
   11614:	e3530004 	cmp	r3, #4
   11618:	979ff103 	ldrls	pc, [pc, r3, lsl #2]
   1161c:	ea000016 	b	1167c <DWHCIFrameSchedulerPeriodicCompleteSplit+0x94>
   11620:	00011634 	andeq	r1, r1, r4, lsr r6
   11624:	0001167c 	andeq	r1, r1, ip, ror r6
   11628:	00011664 	andeq	r1, r1, r4, ror #12
   1162c:	0001169c 	muleq	r1, ip, r6
   11630:	0001169c 	muleq	r1, ip, r6
   11634:	e3a03002 	mov	r3, #2
   11638:	e5843018 	str	r3, [r4, #24]
   1163c:	e5943020 	ldr	r3, [r4, #32]
   11640:	e3530005 	cmp	r3, #5
   11644:	13a02003 	movne	r2, #3
   11648:	03a02002 	moveq	r2, #2
   1164c:	e584201c 	str	r2, [r4, #28]
   11650:	e2833002 	add	r3, r3, #2
   11654:	e2033007 	and	r3, r3, #7
   11658:	e5843020 	str	r3, [r4, #32]
   1165c:	e3a00001 	mov	r0, #1
   11660:	e8bd8010 	pop	{r4, pc}
   11664:	e5943020 	ldr	r3, [r4, #32]
   11668:	e2833001 	add	r3, r3, #1
   1166c:	e2033007 	and	r3, r3, #7
   11670:	e5843020 	str	r3, [r4, #32]
   11674:	e3a00001 	mov	r0, #1
   11678:	e8bd8010 	pop	{r4, pc}
   1167c:	e30b0e18 	movw	r0, #48664	; 0xbe18
   11680:	e3400001 	movt	r0, #1
   11684:	e30a1fb4 	movw	r1, #44980	; 0xafb4
   11688:	e3401001 	movt	r1, #1
   1168c:	e3a02066 	mov	r2, #102	; 0x66
   11690:	eb001a29 	bl	17f3c <uspi_assertion_failed>
   11694:	e3a00000 	mov	r0, #0
   11698:	e8bd8010 	pop	{r4, pc}
   1169c:	e3a00000 	mov	r0, #0
   116a0:	e8bd8010 	pop	{r4, pc}

000116a4 <DWHCIFrameSchedulerPeriodicIsOddFrame>:
   116a4:	e92d4010 	push	{r4, lr}
   116a8:	e2504000 	subs	r4, r0, #0
   116ac:	1a000005 	bne	116c8 <DWHCIFrameSchedulerPeriodicIsOddFrame+0x24>
   116b0:	e3090ce4 	movw	r0, #40164	; 0x9ce4
   116b4:	e3400001 	movt	r0, #1
   116b8:	e30a1fb4 	movw	r1, #44980	; 0xafb4
   116bc:	e3401001 	movt	r1, #1
   116c0:	e3a020ba 	mov	r2, #186	; 0xba
   116c4:	eb001a1c 	bl	17f3c <uspi_assertion_failed>
   116c8:	e5940020 	ldr	r0, [r4, #32]
   116cc:	e2000001 	and	r0, r0, #1
   116d0:	e8bd8010 	pop	{r4, pc}

000116d4 <DWHCIFrameSchedulerPeriodicTransactionComplete>:
   116d4:	e92d4038 	push	{r3, r4, r5, lr}
   116d8:	e1a05001 	mov	r5, r1
   116dc:	e2504000 	subs	r4, r0, #0
   116e0:	1a000005 	bne	116fc <DWHCIFrameSchedulerPeriodicTransactionComplete+0x28>
   116e4:	e3090ce4 	movw	r0, #40164	; 0x9ce4
   116e8:	e3400001 	movt	r0, #1
   116ec:	e30a1fb4 	movw	r1, #44980	; 0xafb4
   116f0:	e3401001 	movt	r1, #1
   116f4:	e3a02070 	mov	r2, #112	; 0x70
   116f8:	eb001a0f 	bl	17f3c <uspi_assertion_failed>
   116fc:	e5942018 	ldr	r2, [r4, #24]
   11700:	e3520000 	cmp	r2, #0
   11704:	0a000003 	beq	11718 <DWHCIFrameSchedulerPeriodicTransactionComplete+0x44>
   11708:	e2422002 	sub	r2, r2, #2
   1170c:	e3520001 	cmp	r2, #1
   11710:	8a000032 	bhi	117e0 <DWHCIFrameSchedulerPeriodicTransactionComplete+0x10c>
   11714:	ea00000a 	b	11744 <DWHCIFrameSchedulerPeriodicTransactionComplete+0x70>
   11718:	e3150020 	tst	r5, #32
   1171c:	1a000005 	bne	11738 <DWHCIFrameSchedulerPeriodicTransactionComplete+0x64>
   11720:	e30a0f74 	movw	r0, #44916	; 0xaf74
   11724:	e3400001 	movt	r0, #1
   11728:	e30a1fb4 	movw	r1, #44980	; 0xafb4
   1172c:	e3401001 	movt	r1, #1
   11730:	e3a02075 	mov	r2, #117	; 0x75
   11734:	eb001a00 	bl	17f3c <uspi_assertion_failed>
   11738:	e3a03001 	mov	r3, #1
   1173c:	e5843018 	str	r3, [r4, #24]
   11740:	e8bd8038 	pop	{r3, r4, r5, pc}
   11744:	e3150001 	tst	r5, #1
   11748:	13a03004 	movne	r3, #4
   1174c:	15843018 	strne	r3, [r4, #24]
   11750:	18bd8038 	popne	{r3, r4, r5, pc}
   11754:	e3150060 	tst	r5, #96	; 0x60
   11758:	0a00000b 	beq	1178c <DWHCIFrameSchedulerPeriodicTransactionComplete+0xb8>
   1175c:	e594301c 	ldr	r3, [r4, #28]
   11760:	e2432001 	sub	r2, r3, #1
   11764:	e584201c 	str	r2, [r4, #28]
   11768:	e3530000 	cmp	r3, #0
   1176c:	13a03003 	movne	r3, #3
   11770:	15843018 	strne	r3, [r4, #24]
   11774:	18bd8038 	popne	{r3, r4, r5, pc}
   11778:	e3a03005 	mov	r3, #5
   1177c:	e5843018 	str	r3, [r4, #24]
   11780:	e3a00ffa 	mov	r0, #1000	; 0x3e8
   11784:	eb00197b 	bl	17d78 <usDelay>
   11788:	e8bd8038 	pop	{r3, r4, r5, pc}
   1178c:	e3150010 	tst	r5, #16
   11790:	0a000004 	beq	117a8 <DWHCIFrameSchedulerPeriodicTransactionComplete+0xd4>
   11794:	e3000271 	movw	r0, #625	; 0x271
   11798:	eb001976 	bl	17d78 <usDelay>
   1179c:	e3a03005 	mov	r3, #5
   117a0:	e5843018 	str	r3, [r4, #24]
   117a4:	e8bd8038 	pop	{r3, r4, r5, pc}
   117a8:	e30a0f98 	movw	r0, #44952	; 0xaf98
   117ac:	e3400001 	movt	r0, #1
   117b0:	e3a01001 	mov	r1, #1
   117b4:	e30a2fa0 	movw	r2, #44960	; 0xafa0
   117b8:	e3402001 	movt	r2, #1
   117bc:	e1a03005 	mov	r3, r5
   117c0:	eb0019cb 	bl	17ef4 <LogWrite>
   117c4:	e30b0e18 	movw	r0, #48664	; 0xbe18
   117c8:	e3400001 	movt	r0, #1
   117cc:	e30a1fb4 	movw	r1, #44980	; 0xafb4
   117d0:	e3401001 	movt	r1, #1
   117d4:	e3a02094 	mov	r2, #148	; 0x94
   117d8:	eb0019d7 	bl	17f3c <uspi_assertion_failed>
   117dc:	e8bd8038 	pop	{r3, r4, r5, pc}
   117e0:	e30b0e18 	movw	r0, #48664	; 0xbe18
   117e4:	e3400001 	movt	r0, #1
   117e8:	e30a1fb4 	movw	r1, #44980	; 0xafb4
   117ec:	e3401001 	movt	r1, #1
   117f0:	e3a02099 	mov	r2, #153	; 0x99
   117f4:	eb0019d0 	bl	17f3c <uspi_assertion_failed>
   117f8:	e8bd8038 	pop	{r3, r4, r5, pc}

000117fc <DWHCIFrameSchedulerPeriodicWaitForFrame>:
   117fc:	e92d4010 	push	{r4, lr}
   11800:	e24dd010 	sub	sp, sp, #16
   11804:	e2504000 	subs	r4, r0, #0
   11808:	1a000005 	bne	11824 <DWHCIFrameSchedulerPeriodicWaitForFrame+0x28>
   1180c:	e3090ce4 	movw	r0, #40164	; 0x9ce4
   11810:	e3400001 	movt	r0, #1
   11814:	e30a1fb4 	movw	r1, #44980	; 0xafb4
   11818:	e3401001 	movt	r1, #1
   1181c:	e3a020a1 	mov	r2, #161	; 0xa1
   11820:	eb0019c5 	bl	17f3c <uspi_assertion_failed>
   11824:	e28d0004 	add	r0, sp, #4
   11828:	e3001408 	movw	r1, #1032	; 0x408
   1182c:	e3431f98 	movt	r1, #16280	; 0x3f98
   11830:	ebffe8ca 	bl	bb60 <DWHCIRegister>
   11834:	e5943020 	ldr	r3, [r4, #32]
   11838:	e3530008 	cmp	r3, #8
   1183c:	1a000006 	bne	1185c <DWHCIFrameSchedulerPeriodicWaitForFrame+0x60>
   11840:	e28d0004 	add	r0, sp, #4
   11844:	ebffe8ef 	bl	bc08 <DWHCIRegisterRead>
   11848:	e2800001 	add	r0, r0, #1
   1184c:	e2003007 	and	r3, r0, #7
   11850:	e3530006 	cmp	r3, #6
   11854:	03a03007 	moveq	r3, #7
   11858:	e5843020 	str	r3, [r4, #32]
   1185c:	e28d0004 	add	r0, sp, #4
   11860:	ebffe8e8 	bl	bc08 <DWHCIRegisterRead>
   11864:	e2000007 	and	r0, r0, #7
   11868:	e5943020 	ldr	r3, [r4, #32]
   1186c:	e1500003 	cmp	r0, r3
   11870:	1afffff9 	bne	1185c <DWHCIFrameSchedulerPeriodicWaitForFrame+0x60>
   11874:	e28d0004 	add	r0, sp, #4
   11878:	ebffe8d6 	bl	bbd8 <_DWHCIRegister>
   1187c:	e28dd010 	add	sp, sp, #16
   11880:	e8bd8010 	pop	{r4, pc}

00011884 <DWHCIFrameSchedulerPeriodic>:
   11884:	e92d4010 	push	{r4, lr}
   11888:	e2504000 	subs	r4, r0, #0
   1188c:	1a000005 	bne	118a8 <DWHCIFrameSchedulerPeriodic+0x24>
   11890:	e3090ce4 	movw	r0, #40164	; 0x9ce4
   11894:	e3400001 	movt	r0, #1
   11898:	e30a1fb4 	movw	r1, #44980	; 0xafb4
   1189c:	e3401001 	movt	r1, #1
   118a0:	e3a0202c 	mov	r2, #44	; 0x2c
   118a4:	eb0019a4 	bl	17f3c <uspi_assertion_failed>
   118a8:	e3013580 	movw	r3, #5504	; 0x1580
   118ac:	e3403001 	movt	r3, #1
   118b0:	e5843000 	str	r3, [r4]
   118b4:	e30135b0 	movw	r3, #5552	; 0x15b0
   118b8:	e3403001 	movt	r3, #1
   118bc:	e5843004 	str	r3, [r4, #4]
   118c0:	e30135e8 	movw	r3, #5608	; 0x15e8
   118c4:	e3403001 	movt	r3, #1
   118c8:	e5843008 	str	r3, [r4, #8]
   118cc:	e30136d4 	movw	r3, #5844	; 0x16d4
   118d0:	e3403001 	movt	r3, #1
   118d4:	e584300c 	str	r3, [r4, #12]
   118d8:	e30137fc 	movw	r3, #6140	; 0x17fc
   118dc:	e3403001 	movt	r3, #1
   118e0:	e5843010 	str	r3, [r4, #16]
   118e4:	e30136a4 	movw	r3, #5796	; 0x16a4
   118e8:	e3403001 	movt	r3, #1
   118ec:	e5843014 	str	r3, [r4, #20]
   118f0:	e3a03006 	mov	r3, #6
   118f4:	e5843018 	str	r3, [r4, #24]
   118f8:	e3a03008 	mov	r3, #8
   118fc:	e5843020 	str	r3, [r4, #32]
   11900:	e8bd8010 	pop	{r4, pc}

00011904 <USBKeyboardDeviceStartRequest>:
   11904:	e92d4030 	push	{r4, r5, lr}
   11908:	e24dd00c 	sub	sp, sp, #12
   1190c:	e2504000 	subs	r4, r0, #0
   11910:	1a000005 	bne	1192c <USBKeyboardDeviceStartRequest+0x28>
   11914:	e3090ce4 	movw	r0, #40164	; 0x9ce4
   11918:	e3400001 	movt	r0, #1
   1191c:	e30a1fd4 	movw	r1, #45012	; 0xafd4
   11920:	e3401001 	movt	r1, #1
   11924:	e3002112 	movw	r2, #274	; 0x112
   11928:	eb001983 	bl	17f3c <uspi_assertion_failed>
   1192c:	e5943040 	ldr	r3, [r4, #64]	; 0x40
   11930:	e3530000 	cmp	r3, #0
   11934:	1a000005 	bne	11950 <USBKeyboardDeviceStartRequest+0x4c>
   11938:	e30a0fe4 	movw	r0, #45028	; 0xafe4
   1193c:	e3400001 	movt	r0, #1
   11940:	e30a1fd4 	movw	r1, #45012	; 0xafd4
   11944:	e3401001 	movt	r1, #1
   11948:	e3a02f45 	mov	r2, #276	; 0x114
   1194c:	eb00197a 	bl	17f3c <uspi_assertion_failed>
   11950:	e5943058 	ldr	r3, [r4, #88]	; 0x58
   11954:	e3530000 	cmp	r3, #0
   11958:	1a000005 	bne	11974 <USBKeyboardDeviceStartRequest+0x70>
   1195c:	e30b0004 	movw	r0, #45060	; 0xb004
   11960:	e3400001 	movt	r0, #1
   11964:	e30a1fd4 	movw	r1, #45012	; 0xafd4
   11968:	e3401001 	movt	r1, #1
   1196c:	e3002115 	movw	r2, #277	; 0x115
   11970:	eb001971 	bl	17f3c <uspi_assertion_failed>
   11974:	e5943054 	ldr	r3, [r4, #84]	; 0x54
   11978:	e3530000 	cmp	r3, #0
   1197c:	0a000005 	beq	11998 <USBKeyboardDeviceStartRequest+0x94>
   11980:	e30b0020 	movw	r0, #45088	; 0xb020
   11984:	e3400001 	movt	r0, #1
   11988:	e30a1fd4 	movw	r1, #45012	; 0xafd4
   1198c:	e3401001 	movt	r1, #1
   11990:	e3002117 	movw	r2, #279	; 0x117
   11994:	eb001968 	bl	17f3c <uspi_assertion_failed>
   11998:	e3a00024 	mov	r0, #36	; 0x24
   1199c:	eb0010b0 	bl	15c64 <malloc>
   119a0:	e5840054 	str	r0, [r4, #84]	; 0x54
   119a4:	e3500000 	cmp	r0, #0
   119a8:	1a000005 	bne	119c4 <USBKeyboardDeviceStartRequest+0xc0>
   119ac:	e30a03a4 	movw	r0, #41892	; 0xa3a4
   119b0:	e3400001 	movt	r0, #1
   119b4:	e30a1fd4 	movw	r1, #45012	; 0xafd4
   119b8:	e3401001 	movt	r1, #1
   119bc:	e3002119 	movw	r2, #281	; 0x119
   119c0:	eb00195d 	bl	17f3c <uspi_assertion_failed>
   119c4:	e5940054 	ldr	r0, [r4, #84]	; 0x54
   119c8:	e5941040 	ldr	r1, [r4, #64]	; 0x40
   119cc:	e5942058 	ldr	r2, [r4, #88]	; 0x58
   119d0:	e3a05000 	mov	r5, #0
   119d4:	e58d5000 	str	r5, [sp]
   119d8:	e3a03008 	mov	r3, #8
   119dc:	ebfff1ec 	bl	e194 <USBRequest>
   119e0:	e5940054 	ldr	r0, [r4, #84]	; 0x54
   119e4:	e3011d04 	movw	r1, #7428	; 0x1d04
   119e8:	e3401001 	movt	r1, #1
   119ec:	e1a02005 	mov	r2, r5
   119f0:	e1a03004 	mov	r3, r4
   119f4:	ebfff2ac 	bl	e4ac <USBRequestSetCompletionRoutine>
   119f8:	e1a00004 	mov	r0, r4
   119fc:	ebffeea5 	bl	d498 <USBDeviceGetHost>
   11a00:	e5941054 	ldr	r1, [r4, #84]	; 0x54
   11a04:	ebffe14f 	bl	9f48 <DWHCIDeviceSubmitAsyncRequest>
   11a08:	e28dd00c 	add	sp, sp, #12
   11a0c:	e8bd8030 	pop	{r4, r5, pc}

00011a10 <USBKeyboardDeviceConfigure>:
   11a10:	e92d41f0 	push	{r4, r5, r6, r7, r8, lr}
   11a14:	e24dd020 	sub	sp, sp, #32
   11a18:	e2506000 	subs	r6, r0, #0
   11a1c:	1a000005 	bne	11a38 <USBKeyboardDeviceConfigure+0x28>
   11a20:	e3090ce4 	movw	r0, #40164	; 0x9ce4
   11a24:	e3400001 	movt	r0, #1
   11a28:	e30a1fd4 	movw	r1, #45012	; 0xafd4
   11a2c:	e3401001 	movt	r1, #1
   11a30:	e3a0205e 	mov	r2, #94	; 0x5e
   11a34:	eb001940 	bl	17f3c <uspi_assertion_failed>
   11a38:	e1a04006 	mov	r4, r6
   11a3c:	e1a00006 	mov	r0, r6
   11a40:	e3a01002 	mov	r1, #2
   11a44:	ebffeecf 	bl	d588 <USBDeviceGetDescriptor>
   11a48:	e3500000 	cmp	r0, #0
   11a4c:	0a000004 	beq	11a64 <USBKeyboardDeviceConfigure+0x54>
   11a50:	e5d03004 	ldrb	r3, [r0, #4]
   11a54:	e3530000 	cmp	r3, #0
   11a58:	13a05004 	movne	r5, #4
   11a5c:	13a07005 	movne	r7, #5
   11a60:	1a00003a 	bne	11b50 <USBKeyboardDeviceConfigure+0x140>
   11a64:	e1a00006 	mov	r0, r6
   11a68:	e30a1fcc 	movw	r1, #45004	; 0xafcc
   11a6c:	e3401001 	movt	r1, #1
   11a70:	ebffeedb 	bl	d5e4 <USBDeviceConfigurationError>
   11a74:	e3a04000 	mov	r4, #0
   11a78:	ea00009e 	b	11cf8 <USBKeyboardDeviceConfigure+0x2e8>
   11a7c:	e5d0c004 	ldrb	ip, [r0, #4]
   11a80:	e35c0000 	cmp	ip, #0
   11a84:	0a000031 	beq	11b50 <USBKeyboardDeviceConfigure+0x140>
   11a88:	e5d0c005 	ldrb	ip, [r0, #5]
   11a8c:	e35c0003 	cmp	ip, #3
   11a90:	1a00002e 	bne	11b50 <USBKeyboardDeviceConfigure+0x140>
   11a94:	e5d02006 	ldrb	r2, [r0, #6]
   11a98:	e3520001 	cmp	r2, #1
   11a9c:	1a00002b 	bne	11b50 <USBKeyboardDeviceConfigure+0x140>
   11aa0:	e5d02007 	ldrb	r2, [r0, #7]
   11aa4:	e3520001 	cmp	r2, #1
   11aa8:	1a000028 	bne	11b50 <USBKeyboardDeviceConfigure+0x140>
   11aac:	e5d02002 	ldrb	r2, [r0, #2]
   11ab0:	e5c6203c 	strb	r2, [r6, #60]	; 0x3c
   11ab4:	e5d03003 	ldrb	r3, [r0, #3]
   11ab8:	e5c6303d 	strb	r3, [r6, #61]	; 0x3d
   11abc:	e1a00004 	mov	r0, r4
   11ac0:	e1a01007 	mov	r1, r7
   11ac4:	ebffeeaf 	bl	d588 <USBDeviceGetDescriptor>
   11ac8:	e2508000 	subs	r8, r0, #0
   11acc:	0a00001f 	beq	11b50 <USBKeyboardDeviceConfigure+0x140>
   11ad0:	e1d830d2 	ldrsb	r3, [r8, #2]
   11ad4:	e3530000 	cmp	r3, #0
   11ad8:	aa00001c 	bge	11b50 <USBKeyboardDeviceConfigure+0x140>
   11adc:	e5d83003 	ldrb	r3, [r8, #3]
   11ae0:	e203303f 	and	r3, r3, #63	; 0x3f
   11ae4:	e3530003 	cmp	r3, #3
   11ae8:	1a000018 	bne	11b50 <USBKeyboardDeviceConfigure+0x140>
   11aec:	e5963040 	ldr	r3, [r6, #64]	; 0x40
   11af0:	e3530000 	cmp	r3, #0
   11af4:	0a000005 	beq	11b10 <USBKeyboardDeviceConfigure+0x100>
   11af8:	e30b0034 	movw	r0, #45108	; 0xb034
   11afc:	e3400001 	movt	r0, #1
   11b00:	e30a1fd4 	movw	r1, #45012	; 0xafd4
   11b04:	e3401001 	movt	r1, #1
   11b08:	e3a02081 	mov	r2, #129	; 0x81
   11b0c:	eb00190a 	bl	17f3c <uspi_assertion_failed>
   11b10:	e3a0001c 	mov	r0, #28
   11b14:	eb001052 	bl	15c64 <malloc>
   11b18:	e5860040 	str	r0, [r6, #64]	; 0x40
   11b1c:	e3500000 	cmp	r0, #0
   11b20:	1a000005 	bne	11b3c <USBKeyboardDeviceConfigure+0x12c>
   11b24:	e30a0fe4 	movw	r0, #45028	; 0xafe4
   11b28:	e3400001 	movt	r0, #1
   11b2c:	e30a1fd4 	movw	r1, #45012	; 0xafd4
   11b30:	e3401001 	movt	r1, #1
   11b34:	e3a02083 	mov	r2, #131	; 0x83
   11b38:	eb0018ff 	bl	17f3c <uspi_assertion_failed>
   11b3c:	e5960040 	ldr	r0, [r6, #64]	; 0x40
   11b40:	e1a01006 	mov	r1, r6
   11b44:	e1a02008 	mov	r2, r8
   11b48:	ebfff024 	bl	dbe0 <USBEndpoint2>
   11b4c:	ea000004 	b	11b64 <USBKeyboardDeviceConfigure+0x154>
   11b50:	e1a00004 	mov	r0, r4
   11b54:	e1a01005 	mov	r1, r5
   11b58:	ebffee8a 	bl	d588 <USBDeviceGetDescriptor>
   11b5c:	e3500000 	cmp	r0, #0
   11b60:	1affffc5 	bne	11a7c <USBKeyboardDeviceConfigure+0x6c>
   11b64:	e5963040 	ldr	r3, [r6, #64]	; 0x40
   11b68:	e3530000 	cmp	r3, #0
   11b6c:	1a000005 	bne	11b88 <USBKeyboardDeviceConfigure+0x178>
   11b70:	e1a00006 	mov	r0, r6
   11b74:	e30a1fcc 	movw	r1, #45004	; 0xafcc
   11b78:	e3401001 	movt	r1, #1
   11b7c:	ebffee98 	bl	d5e4 <USBDeviceConfigurationError>
   11b80:	e3a04000 	mov	r4, #0
   11b84:	ea00005b 	b	11cf8 <USBKeyboardDeviceConfigure+0x2e8>
   11b88:	e1a00006 	mov	r0, r6
   11b8c:	ebffec78 	bl	cd74 <USBDeviceConfigure>
   11b90:	e2504000 	subs	r4, r0, #0
   11b94:	1a000006 	bne	11bb4 <USBKeyboardDeviceConfigure+0x1a4>
   11b98:	e30a0fcc 	movw	r0, #45004	; 0xafcc
   11b9c:	e3400001 	movt	r0, #1
   11ba0:	e3a01001 	mov	r1, #1
   11ba4:	e30a2bb8 	movw	r2, #43960	; 0xabb8
   11ba8:	e3402001 	movt	r2, #1
   11bac:	eb0018d0 	bl	17ef4 <LogWrite>
   11bb0:	ea000050 	b	11cf8 <USBKeyboardDeviceConfigure+0x2e8>
   11bb4:	e5d6303d 	ldrb	r3, [r6, #61]	; 0x3d
   11bb8:	e3530000 	cmp	r3, #0
   11bbc:	0a00001a 	beq	11c2c <USBKeyboardDeviceConfigure+0x21c>
   11bc0:	e1a00006 	mov	r0, r6
   11bc4:	ebffee33 	bl	d498 <USBDeviceGetHost>
   11bc8:	e1a04000 	mov	r4, r0
   11bcc:	e1a00006 	mov	r0, r6
   11bd0:	ebffee1c 	bl	d448 <USBDeviceGetEndpoint0>
   11bd4:	e1a01000 	mov	r1, r0
   11bd8:	e5d6303d 	ldrb	r3, [r6, #61]	; 0x3d
   11bdc:	e58d3000 	str	r3, [sp]
   11be0:	e5d6303c 	ldrb	r3, [r6, #60]	; 0x3c
   11be4:	e58d3004 	str	r3, [sp, #4]
   11be8:	e3a03000 	mov	r3, #0
   11bec:	e58d3008 	str	r3, [sp, #8]
   11bf0:	e58d300c 	str	r3, [sp, #12]
   11bf4:	e1a00004 	mov	r0, r4
   11bf8:	e3a02001 	mov	r2, #1
   11bfc:	e3a0300b 	mov	r3, #11
   11c00:	ebffe1d7 	bl	a364 <DWHCIDeviceControlMessage>
   11c04:	e3500000 	cmp	r0, #0
   11c08:	aa000007 	bge	11c2c <USBKeyboardDeviceConfigure+0x21c>
   11c0c:	e30a0fcc 	movw	r0, #45004	; 0xafcc
   11c10:	e3400001 	movt	r0, #1
   11c14:	e3a01001 	mov	r1, #1
   11c18:	e30b2054 	movw	r2, #45140	; 0xb054
   11c1c:	e3402001 	movt	r2, #1
   11c20:	eb0018b3 	bl	17ef4 <LogWrite>
   11c24:	e3a04000 	mov	r4, #0
   11c28:	ea000032 	b	11cf8 <USBKeyboardDeviceConfigure+0x2e8>
   11c2c:	e1a00006 	mov	r0, r6
   11c30:	ebffee18 	bl	d498 <USBDeviceGetHost>
   11c34:	e1a04000 	mov	r4, r0
   11c38:	e1a00006 	mov	r0, r6
   11c3c:	ebffee01 	bl	d448 <USBDeviceGetEndpoint0>
   11c40:	e1a01000 	mov	r1, r0
   11c44:	e3a03000 	mov	r3, #0
   11c48:	e58d3000 	str	r3, [sp]
   11c4c:	e5d6203c 	ldrb	r2, [r6, #60]	; 0x3c
   11c50:	e58d2004 	str	r2, [sp, #4]
   11c54:	e58d3008 	str	r3, [sp, #8]
   11c58:	e58d300c 	str	r3, [sp, #12]
   11c5c:	e1a00004 	mov	r0, r4
   11c60:	e3a02021 	mov	r2, #33	; 0x21
   11c64:	e3a0300b 	mov	r3, #11
   11c68:	ebffe1bd 	bl	a364 <DWHCIDeviceControlMessage>
   11c6c:	e3500000 	cmp	r0, #0
   11c70:	aa000007 	bge	11c94 <USBKeyboardDeviceConfigure+0x284>
   11c74:	e30a0fcc 	movw	r0, #45004	; 0xafcc
   11c78:	e3400001 	movt	r0, #1
   11c7c:	e3a01001 	mov	r1, #1
   11c80:	e30b206c 	movw	r2, #45164	; 0xb06c
   11c84:	e3402001 	movt	r2, #1
   11c88:	eb001899 	bl	17ef4 <LogWrite>
   11c8c:	e3a04000 	mov	r4, #0
   11c90:	ea000018 	b	11cf8 <USBKeyboardDeviceConfigure+0x2e8>
   11c94:	e28d0014 	add	r0, sp, #20
   11c98:	ebfff6c4 	bl	f7b0 <String>
   11c9c:	e30c35c0 	movw	r3, #50624	; 0xc5c0
   11ca0:	e3403001 	movt	r3, #1
   11ca4:	e5932000 	ldr	r2, [r3]
   11ca8:	e2821001 	add	r1, r2, #1
   11cac:	e5831000 	str	r1, [r3]
   11cb0:	e28d0014 	add	r0, sp, #20
   11cb4:	e30b1088 	movw	r1, #45192	; 0xb088
   11cb8:	e3401001 	movt	r1, #1
   11cbc:	ebfff94b 	bl	101f0 <StringFormat>
   11cc0:	ebfff2e7 	bl	e864 <DeviceNameServiceGet>
   11cc4:	e1a04000 	mov	r4, r0
   11cc8:	e28d0014 	add	r0, sp, #20
   11ccc:	ebfff6e7 	bl	f870 <StringGet>
   11cd0:	e1a01000 	mov	r1, r0
   11cd4:	e1a00004 	mov	r0, r4
   11cd8:	e1a02006 	mov	r2, r6
   11cdc:	e3a03000 	mov	r3, #0
   11ce0:	ebfff267 	bl	e684 <DeviceNameServiceAddDevice>
   11ce4:	e28d0014 	add	r0, sp, #20
   11ce8:	ebfff6d0 	bl	f830 <_String>
   11cec:	e1a00006 	mov	r0, r6
   11cf0:	ebffff03 	bl	11904 <USBKeyboardDeviceStartRequest>
   11cf4:	e1a04000 	mov	r4, r0
   11cf8:	e1a00004 	mov	r0, r4
   11cfc:	e28dd020 	add	sp, sp, #32
   11d00:	e8bd81f0 	pop	{r4, r5, r6, r7, r8, pc}

00011d04 <USBKeyboardDeviceCompletionRoutine>:
   11d04:	e92d40f0 	push	{r4, r5, r6, r7, lr}
   11d08:	e24dd00c 	sub	sp, sp, #12
   11d0c:	e1a05000 	mov	r5, r0
   11d10:	e2524000 	subs	r4, r2, #0
   11d14:	1a000005 	bne	11d30 <USBKeyboardDeviceCompletionRoutine+0x2c>
   11d18:	e3090ce4 	movw	r0, #40164	; 0x9ce4
   11d1c:	e3400001 	movt	r0, #1
   11d20:	e30a1fd4 	movw	r1, #45012	; 0xafd4
   11d24:	e3401001 	movt	r1, #1
   11d28:	e3002123 	movw	r2, #291	; 0x123
   11d2c:	eb001882 	bl	17f3c <uspi_assertion_failed>
   11d30:	e3550000 	cmp	r5, #0
   11d34:	1a000005 	bne	11d50 <USBKeyboardDeviceCompletionRoutine+0x4c>
   11d38:	e3090dbc 	movw	r0, #40380	; 0x9dbc
   11d3c:	e3400001 	movt	r0, #1
   11d40:	e30a1fd4 	movw	r1, #45012	; 0xafd4
   11d44:	e3401001 	movt	r1, #1
   11d48:	e3002125 	movw	r2, #293	; 0x125
   11d4c:	eb00187a 	bl	17f3c <uspi_assertion_failed>
   11d50:	e5943054 	ldr	r3, [r4, #84]	; 0x54
   11d54:	e1530005 	cmp	r3, r5
   11d58:	0a000005 	beq	11d74 <USBKeyboardDeviceCompletionRoutine+0x70>
   11d5c:	e30b0090 	movw	r0, #45200	; 0xb090
   11d60:	e3400001 	movt	r0, #1
   11d64:	e30a1fd4 	movw	r1, #45012	; 0xafd4
   11d68:	e3401001 	movt	r1, #1
   11d6c:	e3002126 	movw	r2, #294	; 0x126
   11d70:	eb001871 	bl	17f3c <uspi_assertion_failed>
   11d74:	e1a00005 	mov	r0, r5
   11d78:	ebfff16c 	bl	e330 <USBRequestGetStatus>
   11d7c:	e3500000 	cmp	r0, #0
   11d80:	0a000076 	beq	11f60 <USBKeyboardDeviceCompletionRoutine+0x25c>
   11d84:	e1a00005 	mov	r0, r5
   11d88:	ebfff173 	bl	e35c <USBRequestGetResultLength>
   11d8c:	e3500008 	cmp	r0, #8
   11d90:	1a000072 	bne	11f60 <USBKeyboardDeviceCompletionRoutine+0x25c>
   11d94:	e5945050 	ldr	r5, [r4, #80]	; 0x50
   11d98:	e3550000 	cmp	r5, #0
   11d9c:	0a00000b 	beq	11dd0 <USBKeyboardDeviceCompletionRoutine+0xcc>
   11da0:	e3540000 	cmp	r4, #0
   11da4:	1a000005 	bne	11dc0 <USBKeyboardDeviceCompletionRoutine+0xbc>
   11da8:	e3090ce4 	movw	r0, #40164	; 0x9ce4
   11dac:	e3400001 	movt	r0, #1
   11db0:	e30a1fd4 	movw	r1, #45012	; 0xafd4
   11db4:	e3401001 	movt	r1, #1
   11db8:	e300215a 	movw	r2, #346	; 0x15a
   11dbc:	eb00185e 	bl	17f3c <uspi_assertion_failed>
   11dc0:	e5941058 	ldr	r1, [r4, #88]	; 0x58
   11dc4:	e4d10002 	ldrb	r0, [r1], #2
   11dc8:	e12fff35 	blx	r5
   11dcc:	ea000063 	b	11f60 <USBKeyboardDeviceCompletionRoutine+0x25c>
   11dd0:	e3540000 	cmp	r4, #0
   11dd4:	1a00006a 	bne	11f84 <USBKeyboardDeviceCompletionRoutine+0x280>
   11dd8:	e3090ce4 	movw	r0, #40164	; 0x9ce4
   11ddc:	e3400001 	movt	r0, #1
   11de0:	e30a1fd4 	movw	r1, #45012	; 0xafd4
   11de4:	e3401001 	movt	r1, #1
   11de8:	e3a02e16 	mov	r2, #352	; 0x160
   11dec:	eb001852 	bl	17f3c <uspi_assertion_failed>
   11df0:	ea000063 	b	11f84 <USBKeyboardDeviceCompletionRoutine+0x280>
   11df4:	e5735001 	ldrb	r5, [r3, #-1]!
   11df8:	e3550000 	cmp	r5, #0
   11dfc:	1a000001 	bne	11e08 <USBKeyboardDeviceCompletionRoutine+0x104>
   11e00:	e1530002 	cmp	r3, r2
   11e04:	1afffffa 	bne	11df4 <USBKeyboardDeviceCompletionRoutine+0xf0>
   11e08:	e5d4305c 	ldrb	r3, [r4, #92]	; 0x5c
   11e0c:	e1530005 	cmp	r3, r5
   11e10:	0a00004c 	beq	11f48 <USBKeyboardDeviceCompletionRoutine+0x244>
   11e14:	e5c4505c 	strb	r5, [r4, #92]	; 0x5c
   11e18:	e3550000 	cmp	r5, #0
   11e1c:	0a000049 	beq	11f48 <USBKeyboardDeviceCompletionRoutine+0x244>
   11e20:	e3540000 	cmp	r4, #0
   11e24:	1a00000b 	bne	11e58 <USBKeyboardDeviceCompletionRoutine+0x154>
   11e28:	e3097ce4 	movw	r7, #40164	; 0x9ce4
   11e2c:	e3407001 	movt	r7, #1
   11e30:	e30a6fd4 	movw	r6, #45012	; 0xafd4
   11e34:	e3406001 	movt	r6, #1
   11e38:	e1a00007 	mov	r0, r7
   11e3c:	e1a01006 	mov	r1, r6
   11e40:	e3a020d8 	mov	r2, #216	; 0xd8
   11e44:	eb00183c 	bl	17f3c <uspi_assertion_failed>
   11e48:	e1a00007 	mov	r0, r7
   11e4c:	e1a01006 	mov	r1, r6
   11e50:	e300215a 	movw	r2, #346	; 0x15a
   11e54:	eb001838 	bl	17f3c <uspi_assertion_failed>
   11e58:	e5943058 	ldr	r3, [r4, #88]	; 0x58
   11e5c:	e5d36000 	ldrb	r6, [r3]
   11e60:	e2847064 	add	r7, r4, #100	; 0x64
   11e64:	e1a00007 	mov	r0, r7
   11e68:	e1a01005 	mov	r1, r5
   11e6c:	e1a02006 	mov	r2, r6
   11e70:	eb000ebb 	bl	15964 <KeyMapTranslate>
   11e74:	e1a01000 	mov	r1, r0
   11e78:	e24030b3 	sub	r3, r0, #179	; 0xb3
   11e7c:	e353000f 	cmp	r3, #15
   11e80:	979ff103 	ldrls	pc, [pc, r3, lsl #2]
   11e84:	ea000024 	b	11f1c <USBKeyboardDeviceCompletionRoutine+0x218>
   11e88:	00011f60 	andeq	r1, r1, r0, ror #30
   11e8c:	00011f60 	andeq	r1, r1, r0, ror #30
   11e90:	00011f60 	andeq	r1, r1, r0, ror #30
   11e94:	00011ec8 	andeq	r1, r1, r8, asr #29
   11e98:	00011ec8 	andeq	r1, r1, r8, asr #29
   11e9c:	00011ec8 	andeq	r1, r1, r8, asr #29
   11ea0:	00011ec8 	andeq	r1, r1, r8, asr #29
   11ea4:	00011ec8 	andeq	r1, r1, r8, asr #29
   11ea8:	00011ec8 	andeq	r1, r1, r8, asr #29
   11eac:	00011ec8 	andeq	r1, r1, r8, asr #29
   11eb0:	00011ec8 	andeq	r1, r1, r8, asr #29
   11eb4:	00011ec8 	andeq	r1, r1, r8, asr #29
   11eb8:	00011ec8 	andeq	r1, r1, r8, asr #29
   11ebc:	00011ec8 	andeq	r1, r1, r8, asr #29
   11ec0:	00011ec8 	andeq	r1, r1, r8, asr #29
   11ec4:	00011f08 	andeq	r1, r1, r8, lsl #30
   11ec8:	e5943048 	ldr	r3, [r4, #72]	; 0x48
   11ecc:	e3530000 	cmp	r3, #0
   11ed0:	0a000022 	beq	11f60 <USBKeyboardDeviceCompletionRoutine+0x25c>
   11ed4:	e24050b6 	sub	r5, r0, #182	; 0xb6
   11ed8:	e355000b 	cmp	r5, #11
   11edc:	9a000005 	bls	11ef8 <USBKeyboardDeviceCompletionRoutine+0x1f4>
   11ee0:	e30b00a8 	movw	r0, #45224	; 0xb0a8
   11ee4:	e3400001 	movt	r0, #1
   11ee8:	e30a1fd4 	movw	r1, #45012	; 0xafd4
   11eec:	e3401001 	movt	r1, #1
   11ef0:	e3a020f6 	mov	r2, #246	; 0xf6
   11ef4:	eb001810 	bl	17f3c <uspi_assertion_failed>
   11ef8:	e5943048 	ldr	r3, [r4, #72]	; 0x48
   11efc:	e1a00005 	mov	r0, r5
   11f00:	e12fff33 	blx	r3
   11f04:	ea000015 	b	11f60 <USBKeyboardDeviceCompletionRoutine+0x25c>
   11f08:	e594304c 	ldr	r3, [r4, #76]	; 0x4c
   11f0c:	e3530000 	cmp	r3, #0
   11f10:	0a000012 	beq	11f60 <USBKeyboardDeviceCompletionRoutine+0x25c>
   11f14:	e12fff33 	blx	r3
   11f18:	ea000010 	b	11f60 <USBKeyboardDeviceCompletionRoutine+0x25c>
   11f1c:	e1a00007 	mov	r0, r7
   11f20:	e1a02006 	mov	r2, r6
   11f24:	e28d3004 	add	r3, sp, #4
   11f28:	eb000ee1 	bl	15ab4 <KeyMapGetString>
   11f2c:	e3500000 	cmp	r0, #0
   11f30:	0a00000a 	beq	11f60 <USBKeyboardDeviceCompletionRoutine+0x25c>
   11f34:	e5943044 	ldr	r3, [r4, #68]	; 0x44
   11f38:	e3530000 	cmp	r3, #0
   11f3c:	0a000007 	beq	11f60 <USBKeyboardDeviceCompletionRoutine+0x25c>
   11f40:	e12fff33 	blx	r3
   11f44:	ea000005 	b	11f60 <USBKeyboardDeviceCompletionRoutine+0x25c>
   11f48:	e5940060 	ldr	r0, [r4, #96]	; 0x60
   11f4c:	e3500000 	cmp	r0, #0
   11f50:	0a000002 	beq	11f60 <USBKeyboardDeviceCompletionRoutine+0x25c>
   11f54:	eb00179b 	bl	17dc8 <CancelKernelTimer>
   11f58:	e3a03000 	mov	r3, #0
   11f5c:	e5843060 	str	r3, [r4, #96]	; 0x60
   11f60:	e5940054 	ldr	r0, [r4, #84]	; 0x54
   11f64:	ebfff0b6 	bl	e244 <_USBRequest>
   11f68:	e5940054 	ldr	r0, [r4, #84]	; 0x54
   11f6c:	eb000f98 	bl	15dd4 <free>
   11f70:	e3a03000 	mov	r3, #0
   11f74:	e5843054 	str	r3, [r4, #84]	; 0x54
   11f78:	e1a00004 	mov	r0, r4
   11f7c:	ebfffe60 	bl	11904 <USBKeyboardDeviceStartRequest>
   11f80:	ea000006 	b	11fa0 <USBKeyboardDeviceCompletionRoutine+0x29c>
   11f84:	e5942058 	ldr	r2, [r4, #88]	; 0x58
   11f88:	e5d25007 	ldrb	r5, [r2, #7]
   11f8c:	e3550000 	cmp	r5, #0
   11f90:	1affff9c 	bne	11e08 <USBKeyboardDeviceCompletionRoutine+0x104>
   11f94:	e2823007 	add	r3, r2, #7
   11f98:	e2822002 	add	r2, r2, #2
   11f9c:	eaffff94 	b	11df4 <USBKeyboardDeviceCompletionRoutine+0xf0>
   11fa0:	e28dd00c 	add	sp, sp, #12
   11fa4:	e8bd80f0 	pop	{r4, r5, r6, r7, pc}

00011fa8 <USBKeyboardDevice>:
   11fa8:	e92d4038 	push	{r3, r4, r5, lr}
   11fac:	e1a05001 	mov	r5, r1
   11fb0:	e2504000 	subs	r4, r0, #0
   11fb4:	1a000005 	bne	11fd0 <USBKeyboardDevice+0x28>
   11fb8:	e3090ce4 	movw	r0, #40164	; 0x9ce4
   11fbc:	e3400001 	movt	r0, #1
   11fc0:	e30a1fd4 	movw	r1, #45012	; 0xafd4
   11fc4:	e3401001 	movt	r1, #1
   11fc8:	e3a02031 	mov	r2, #49	; 0x31
   11fcc:	eb0017da 	bl	17f3c <uspi_assertion_failed>
   11fd0:	e1a00004 	mov	r0, r4
   11fd4:	e1a01005 	mov	r1, r5
   11fd8:	ebffebde 	bl	cf58 <USBDeviceCopy>
   11fdc:	e3013a10 	movw	r3, #6672	; 0x1a10
   11fe0:	e3403001 	movt	r3, #1
   11fe4:	e5843000 	str	r3, [r4]
   11fe8:	e3a03000 	mov	r3, #0
   11fec:	e5843040 	str	r3, [r4, #64]	; 0x40
   11ff0:	e5843044 	str	r3, [r4, #68]	; 0x44
   11ff4:	e5843048 	str	r3, [r4, #72]	; 0x48
   11ff8:	e584304c 	str	r3, [r4, #76]	; 0x4c
   11ffc:	e5843050 	str	r3, [r4, #80]	; 0x50
   12000:	e5843054 	str	r3, [r4, #84]	; 0x54
   12004:	e5843058 	str	r3, [r4, #88]	; 0x58
   12008:	e5c4305c 	strb	r3, [r4, #92]	; 0x5c
   1200c:	e5843060 	str	r3, [r4, #96]	; 0x60
   12010:	e2840064 	add	r0, r4, #100	; 0x64
   12014:	eb000e05 	bl	15830 <KeyMap>
   12018:	e3a00008 	mov	r0, #8
   1201c:	eb000f10 	bl	15c64 <malloc>
   12020:	e5840058 	str	r0, [r4, #88]	; 0x58
   12024:	e3500000 	cmp	r0, #0
   12028:	18bd8038 	popne	{r3, r4, r5, pc}
   1202c:	e30b0004 	movw	r0, #45060	; 0xb004
   12030:	e3400001 	movt	r0, #1
   12034:	e30a1fd4 	movw	r1, #45012	; 0xafd4
   12038:	e3401001 	movt	r1, #1
   1203c:	e3a02043 	mov	r2, #67	; 0x43
   12040:	eb0017bd 	bl	17f3c <uspi_assertion_failed>
   12044:	e8bd8038 	pop	{r3, r4, r5, pc}

00012048 <_CUSBKeyboardDevice>:
   12048:	e92d4010 	push	{r4, lr}
   1204c:	e2504000 	subs	r4, r0, #0
   12050:	1a000005 	bne	1206c <_CUSBKeyboardDevice+0x24>
   12054:	e3090ce4 	movw	r0, #40164	; 0x9ce4
   12058:	e3400001 	movt	r0, #1
   1205c:	e30a1fd4 	movw	r1, #45012	; 0xafd4
   12060:	e3401001 	movt	r1, #1
   12064:	e3a02048 	mov	r2, #72	; 0x48
   12068:	eb0017b3 	bl	17f3c <uspi_assertion_failed>
   1206c:	e5940058 	ldr	r0, [r4, #88]	; 0x58
   12070:	e3500000 	cmp	r0, #0
   12074:	0a000002 	beq	12084 <_CUSBKeyboardDevice+0x3c>
   12078:	eb000f55 	bl	15dd4 <free>
   1207c:	e3a03000 	mov	r3, #0
   12080:	e5843058 	str	r3, [r4, #88]	; 0x58
   12084:	e5940040 	ldr	r0, [r4, #64]	; 0x40
   12088:	e3500000 	cmp	r0, #0
   1208c:	0a000004 	beq	120a4 <_CUSBKeyboardDevice+0x5c>
   12090:	ebffef68 	bl	de38 <_USBEndpoint>
   12094:	e5940040 	ldr	r0, [r4, #64]	; 0x40
   12098:	eb000f4d 	bl	15dd4 <free>
   1209c:	e3a03000 	mov	r3, #0
   120a0:	e5843040 	str	r3, [r4, #64]	; 0x40
   120a4:	e2840064 	add	r0, r4, #100	; 0x64
   120a8:	eb000df4 	bl	15880 <_KeyMap>
   120ac:	e1a00004 	mov	r0, r4
   120b0:	ebffec20 	bl	d138 <_USBDevice>
   120b4:	e8bd8010 	pop	{r4, pc}

000120b8 <USBKeyboardDeviceRegisterKeyPressedHandler>:
   120b8:	e92d4038 	push	{r3, r4, r5, lr}
   120bc:	e1a04001 	mov	r4, r1
   120c0:	e2505000 	subs	r5, r0, #0
   120c4:	1a000005 	bne	120e0 <USBKeyboardDeviceRegisterKeyPressedHandler+0x28>
   120c8:	e3090ce4 	movw	r0, #40164	; 0x9ce4
   120cc:	e3400001 	movt	r0, #1
   120d0:	e30a1fd4 	movw	r1, #45012	; 0xafd4
   120d4:	e3401001 	movt	r1, #1
   120d8:	e3a020bc 	mov	r2, #188	; 0xbc
   120dc:	eb001796 	bl	17f3c <uspi_assertion_failed>
   120e0:	e3540000 	cmp	r4, #0
   120e4:	1a000005 	bne	12100 <USBKeyboardDeviceRegisterKeyPressedHandler+0x48>
   120e8:	e30b00b8 	movw	r0, #45240	; 0xb0b8
   120ec:	e3400001 	movt	r0, #1
   120f0:	e30a1fd4 	movw	r1, #45012	; 0xafd4
   120f4:	e3401001 	movt	r1, #1
   120f8:	e3a020bd 	mov	r2, #189	; 0xbd
   120fc:	eb00178e 	bl	17f3c <uspi_assertion_failed>
   12100:	e5854044 	str	r4, [r5, #68]	; 0x44
   12104:	e8bd8038 	pop	{r3, r4, r5, pc}

00012108 <USBKeyboardDeviceRegisterSelectConsoleHandler>:
   12108:	e92d4038 	push	{r3, r4, r5, lr}
   1210c:	e1a04001 	mov	r4, r1
   12110:	e2505000 	subs	r5, r0, #0
   12114:	1a000005 	bne	12130 <USBKeyboardDeviceRegisterSelectConsoleHandler+0x28>
   12118:	e3090ce4 	movw	r0, #40164	; 0x9ce4
   1211c:	e3400001 	movt	r0, #1
   12120:	e30a1fd4 	movw	r1, #45012	; 0xafd4
   12124:	e3401001 	movt	r1, #1
   12128:	e3a020c3 	mov	r2, #195	; 0xc3
   1212c:	eb001782 	bl	17f3c <uspi_assertion_failed>
   12130:	e3540000 	cmp	r4, #0
   12134:	1a000005 	bne	12150 <USBKeyboardDeviceRegisterSelectConsoleHandler+0x48>
   12138:	e30b00d0 	movw	r0, #45264	; 0xb0d0
   1213c:	e3400001 	movt	r0, #1
   12140:	e30a1fd4 	movw	r1, #45012	; 0xafd4
   12144:	e3401001 	movt	r1, #1
   12148:	e3a020c4 	mov	r2, #196	; 0xc4
   1214c:	eb00177a 	bl	17f3c <uspi_assertion_failed>
   12150:	e5854048 	str	r4, [r5, #72]	; 0x48
   12154:	e8bd8038 	pop	{r3, r4, r5, pc}

00012158 <USBKeyboardDeviceRegisterShutdownHandler>:
   12158:	e92d4038 	push	{r3, r4, r5, lr}
   1215c:	e1a04001 	mov	r4, r1
   12160:	e2505000 	subs	r5, r0, #0
   12164:	1a000005 	bne	12180 <USBKeyboardDeviceRegisterShutdownHandler+0x28>
   12168:	e3090ce4 	movw	r0, #40164	; 0x9ce4
   1216c:	e3400001 	movt	r0, #1
   12170:	e30a1fd4 	movw	r1, #45012	; 0xafd4
   12174:	e3401001 	movt	r1, #1
   12178:	e3a020ca 	mov	r2, #202	; 0xca
   1217c:	eb00176e 	bl	17f3c <uspi_assertion_failed>
   12180:	e3540000 	cmp	r4, #0
   12184:	1a000005 	bne	121a0 <USBKeyboardDeviceRegisterShutdownHandler+0x48>
   12188:	e30b00ec 	movw	r0, #45292	; 0xb0ec
   1218c:	e3400001 	movt	r0, #1
   12190:	e30a1fd4 	movw	r1, #45012	; 0xafd4
   12194:	e3401001 	movt	r1, #1
   12198:	e3a020cb 	mov	r2, #203	; 0xcb
   1219c:	eb001766 	bl	17f3c <uspi_assertion_failed>
   121a0:	e585404c 	str	r4, [r5, #76]	; 0x4c
   121a4:	e8bd8038 	pop	{r3, r4, r5, pc}

000121a8 <USBKeyboardDeviceRegisterKeyStatusHandlerRaw>:
   121a8:	e92d4038 	push	{r3, r4, r5, lr}
   121ac:	e1a04001 	mov	r4, r1
   121b0:	e2505000 	subs	r5, r0, #0
   121b4:	1a000005 	bne	121d0 <USBKeyboardDeviceRegisterKeyStatusHandlerRaw+0x28>
   121b8:	e3090ce4 	movw	r0, #40164	; 0x9ce4
   121bc:	e3400001 	movt	r0, #1
   121c0:	e30a1fd4 	movw	r1, #45012	; 0xafd4
   121c4:	e3401001 	movt	r1, #1
   121c8:	e3a020d1 	mov	r2, #209	; 0xd1
   121cc:	eb00175a 	bl	17f3c <uspi_assertion_failed>
   121d0:	e3540000 	cmp	r4, #0
   121d4:	1a000005 	bne	121f0 <USBKeyboardDeviceRegisterKeyStatusHandlerRaw+0x48>
   121d8:	e30b0104 	movw	r0, #45316	; 0xb104
   121dc:	e3400001 	movt	r0, #1
   121e0:	e30a1fd4 	movw	r1, #45012	; 0xafd4
   121e4:	e3401001 	movt	r1, #1
   121e8:	e3a020d2 	mov	r2, #210	; 0xd2
   121ec:	eb001752 	bl	17f3c <uspi_assertion_failed>
   121f0:	e5854050 	str	r4, [r5, #80]	; 0x50
   121f4:	e8bd8038 	pop	{r3, r4, r5, pc}

000121f8 <DWHCIRootPort>:
   121f8:	e92d4038 	push	{r3, r4, r5, lr}
   121fc:	e1a04001 	mov	r4, r1
   12200:	e2505000 	subs	r5, r0, #0
   12204:	1a000005 	bne	12220 <DWHCIRootPort+0x28>
   12208:	e3090ce4 	movw	r0, #40164	; 0x9ce4
   1220c:	e3400001 	movt	r0, #1
   12210:	e30b1128 	movw	r1, #45352	; 0xb128
   12214:	e3401001 	movt	r1, #1
   12218:	e3a0201f 	mov	r2, #31
   1221c:	eb001746 	bl	17f3c <uspi_assertion_failed>
   12220:	e5854000 	str	r4, [r5]
   12224:	e3a03000 	mov	r3, #0
   12228:	e5853004 	str	r3, [r5, #4]
   1222c:	e1540003 	cmp	r4, r3
   12230:	18bd8038 	popne	{r3, r4, r5, pc}
   12234:	e30a04cc 	movw	r0, #42188	; 0xa4cc
   12238:	e3400001 	movt	r0, #1
   1223c:	e30b1128 	movw	r1, #45352	; 0xb128
   12240:	e3401001 	movt	r1, #1
   12244:	e3a02024 	mov	r2, #36	; 0x24
   12248:	eb00173b 	bl	17f3c <uspi_assertion_failed>
   1224c:	e8bd8038 	pop	{r3, r4, r5, pc}

00012250 <_DWHCIRootPort>:
   12250:	e92d4010 	push	{r4, lr}
   12254:	e2504000 	subs	r4, r0, #0
   12258:	1a000005 	bne	12274 <_DWHCIRootPort+0x24>
   1225c:	e3090ce4 	movw	r0, #40164	; 0x9ce4
   12260:	e3400001 	movt	r0, #1
   12264:	e30b1128 	movw	r1, #45352	; 0xb128
   12268:	e3401001 	movt	r1, #1
   1226c:	e3a02029 	mov	r2, #41	; 0x29
   12270:	eb001731 	bl	17f3c <uspi_assertion_failed>
   12274:	e5940004 	ldr	r0, [r4, #4]
   12278:	e3500000 	cmp	r0, #0
   1227c:	0a000004 	beq	12294 <_DWHCIRootPort+0x44>
   12280:	ebffebac 	bl	d138 <_USBDevice>
   12284:	e5940004 	ldr	r0, [r4, #4]
   12288:	eb000ed1 	bl	15dd4 <free>
   1228c:	e3a03000 	mov	r3, #0
   12290:	e5843004 	str	r3, [r4, #4]
   12294:	e3a03000 	mov	r3, #0
   12298:	e5843000 	str	r3, [r4]
   1229c:	e8bd8010 	pop	{r4, pc}

000122a0 <DWHCIRootPortInitialize>:
   122a0:	e92d4030 	push	{r4, r5, lr}
   122a4:	e24dd00c 	sub	sp, sp, #12
   122a8:	e2504000 	subs	r4, r0, #0
   122ac:	1a000005 	bne	122c8 <DWHCIRootPortInitialize+0x28>
   122b0:	e3090ce4 	movw	r0, #40164	; 0x9ce4
   122b4:	e3400001 	movt	r0, #1
   122b8:	e30b1128 	movw	r1, #45352	; 0xb128
   122bc:	e3401001 	movt	r1, #1
   122c0:	e3a02037 	mov	r2, #55	; 0x37
   122c4:	eb00171c 	bl	17f3c <uspi_assertion_failed>
   122c8:	e5943000 	ldr	r3, [r4]
   122cc:	e3530000 	cmp	r3, #0
   122d0:	1a000005 	bne	122ec <DWHCIRootPortInitialize+0x4c>
   122d4:	e30a04cc 	movw	r0, #42188	; 0xa4cc
   122d8:	e3400001 	movt	r0, #1
   122dc:	e30b1128 	movw	r1, #45352	; 0xb128
   122e0:	e3401001 	movt	r1, #1
   122e4:	e3a02039 	mov	r2, #57	; 0x39
   122e8:	eb001713 	bl	17f3c <uspi_assertion_failed>
   122ec:	e5940000 	ldr	r0, [r4]
   122f0:	ebffe522 	bl	b780 <DWHCIDeviceGetPortSpeed>
   122f4:	e1a05000 	mov	r5, r0
   122f8:	e3500003 	cmp	r0, #3
   122fc:	1a000007 	bne	12320 <DWHCIRootPortInitialize+0x80>
   12300:	e30b0120 	movw	r0, #45344	; 0xb120
   12304:	e3400001 	movt	r0, #1
   12308:	e3a01001 	mov	r1, #1
   1230c:	e30b2138 	movw	r2, #45368	; 0xb138
   12310:	e3402001 	movt	r2, #1
   12314:	eb0016f6 	bl	17ef4 <LogWrite>
   12318:	e3a05000 	mov	r5, #0
   1231c:	ea00007e 	b	1251c <DWHCIRootPortInitialize+0x27c>
   12320:	e5943004 	ldr	r3, [r4, #4]
   12324:	e3530000 	cmp	r3, #0
   12328:	0a000005 	beq	12344 <DWHCIRootPortInitialize+0xa4>
   1232c:	e30b0154 	movw	r0, #45396	; 0xb154
   12330:	e3400001 	movt	r0, #1
   12334:	e30b1128 	movw	r1, #45352	; 0xb128
   12338:	e3401001 	movt	r1, #1
   1233c:	e3a02043 	mov	r2, #67	; 0x43
   12340:	eb0016fd 	bl	17f3c <uspi_assertion_failed>
   12344:	e3a0003c 	mov	r0, #60	; 0x3c
   12348:	eb000e45 	bl	15c64 <malloc>
   1234c:	e5840004 	str	r0, [r4, #4]
   12350:	e3500000 	cmp	r0, #0
   12354:	1a000005 	bne	12370 <DWHCIRootPortInitialize+0xd0>
   12358:	e30a03b8 	movw	r0, #41912	; 0xa3b8
   1235c:	e3400001 	movt	r0, #1
   12360:	e30b1128 	movw	r1, #45352	; 0xb128
   12364:	e3401001 	movt	r1, #1
   12368:	e3a02045 	mov	r2, #69	; 0x45
   1236c:	eb0016f2 	bl	17f3c <uspi_assertion_failed>
   12370:	e5940004 	ldr	r0, [r4, #4]
   12374:	e5941000 	ldr	r1, [r4]
   12378:	e3a03001 	mov	r3, #1
   1237c:	e58d3000 	str	r3, [sp]
   12380:	e1a02005 	mov	r2, r5
   12384:	e3a03000 	mov	r3, #0
   12388:	ebffeaaa 	bl	ce38 <USBDevice>
   1238c:	e5940004 	ldr	r0, [r4, #4]
   12390:	ebffecbe 	bl	d690 <USBDeviceInitialize>
   12394:	e2505000 	subs	r5, r0, #0
   12398:	1a000006 	bne	123b8 <DWHCIRootPortInitialize+0x118>
   1239c:	e5940004 	ldr	r0, [r4, #4]
   123a0:	ebffeb64 	bl	d138 <_USBDevice>
   123a4:	e5940004 	ldr	r0, [r4, #4]
   123a8:	eb000e89 	bl	15dd4 <free>
   123ac:	e3a03000 	mov	r3, #0
   123b0:	e5843004 	str	r3, [r4, #4]
   123b4:	ea000058 	b	1251c <DWHCIRootPortInitialize+0x27c>
   123b8:	e5940004 	ldr	r0, [r4, #4]
   123bc:	eb000a04 	bl	14bd4 <USBStandardHubGetDeviceNames>
   123c0:	e2505000 	subs	r5, r0, #0
   123c4:	1a000005 	bne	123e0 <DWHCIRootPortInitialize+0x140>
   123c8:	e30b016c 	movw	r0, #45420	; 0xb16c
   123cc:	e3400001 	movt	r0, #1
   123d0:	e30b1128 	movw	r1, #45352	; 0xb128
   123d4:	e3401001 	movt	r1, #1
   123d8:	e3a02052 	mov	r2, #82	; 0x52
   123dc:	eb0016d6 	bl	17f3c <uspi_assertion_failed>
   123e0:	e1a00005 	mov	r0, r5
   123e4:	ebfff521 	bl	f870 <StringGet>
   123e8:	e1a03000 	mov	r3, r0
   123ec:	e30b0120 	movw	r0, #45344	; 0xb120
   123f0:	e3400001 	movt	r0, #1
   123f4:	e3a01003 	mov	r1, #3
   123f8:	e30b2178 	movw	r2, #45432	; 0xb178
   123fc:	e3402001 	movt	r2, #1
   12400:	eb0016bb 	bl	17ef4 <LogWrite>
   12404:	e1a00005 	mov	r0, r5
   12408:	ebfff508 	bl	f830 <_String>
   1240c:	e1a00005 	mov	r0, r5
   12410:	eb000e6f 	bl	15dd4 <free>
   12414:	e5940004 	ldr	r0, [r4, #4]
   12418:	eb000979 	bl	14a04 <USBDeviceFactoryGetDevice>
   1241c:	e2505000 	subs	r5, r0, #0
   12420:	0a000022 	beq	124b0 <DWHCIRootPortInitialize+0x210>
   12424:	e5940004 	ldr	r0, [r4, #4]
   12428:	ebffeb42 	bl	d138 <_USBDevice>
   1242c:	e5940004 	ldr	r0, [r4, #4]
   12430:	eb000e67 	bl	15dd4 <free>
   12434:	e5845004 	str	r5, [r4, #4]
   12438:	e5953000 	ldr	r3, [r5]
   1243c:	e1a00005 	mov	r0, r5
   12440:	e12fff33 	blx	r3
   12444:	e2505000 	subs	r5, r0, #0
   12448:	1a00000c 	bne	12480 <DWHCIRootPortInitialize+0x1e0>
   1244c:	e30b0120 	movw	r0, #45344	; 0xb120
   12450:	e3400001 	movt	r0, #1
   12454:	e3a01001 	mov	r1, #1
   12458:	e30b2188 	movw	r2, #45448	; 0xb188
   1245c:	e3402001 	movt	r2, #1
   12460:	eb0016a3 	bl	17ef4 <LogWrite>
   12464:	e5940004 	ldr	r0, [r4, #4]
   12468:	ebffeb32 	bl	d138 <_USBDevice>
   1246c:	e5940004 	ldr	r0, [r4, #4]
   12470:	eb000e57 	bl	15dd4 <free>
   12474:	e3a03000 	mov	r3, #0
   12478:	e5843004 	str	r3, [r4, #4]
   1247c:	ea000026 	b	1251c <DWHCIRootPortInitialize+0x27c>
   12480:	e30b0120 	movw	r0, #45344	; 0xb120
   12484:	e3400001 	movt	r0, #1
   12488:	e3a01004 	mov	r1, #4
   1248c:	e30b21a0 	movw	r2, #45472	; 0xb1a0
   12490:	e3402001 	movt	r2, #1
   12494:	eb001696 	bl	17ef4 <LogWrite>
   12498:	e5940000 	ldr	r0, [r4]
   1249c:	ebffe4d6 	bl	b7fc <DWHCIDeviceOvercurrentDetected>
   124a0:	e3500000 	cmp	r0, #0
   124a4:	03a05001 	moveq	r5, #1
   124a8:	0a00001b 	beq	1251c <DWHCIRootPortInitialize+0x27c>
   124ac:	ea00000c 	b	124e4 <DWHCIRootPortInitialize+0x244>
   124b0:	e30b0120 	movw	r0, #45344	; 0xb120
   124b4:	e3400001 	movt	r0, #1
   124b8:	e3a01003 	mov	r1, #3
   124bc:	e30b21b4 	movw	r2, #45492	; 0xb1b4
   124c0:	e3402001 	movt	r2, #1
   124c4:	eb00168a 	bl	17ef4 <LogWrite>
   124c8:	e5940004 	ldr	r0, [r4, #4]
   124cc:	ebffeb19 	bl	d138 <_USBDevice>
   124d0:	e5940004 	ldr	r0, [r4, #4]
   124d4:	eb000e3e 	bl	15dd4 <free>
   124d8:	e3a05000 	mov	r5, #0
   124dc:	e5845004 	str	r5, [r4, #4]
   124e0:	ea00000d 	b	1251c <DWHCIRootPortInitialize+0x27c>
   124e4:	e30b0120 	movw	r0, #45344	; 0xb120
   124e8:	e3400001 	movt	r0, #1
   124ec:	e3a01001 	mov	r1, #1
   124f0:	e30b21cc 	movw	r2, #45516	; 0xb1cc
   124f4:	e3402001 	movt	r2, #1
   124f8:	eb00167d 	bl	17ef4 <LogWrite>
   124fc:	e5940000 	ldr	r0, [r4]
   12500:	ebffe4d8 	bl	b868 <DWHCIDeviceDisableRootPort>
   12504:	e5940004 	ldr	r0, [r4, #4]
   12508:	ebffeb0a 	bl	d138 <_USBDevice>
   1250c:	e5940004 	ldr	r0, [r4, #4]
   12510:	eb000e2f 	bl	15dd4 <free>
   12514:	e3a05000 	mov	r5, #0
   12518:	e5845004 	str	r5, [r4, #4]
   1251c:	e1a00005 	mov	r0, r5
   12520:	e28dd00c 	add	sp, sp, #12
   12524:	e8bd8030 	pop	{r4, r5, pc}

00012528 <USBMouseDeviceStartRequest>:
   12528:	e92d4030 	push	{r4, r5, lr}
   1252c:	e24dd00c 	sub	sp, sp, #12
   12530:	e2504000 	subs	r4, r0, #0
   12534:	1a000005 	bne	12550 <USBMouseDeviceStartRequest+0x28>
   12538:	e3090ce4 	movw	r0, #40164	; 0x9ce4
   1253c:	e3400001 	movt	r0, #1
   12540:	e30b11ec 	movw	r1, #45548	; 0xb1ec
   12544:	e3401001 	movt	r1, #1
   12548:	e3a020af 	mov	r2, #175	; 0xaf
   1254c:	eb00167a 	bl	17f3c <uspi_assertion_failed>
   12550:	e5943040 	ldr	r3, [r4, #64]	; 0x40
   12554:	e3530000 	cmp	r3, #0
   12558:	1a000005 	bne	12574 <USBMouseDeviceStartRequest+0x4c>
   1255c:	e30a0fe4 	movw	r0, #45028	; 0xafe4
   12560:	e3400001 	movt	r0, #1
   12564:	e30b11ec 	movw	r1, #45548	; 0xb1ec
   12568:	e3401001 	movt	r1, #1
   1256c:	e3a020b1 	mov	r2, #177	; 0xb1
   12570:	eb001671 	bl	17f3c <uspi_assertion_failed>
   12574:	e594304c 	ldr	r3, [r4, #76]	; 0x4c
   12578:	e3530000 	cmp	r3, #0
   1257c:	1a000005 	bne	12598 <USBMouseDeviceStartRequest+0x70>
   12580:	e30b0004 	movw	r0, #45060	; 0xb004
   12584:	e3400001 	movt	r0, #1
   12588:	e30b11ec 	movw	r1, #45548	; 0xb1ec
   1258c:	e3401001 	movt	r1, #1
   12590:	e3a020b2 	mov	r2, #178	; 0xb2
   12594:	eb001668 	bl	17f3c <uspi_assertion_failed>
   12598:	e5943048 	ldr	r3, [r4, #72]	; 0x48
   1259c:	e3530000 	cmp	r3, #0
   125a0:	0a000005 	beq	125bc <USBMouseDeviceStartRequest+0x94>
   125a4:	e30b0020 	movw	r0, #45088	; 0xb020
   125a8:	e3400001 	movt	r0, #1
   125ac:	e30b11ec 	movw	r1, #45548	; 0xb1ec
   125b0:	e3401001 	movt	r1, #1
   125b4:	e3a020b4 	mov	r2, #180	; 0xb4
   125b8:	eb00165f 	bl	17f3c <uspi_assertion_failed>
   125bc:	e3a00024 	mov	r0, #36	; 0x24
   125c0:	eb000da7 	bl	15c64 <malloc>
   125c4:	e5840048 	str	r0, [r4, #72]	; 0x48
   125c8:	e3500000 	cmp	r0, #0
   125cc:	1a000005 	bne	125e8 <USBMouseDeviceStartRequest+0xc0>
   125d0:	e30a03a4 	movw	r0, #41892	; 0xa3a4
   125d4:	e3400001 	movt	r0, #1
   125d8:	e30b11ec 	movw	r1, #45548	; 0xb1ec
   125dc:	e3401001 	movt	r1, #1
   125e0:	e3a020b6 	mov	r2, #182	; 0xb6
   125e4:	eb001654 	bl	17f3c <uspi_assertion_failed>
   125e8:	e5940048 	ldr	r0, [r4, #72]	; 0x48
   125ec:	e5941040 	ldr	r1, [r4, #64]	; 0x40
   125f0:	e594204c 	ldr	r2, [r4, #76]	; 0x4c
   125f4:	e3a05000 	mov	r5, #0
   125f8:	e58d5000 	str	r5, [sp]
   125fc:	e3a03003 	mov	r3, #3
   12600:	ebffeee3 	bl	e194 <USBRequest>
   12604:	e5940048 	ldr	r0, [r4, #72]	; 0x48
   12608:	e3021928 	movw	r1, #10536	; 0x2928
   1260c:	e3401001 	movt	r1, #1
   12610:	e1a02005 	mov	r2, r5
   12614:	e1a03004 	mov	r3, r4
   12618:	ebffefa3 	bl	e4ac <USBRequestSetCompletionRoutine>
   1261c:	e1a00004 	mov	r0, r4
   12620:	ebffeb9c 	bl	d498 <USBDeviceGetHost>
   12624:	e5941048 	ldr	r1, [r4, #72]	; 0x48
   12628:	ebffde46 	bl	9f48 <DWHCIDeviceSubmitAsyncRequest>
   1262c:	e28dd00c 	add	sp, sp, #12
   12630:	e8bd8030 	pop	{r4, r5, pc}

00012634 <USBMouseDeviceConfigure>:
   12634:	e92d41f0 	push	{r4, r5, r6, r7, r8, lr}
   12638:	e24dd020 	sub	sp, sp, #32
   1263c:	e2506000 	subs	r6, r0, #0
   12640:	1a000005 	bne	1265c <USBMouseDeviceConfigure+0x28>
   12644:	e3090ce4 	movw	r0, #40164	; 0x9ce4
   12648:	e3400001 	movt	r0, #1
   1264c:	e30b11ec 	movw	r1, #45548	; 0xb1ec
   12650:	e3401001 	movt	r1, #1
   12654:	e3a0204a 	mov	r2, #74	; 0x4a
   12658:	eb001637 	bl	17f3c <uspi_assertion_failed>
   1265c:	e1a04006 	mov	r4, r6
   12660:	e1a00006 	mov	r0, r6
   12664:	e3a01002 	mov	r1, #2
   12668:	ebffebc6 	bl	d588 <USBDeviceGetDescriptor>
   1266c:	e3500000 	cmp	r0, #0
   12670:	0a000004 	beq	12688 <USBMouseDeviceConfigure+0x54>
   12674:	e5d03004 	ldrb	r3, [r0, #4]
   12678:	e3530000 	cmp	r3, #0
   1267c:	13a05004 	movne	r5, #4
   12680:	13a07005 	movne	r7, #5
   12684:	1a00003a 	bne	12774 <USBMouseDeviceConfigure+0x140>
   12688:	e1a00006 	mov	r0, r6
   1268c:	e30b11e4 	movw	r1, #45540	; 0xb1e4
   12690:	e3401001 	movt	r1, #1
   12694:	ebffebd2 	bl	d5e4 <USBDeviceConfigurationError>
   12698:	e3a04000 	mov	r4, #0
   1269c:	ea00009e 	b	1291c <USBMouseDeviceConfigure+0x2e8>
   126a0:	e5d0c004 	ldrb	ip, [r0, #4]
   126a4:	e35c0000 	cmp	ip, #0
   126a8:	0a000031 	beq	12774 <USBMouseDeviceConfigure+0x140>
   126ac:	e5d0c005 	ldrb	ip, [r0, #5]
   126b0:	e35c0003 	cmp	ip, #3
   126b4:	1a00002e 	bne	12774 <USBMouseDeviceConfigure+0x140>
   126b8:	e5d02006 	ldrb	r2, [r0, #6]
   126bc:	e3520001 	cmp	r2, #1
   126c0:	1a00002b 	bne	12774 <USBMouseDeviceConfigure+0x140>
   126c4:	e5d02007 	ldrb	r2, [r0, #7]
   126c8:	e3520002 	cmp	r2, #2
   126cc:	1a000028 	bne	12774 <USBMouseDeviceConfigure+0x140>
   126d0:	e5d02002 	ldrb	r2, [r0, #2]
   126d4:	e5c6203c 	strb	r2, [r6, #60]	; 0x3c
   126d8:	e5d03003 	ldrb	r3, [r0, #3]
   126dc:	e5c6303d 	strb	r3, [r6, #61]	; 0x3d
   126e0:	e1a00004 	mov	r0, r4
   126e4:	e1a01007 	mov	r1, r7
   126e8:	ebffeba6 	bl	d588 <USBDeviceGetDescriptor>
   126ec:	e2508000 	subs	r8, r0, #0
   126f0:	0a00001f 	beq	12774 <USBMouseDeviceConfigure+0x140>
   126f4:	e1d830d2 	ldrsb	r3, [r8, #2]
   126f8:	e3530000 	cmp	r3, #0
   126fc:	aa00001c 	bge	12774 <USBMouseDeviceConfigure+0x140>
   12700:	e5d83003 	ldrb	r3, [r8, #3]
   12704:	e203303f 	and	r3, r3, #63	; 0x3f
   12708:	e3530003 	cmp	r3, #3
   1270c:	1a000018 	bne	12774 <USBMouseDeviceConfigure+0x140>
   12710:	e5963040 	ldr	r3, [r6, #64]	; 0x40
   12714:	e3530000 	cmp	r3, #0
   12718:	0a000005 	beq	12734 <USBMouseDeviceConfigure+0x100>
   1271c:	e30b0034 	movw	r0, #45108	; 0xb034
   12720:	e3400001 	movt	r0, #1
   12724:	e30b11ec 	movw	r1, #45548	; 0xb1ec
   12728:	e3401001 	movt	r1, #1
   1272c:	e3a0206d 	mov	r2, #109	; 0x6d
   12730:	eb001601 	bl	17f3c <uspi_assertion_failed>
   12734:	e3a0001c 	mov	r0, #28
   12738:	eb000d49 	bl	15c64 <malloc>
   1273c:	e5860040 	str	r0, [r6, #64]	; 0x40
   12740:	e3500000 	cmp	r0, #0
   12744:	1a000005 	bne	12760 <USBMouseDeviceConfigure+0x12c>
   12748:	e30a0fe4 	movw	r0, #45028	; 0xafe4
   1274c:	e3400001 	movt	r0, #1
   12750:	e30b11ec 	movw	r1, #45548	; 0xb1ec
   12754:	e3401001 	movt	r1, #1
   12758:	e3a0206f 	mov	r2, #111	; 0x6f
   1275c:	eb0015f6 	bl	17f3c <uspi_assertion_failed>
   12760:	e5960040 	ldr	r0, [r6, #64]	; 0x40
   12764:	e1a01006 	mov	r1, r6
   12768:	e1a02008 	mov	r2, r8
   1276c:	ebffed1b 	bl	dbe0 <USBEndpoint2>
   12770:	ea000004 	b	12788 <USBMouseDeviceConfigure+0x154>
   12774:	e1a00004 	mov	r0, r4
   12778:	e1a01005 	mov	r1, r5
   1277c:	ebffeb81 	bl	d588 <USBDeviceGetDescriptor>
   12780:	e3500000 	cmp	r0, #0
   12784:	1affffc5 	bne	126a0 <USBMouseDeviceConfigure+0x6c>
   12788:	e5963040 	ldr	r3, [r6, #64]	; 0x40
   1278c:	e3530000 	cmp	r3, #0
   12790:	1a000005 	bne	127ac <USBMouseDeviceConfigure+0x178>
   12794:	e1a00006 	mov	r0, r6
   12798:	e30b11e4 	movw	r1, #45540	; 0xb1e4
   1279c:	e3401001 	movt	r1, #1
   127a0:	ebffeb8f 	bl	d5e4 <USBDeviceConfigurationError>
   127a4:	e3a04000 	mov	r4, #0
   127a8:	ea00005b 	b	1291c <USBMouseDeviceConfigure+0x2e8>
   127ac:	e1a00006 	mov	r0, r6
   127b0:	ebffe96f 	bl	cd74 <USBDeviceConfigure>
   127b4:	e2504000 	subs	r4, r0, #0
   127b8:	1a000006 	bne	127d8 <USBMouseDeviceConfigure+0x1a4>
   127bc:	e30b01e4 	movw	r0, #45540	; 0xb1e4
   127c0:	e3400001 	movt	r0, #1
   127c4:	e3a01001 	mov	r1, #1
   127c8:	e30a2bb8 	movw	r2, #43960	; 0xabb8
   127cc:	e3402001 	movt	r2, #1
   127d0:	eb0015c7 	bl	17ef4 <LogWrite>
   127d4:	ea000050 	b	1291c <USBMouseDeviceConfigure+0x2e8>
   127d8:	e5d6303d 	ldrb	r3, [r6, #61]	; 0x3d
   127dc:	e3530000 	cmp	r3, #0
   127e0:	0a00001a 	beq	12850 <USBMouseDeviceConfigure+0x21c>
   127e4:	e1a00006 	mov	r0, r6
   127e8:	ebffeb2a 	bl	d498 <USBDeviceGetHost>
   127ec:	e1a04000 	mov	r4, r0
   127f0:	e1a00006 	mov	r0, r6
   127f4:	ebffeb13 	bl	d448 <USBDeviceGetEndpoint0>
   127f8:	e1a01000 	mov	r1, r0
   127fc:	e5d6303d 	ldrb	r3, [r6, #61]	; 0x3d
   12800:	e58d3000 	str	r3, [sp]
   12804:	e5d6303c 	ldrb	r3, [r6, #60]	; 0x3c
   12808:	e58d3004 	str	r3, [sp, #4]
   1280c:	e3a03000 	mov	r3, #0
   12810:	e58d3008 	str	r3, [sp, #8]
   12814:	e58d300c 	str	r3, [sp, #12]
   12818:	e1a00004 	mov	r0, r4
   1281c:	e3a02001 	mov	r2, #1
   12820:	e3a0300b 	mov	r3, #11
   12824:	ebffdece 	bl	a364 <DWHCIDeviceControlMessage>
   12828:	e3500000 	cmp	r0, #0
   1282c:	aa000007 	bge	12850 <USBMouseDeviceConfigure+0x21c>
   12830:	e30b01e4 	movw	r0, #45540	; 0xb1e4
   12834:	e3400001 	movt	r0, #1
   12838:	e3a01001 	mov	r1, #1
   1283c:	e30b2054 	movw	r2, #45140	; 0xb054
   12840:	e3402001 	movt	r2, #1
   12844:	eb0015aa 	bl	17ef4 <LogWrite>
   12848:	e3a04000 	mov	r4, #0
   1284c:	ea000032 	b	1291c <USBMouseDeviceConfigure+0x2e8>
   12850:	e1a00006 	mov	r0, r6
   12854:	ebffeb0f 	bl	d498 <USBDeviceGetHost>
   12858:	e1a04000 	mov	r4, r0
   1285c:	e1a00006 	mov	r0, r6
   12860:	ebffeaf8 	bl	d448 <USBDeviceGetEndpoint0>
   12864:	e1a01000 	mov	r1, r0
   12868:	e3a03000 	mov	r3, #0
   1286c:	e58d3000 	str	r3, [sp]
   12870:	e5d6203c 	ldrb	r2, [r6, #60]	; 0x3c
   12874:	e58d2004 	str	r2, [sp, #4]
   12878:	e58d3008 	str	r3, [sp, #8]
   1287c:	e58d300c 	str	r3, [sp, #12]
   12880:	e1a00004 	mov	r0, r4
   12884:	e3a02021 	mov	r2, #33	; 0x21
   12888:	e3a0300b 	mov	r3, #11
   1288c:	ebffdeb4 	bl	a364 <DWHCIDeviceControlMessage>
   12890:	e3500000 	cmp	r0, #0
   12894:	aa000007 	bge	128b8 <USBMouseDeviceConfigure+0x284>
   12898:	e30b01e4 	movw	r0, #45540	; 0xb1e4
   1289c:	e3400001 	movt	r0, #1
   128a0:	e3a01001 	mov	r1, #1
   128a4:	e30b206c 	movw	r2, #45164	; 0xb06c
   128a8:	e3402001 	movt	r2, #1
   128ac:	eb001590 	bl	17ef4 <LogWrite>
   128b0:	e3a04000 	mov	r4, #0
   128b4:	ea000018 	b	1291c <USBMouseDeviceConfigure+0x2e8>
   128b8:	e28d0014 	add	r0, sp, #20
   128bc:	ebfff3bb 	bl	f7b0 <String>
   128c0:	e30c35c4 	movw	r3, #50628	; 0xc5c4
   128c4:	e3403001 	movt	r3, #1
   128c8:	e5932000 	ldr	r2, [r3]
   128cc:	e2821001 	add	r1, r2, #1
   128d0:	e5831000 	str	r1, [r3]
   128d4:	e28d0014 	add	r0, sp, #20
   128d8:	e30b11f8 	movw	r1, #45560	; 0xb1f8
   128dc:	e3401001 	movt	r1, #1
   128e0:	ebfff642 	bl	101f0 <StringFormat>
   128e4:	ebffefde 	bl	e864 <DeviceNameServiceGet>
   128e8:	e1a04000 	mov	r4, r0
   128ec:	e28d0014 	add	r0, sp, #20
   128f0:	ebfff3de 	bl	f870 <StringGet>
   128f4:	e1a01000 	mov	r1, r0
   128f8:	e1a00004 	mov	r0, r4
   128fc:	e1a02006 	mov	r2, r6
   12900:	e3a03000 	mov	r3, #0
   12904:	ebffef5e 	bl	e684 <DeviceNameServiceAddDevice>
   12908:	e28d0014 	add	r0, sp, #20
   1290c:	ebfff3c7 	bl	f830 <_String>
   12910:	e1a00006 	mov	r0, r6
   12914:	ebffff03 	bl	12528 <USBMouseDeviceStartRequest>
   12918:	e1a04000 	mov	r4, r0
   1291c:	e1a00004 	mov	r0, r4
   12920:	e28dd020 	add	sp, sp, #32
   12924:	e8bd81f0 	pop	{r4, r5, r6, r7, r8, pc}

00012928 <USBMouseDeviceCompletionRoutine>:
   12928:	e92d40f8 	push	{r3, r4, r5, r6, r7, lr}
   1292c:	e1a05000 	mov	r5, r0
   12930:	e2524000 	subs	r4, r2, #0
   12934:	1a000005 	bne	12950 <USBMouseDeviceCompletionRoutine+0x28>
   12938:	e3090ce4 	movw	r0, #40164	; 0x9ce4
   1293c:	e3400001 	movt	r0, #1
   12940:	e30b11ec 	movw	r1, #45548	; 0xb1ec
   12944:	e3401001 	movt	r1, #1
   12948:	e3a020c0 	mov	r2, #192	; 0xc0
   1294c:	eb00157a 	bl	17f3c <uspi_assertion_failed>
   12950:	e3550000 	cmp	r5, #0
   12954:	1a000005 	bne	12970 <USBMouseDeviceCompletionRoutine+0x48>
   12958:	e3090dbc 	movw	r0, #40380	; 0x9dbc
   1295c:	e3400001 	movt	r0, #1
   12960:	e30b11ec 	movw	r1, #45548	; 0xb1ec
   12964:	e3401001 	movt	r1, #1
   12968:	e3a020c2 	mov	r2, #194	; 0xc2
   1296c:	eb001572 	bl	17f3c <uspi_assertion_failed>
   12970:	e5943048 	ldr	r3, [r4, #72]	; 0x48
   12974:	e1530005 	cmp	r3, r5
   12978:	0a000005 	beq	12994 <USBMouseDeviceCompletionRoutine+0x6c>
   1297c:	e30b0090 	movw	r0, #45200	; 0xb090
   12980:	e3400001 	movt	r0, #1
   12984:	e30b11ec 	movw	r1, #45548	; 0xb1ec
   12988:	e3401001 	movt	r1, #1
   1298c:	e3a020c3 	mov	r2, #195	; 0xc3
   12990:	eb001569 	bl	17f3c <uspi_assertion_failed>
   12994:	e1a00005 	mov	r0, r5
   12998:	ebffee64 	bl	e330 <USBRequestGetStatus>
   1299c:	e3500000 	cmp	r0, #0
   129a0:	0a00001c 	beq	12a18 <USBMouseDeviceCompletionRoutine+0xf0>
   129a4:	e1a00005 	mov	r0, r5
   129a8:	ebffee6b 	bl	e35c <USBRequestGetResultLength>
   129ac:	e3500003 	cmp	r0, #3
   129b0:	1a000018 	bne	12a18 <USBMouseDeviceCompletionRoutine+0xf0>
   129b4:	e5943044 	ldr	r3, [r4, #68]	; 0x44
   129b8:	e3530000 	cmp	r3, #0
   129bc:	0a000015 	beq	12a18 <USBMouseDeviceCompletionRoutine+0xf0>
   129c0:	e594304c 	ldr	r3, [r4, #76]	; 0x4c
   129c4:	e3530000 	cmp	r3, #0
   129c8:	1a000005 	bne	129e4 <USBMouseDeviceCompletionRoutine+0xbc>
   129cc:	e30b0004 	movw	r0, #45060	; 0xb004
   129d0:	e3400001 	movt	r0, #1
   129d4:	e30b11ec 	movw	r1, #45548	; 0xb1ec
   129d8:	e3401001 	movt	r1, #1
   129dc:	e3a020c9 	mov	r2, #201	; 0xc9
   129e0:	eb001555 	bl	17f3c <uspi_assertion_failed>
   129e4:	e5945044 	ldr	r5, [r4, #68]	; 0x44
   129e8:	e594304c 	ldr	r3, [r4, #76]	; 0x4c
   129ec:	e5d37000 	ldrb	r7, [r3]
   129f0:	e1d300d1 	ldrsb	r0, [r3, #1]
   129f4:	ebfff6af 	bl	104b8 <uspi_char2int>
   129f8:	e1a06000 	mov	r6, r0
   129fc:	e594304c 	ldr	r3, [r4, #76]	; 0x4c
   12a00:	e1d300d2 	ldrsb	r0, [r3, #2]
   12a04:	ebfff6ab 	bl	104b8 <uspi_char2int>
   12a08:	e1a02000 	mov	r2, r0
   12a0c:	e1a00007 	mov	r0, r7
   12a10:	e1a01006 	mov	r1, r6
   12a14:	e12fff35 	blx	r5
   12a18:	e5940048 	ldr	r0, [r4, #72]	; 0x48
   12a1c:	ebffee08 	bl	e244 <_USBRequest>
   12a20:	e5940048 	ldr	r0, [r4, #72]	; 0x48
   12a24:	eb000cea 	bl	15dd4 <free>
   12a28:	e3a03000 	mov	r3, #0
   12a2c:	e5843048 	str	r3, [r4, #72]	; 0x48
   12a30:	e1a00004 	mov	r0, r4
   12a34:	ebfffebb 	bl	12528 <USBMouseDeviceStartRequest>
   12a38:	e8bd80f8 	pop	{r3, r4, r5, r6, r7, pc}

00012a3c <USBMouseDevice>:
   12a3c:	e92d4038 	push	{r3, r4, r5, lr}
   12a40:	e1a05001 	mov	r5, r1
   12a44:	e2504000 	subs	r4, r0, #0
   12a48:	1a000005 	bne	12a64 <USBMouseDevice+0x28>
   12a4c:	e3090ce4 	movw	r0, #40164	; 0x9ce4
   12a50:	e3400001 	movt	r0, #1
   12a54:	e30b11ec 	movw	r1, #45548	; 0xb1ec
   12a58:	e3401001 	movt	r1, #1
   12a5c:	e3a02025 	mov	r2, #37	; 0x25
   12a60:	eb001535 	bl	17f3c <uspi_assertion_failed>
   12a64:	e1a00004 	mov	r0, r4
   12a68:	e1a01005 	mov	r1, r5
   12a6c:	ebffe939 	bl	cf58 <USBDeviceCopy>
   12a70:	e3023634 	movw	r3, #9780	; 0x2634
   12a74:	e3403001 	movt	r3, #1
   12a78:	e5843000 	str	r3, [r4]
   12a7c:	e3a03000 	mov	r3, #0
   12a80:	e5843040 	str	r3, [r4, #64]	; 0x40
   12a84:	e5843044 	str	r3, [r4, #68]	; 0x44
   12a88:	e5843048 	str	r3, [r4, #72]	; 0x48
   12a8c:	e584304c 	str	r3, [r4, #76]	; 0x4c
   12a90:	e3a00003 	mov	r0, #3
   12a94:	eb000c72 	bl	15c64 <malloc>
   12a98:	e584004c 	str	r0, [r4, #76]	; 0x4c
   12a9c:	e3500000 	cmp	r0, #0
   12aa0:	18bd8038 	popne	{r3, r4, r5, pc}
   12aa4:	e30b0004 	movw	r0, #45060	; 0xb004
   12aa8:	e3400001 	movt	r0, #1
   12aac:	e30b11ec 	movw	r1, #45548	; 0xb1ec
   12ab0:	e3401001 	movt	r1, #1
   12ab4:	e3a02030 	mov	r2, #48	; 0x30
   12ab8:	eb00151f 	bl	17f3c <uspi_assertion_failed>
   12abc:	e8bd8038 	pop	{r3, r4, r5, pc}

00012ac0 <_CUSBMouseDevice>:
   12ac0:	e92d4010 	push	{r4, lr}
   12ac4:	e2504000 	subs	r4, r0, #0
   12ac8:	1a000005 	bne	12ae4 <_CUSBMouseDevice+0x24>
   12acc:	e3090ce4 	movw	r0, #40164	; 0x9ce4
   12ad0:	e3400001 	movt	r0, #1
   12ad4:	e30b11ec 	movw	r1, #45548	; 0xb1ec
   12ad8:	e3401001 	movt	r1, #1
   12adc:	e3a02035 	mov	r2, #53	; 0x35
   12ae0:	eb001515 	bl	17f3c <uspi_assertion_failed>
   12ae4:	e594004c 	ldr	r0, [r4, #76]	; 0x4c
   12ae8:	e3500000 	cmp	r0, #0
   12aec:	0a000002 	beq	12afc <_CUSBMouseDevice+0x3c>
   12af0:	eb000cb7 	bl	15dd4 <free>
   12af4:	e3a03000 	mov	r3, #0
   12af8:	e584304c 	str	r3, [r4, #76]	; 0x4c
   12afc:	e5940040 	ldr	r0, [r4, #64]	; 0x40
   12b00:	e3500000 	cmp	r0, #0
   12b04:	0a000004 	beq	12b1c <_CUSBMouseDevice+0x5c>
   12b08:	ebffecca 	bl	de38 <_USBEndpoint>
   12b0c:	e5940040 	ldr	r0, [r4, #64]	; 0x40
   12b10:	eb000caf 	bl	15dd4 <free>
   12b14:	e3a03000 	mov	r3, #0
   12b18:	e5843040 	str	r3, [r4, #64]	; 0x40
   12b1c:	e1a00004 	mov	r0, r4
   12b20:	ebffe984 	bl	d138 <_USBDevice>
   12b24:	e8bd8010 	pop	{r4, pc}

00012b28 <USBMouseDeviceRegisterStatusHandler>:
   12b28:	e92d4038 	push	{r3, r4, r5, lr}
   12b2c:	e1a04001 	mov	r4, r1
   12b30:	e2505000 	subs	r5, r0, #0
   12b34:	1a000005 	bne	12b50 <USBMouseDeviceRegisterStatusHandler+0x28>
   12b38:	e3090ce4 	movw	r0, #40164	; 0x9ce4
   12b3c:	e3400001 	movt	r0, #1
   12b40:	e30b11ec 	movw	r1, #45548	; 0xb1ec
   12b44:	e3401001 	movt	r1, #1
   12b48:	e3a020a8 	mov	r2, #168	; 0xa8
   12b4c:	eb0014fa 	bl	17f3c <uspi_assertion_failed>
   12b50:	e3540000 	cmp	r4, #0
   12b54:	1a000005 	bne	12b70 <USBMouseDeviceRegisterStatusHandler+0x48>
   12b58:	e30b0204 	movw	r0, #45572	; 0xb204
   12b5c:	e3400001 	movt	r0, #1
   12b60:	e30b11ec 	movw	r1, #45548	; 0xb1ec
   12b64:	e3401001 	movt	r1, #1
   12b68:	e3a020a9 	mov	r2, #169	; 0xa9
   12b6c:	eb0014f2 	bl	17f3c <uspi_assertion_failed>
   12b70:	e5854044 	str	r4, [r5, #68]	; 0x44
   12b74:	e8bd8038 	pop	{r3, r4, r5, pc}

00012b78 <_DWHCIFrameSchedulerNoSplit>:
   12b78:	e12fff1e 	bx	lr

00012b7c <DWHCIFrameSchedulerNoSplitStartSplit>:
   12b7c:	e92d4008 	push	{r3, lr}
   12b80:	e30b0e18 	movw	r0, #48664	; 0xbe18
   12b84:	e3400001 	movt	r0, #1
   12b88:	e30b1218 	movw	r1, #45592	; 0xb218
   12b8c:	e3401001 	movt	r1, #1
   12b90:	e3a02032 	mov	r2, #50	; 0x32
   12b94:	eb0014e8 	bl	17f3c <uspi_assertion_failed>
   12b98:	e8bd8008 	pop	{r3, pc}

00012b9c <DWHCIFrameSchedulerNoSplitCompleteSplit>:
   12b9c:	e92d4008 	push	{r3, lr}
   12ba0:	e30b0e18 	movw	r0, #48664	; 0xbe18
   12ba4:	e3400001 	movt	r0, #1
   12ba8:	e30b1218 	movw	r1, #45592	; 0xb218
   12bac:	e3401001 	movt	r1, #1
   12bb0:	e3a02037 	mov	r2, #55	; 0x37
   12bb4:	eb0014e0 	bl	17f3c <uspi_assertion_failed>
   12bb8:	e3a00000 	mov	r0, #0
   12bbc:	e8bd8008 	pop	{r3, pc}

00012bc0 <DWHCIFrameSchedulerNoSplitTransactionComplete>:
   12bc0:	e92d4008 	push	{r3, lr}
   12bc4:	e30b0e18 	movw	r0, #48664	; 0xbe18
   12bc8:	e3400001 	movt	r0, #1
   12bcc:	e30b1218 	movw	r1, #45592	; 0xb218
   12bd0:	e3401001 	movt	r1, #1
   12bd4:	e3a0203d 	mov	r2, #61	; 0x3d
   12bd8:	eb0014d7 	bl	17f3c <uspi_assertion_failed>
   12bdc:	e8bd8008 	pop	{r3, pc}

00012be0 <DWHCIFrameSchedulerNoSplitIsOddFrame>:
   12be0:	e92d4010 	push	{r4, lr}
   12be4:	e2504000 	subs	r4, r0, #0
   12be8:	1a000005 	bne	12c04 <DWHCIFrameSchedulerNoSplitIsOddFrame+0x24>
   12bec:	e3090ce4 	movw	r0, #40164	; 0x9ce4
   12bf0:	e3400001 	movt	r0, #1
   12bf4:	e30b1218 	movw	r1, #45592	; 0xb218
   12bf8:	e3401001 	movt	r1, #1
   12bfc:	e3a02058 	mov	r2, #88	; 0x58
   12c00:	eb0014cd 	bl	17f3c <uspi_assertion_failed>
   12c04:	e594001c 	ldr	r0, [r4, #28]
   12c08:	e2000001 	and	r0, r0, #1
   12c0c:	e8bd8010 	pop	{r4, pc}

00012c10 <DWHCIFrameSchedulerNoSplitWaitForFrame>:
   12c10:	e92d4010 	push	{r4, lr}
   12c14:	e24dd010 	sub	sp, sp, #16
   12c18:	e2504000 	subs	r4, r0, #0
   12c1c:	1a000005 	bne	12c38 <DWHCIFrameSchedulerNoSplitWaitForFrame+0x28>
   12c20:	e3090ce4 	movw	r0, #40164	; 0x9ce4
   12c24:	e3400001 	movt	r0, #1
   12c28:	e30b1218 	movw	r1, #45592	; 0xb218
   12c2c:	e3401001 	movt	r1, #1
   12c30:	e3a02043 	mov	r2, #67	; 0x43
   12c34:	eb0014c0 	bl	17f3c <uspi_assertion_failed>
   12c38:	e28d0004 	add	r0, sp, #4
   12c3c:	e3001408 	movw	r1, #1032	; 0x408
   12c40:	e3431f98 	movt	r1, #16280	; 0x3f98
   12c44:	ebffe3c5 	bl	bb60 <DWHCIRegister>
   12c48:	e28d0004 	add	r0, sp, #4
   12c4c:	ebffe3ed 	bl	bc08 <DWHCIRegisterRead>
   12c50:	e2800001 	add	r0, r0, #1
   12c54:	e7ed0050 	ubfx	r0, r0, #0, #14
   12c58:	e584001c 	str	r0, [r4, #28]
   12c5c:	e5943018 	ldr	r3, [r4, #24]
   12c60:	e3530000 	cmp	r3, #0
   12c64:	1a000005 	bne	12c80 <DWHCIFrameSchedulerNoSplitWaitForFrame+0x70>
   12c68:	e28d0004 	add	r0, sp, #4
   12c6c:	ebffe3e5 	bl	bc08 <DWHCIRegisterRead>
   12c70:	e7ed0050 	ubfx	r0, r0, #0, #14
   12c74:	e594301c 	ldr	r3, [r4, #28]
   12c78:	e1500003 	cmp	r0, r3
   12c7c:	1afffff9 	bne	12c68 <DWHCIFrameSchedulerNoSplitWaitForFrame+0x58>
   12c80:	e28d0004 	add	r0, sp, #4
   12c84:	ebffe3d3 	bl	bbd8 <_DWHCIRegister>
   12c88:	e28dd010 	add	sp, sp, #16
   12c8c:	e8bd8010 	pop	{r4, pc}

00012c90 <DWHCIFrameSchedulerNoSplit>:
   12c90:	e92d4038 	push	{r3, r4, r5, lr}
   12c94:	e1a05001 	mov	r5, r1
   12c98:	e2504000 	subs	r4, r0, #0
   12c9c:	1a000005 	bne	12cb8 <DWHCIFrameSchedulerNoSplit+0x28>
   12ca0:	e3090ce4 	movw	r0, #40164	; 0x9ce4
   12ca4:	e3400001 	movt	r0, #1
   12ca8:	e30b1218 	movw	r1, #45592	; 0xb218
   12cac:	e3401001 	movt	r1, #1
   12cb0:	e3a0201c 	mov	r2, #28
   12cb4:	eb0014a0 	bl	17f3c <uspi_assertion_failed>
   12cb8:	e3023b78 	movw	r3, #11128	; 0x2b78
   12cbc:	e3403001 	movt	r3, #1
   12cc0:	e5843000 	str	r3, [r4]
   12cc4:	e3023b7c 	movw	r3, #11132	; 0x2b7c
   12cc8:	e3403001 	movt	r3, #1
   12ccc:	e5843004 	str	r3, [r4, #4]
   12cd0:	e3023b9c 	movw	r3, #11164	; 0x2b9c
   12cd4:	e3403001 	movt	r3, #1
   12cd8:	e5843008 	str	r3, [r4, #8]
   12cdc:	e3023bc0 	movw	r3, #11200	; 0x2bc0
   12ce0:	e3403001 	movt	r3, #1
   12ce4:	e584300c 	str	r3, [r4, #12]
   12ce8:	e3023c10 	movw	r3, #11280	; 0x2c10
   12cec:	e3403001 	movt	r3, #1
   12cf0:	e5843010 	str	r3, [r4, #16]
   12cf4:	e3023be0 	movw	r3, #11232	; 0x2be0
   12cf8:	e3403001 	movt	r3, #1
   12cfc:	e5843014 	str	r3, [r4, #20]
   12d00:	e5845018 	str	r5, [r4, #24]
   12d04:	e3a03901 	mov	r3, #16384	; 0x4000
   12d08:	e584301c 	str	r3, [r4, #28]
   12d0c:	e8bd8038 	pop	{r3, r4, r5, pc}

00012d10 <BitGetUnsigned>:
   12d10:	e92d4ff0 	push	{r4, r5, r6, r7, r8, r9, sl, fp, lr}
   12d14:	e24dd00c 	sub	sp, sp, #12
   12d18:	e1a0e1a1 	lsr	lr, r1, #3
   12d1c:	e0814002 	add	r4, r1, r2
   12d20:	e2846007 	add	r6, r4, #7
   12d24:	e1a061a6 	lsr	r6, r6, #3
   12d28:	e15e0006 	cmp	lr, r6
   12d2c:	2a000034 	bcs	12e04 <BitGetUnsigned+0xf4>
   12d30:	e2444001 	sub	r4, r4, #1
   12d34:	e1a041a4 	lsr	r4, r4, #3
   12d38:	e2011007 	and	r1, r1, #7
   12d3c:	e0813002 	add	r3, r1, r2
   12d40:	e3a07001 	mov	r7, #1
   12d44:	e1a03317 	lsl	r3, r7, r3
   12d48:	e6ef3073 	uxtb	r3, r3
   12d4c:	e1a09001 	mov	r9, r1
   12d50:	e1a07117 	lsl	r7, r7, r1
   12d54:	e6ef7077 	uxtb	r7, r7
   12d58:	e067b003 	rsb	fp, r7, r3
   12d5c:	e6efb07b 	uxtb	fp, fp
   12d60:	e2677000 	rsb	r7, r7, #0
   12d64:	e6ef7077 	uxtb	r7, r7
   12d68:	e2433001 	sub	r3, r3, #1
   12d6c:	e6ef3073 	uxtb	r3, r3
   12d70:	e58d3004 	str	r3, [sp, #4]
   12d74:	e080a00e 	add	sl, r0, lr
   12d78:	e1a0c00a 	mov	ip, sl
   12d7c:	e1a0300e 	mov	r3, lr
   12d80:	e3a05000 	mov	r5, #0
   12d84:	e1a00005 	mov	r0, r5
   12d88:	e2611008 	rsb	r1, r1, #8
   12d8c:	e58d1000 	str	r1, [sp]
   12d90:	e15e0004 	cmp	lr, r4
   12d94:	05dc0000 	ldrbeq	r0, [ip]
   12d98:	0000000b 	andeq	r0, r0, fp
   12d9c:	01a00950 	asreq	r0, r0, r9
   12da0:	0a000012 	beq	12df0 <BitGetUnsigned+0xe0>
   12da4:	e153000e 	cmp	r3, lr
   12da8:	1a000007 	bne	12dcc <BitGetUnsigned+0xbc>
   12dac:	e59d1000 	ldr	r1, [sp]
   12db0:	e0855001 	add	r5, r5, r1
   12db4:	e5da0000 	ldrb	r0, [sl]
   12db8:	e0000007 	and	r0, r0, r7
   12dbc:	e1a01950 	asr	r1, r0, r9
   12dc0:	e0650002 	rsb	r0, r5, r2
   12dc4:	e1a00011 	lsl	r0, r1, r0
   12dc8:	ea000008 	b	12df0 <BitGetUnsigned+0xe0>
   12dcc:	e1530004 	cmp	r3, r4
   12dd0:	05dc1000 	ldrbeq	r1, [ip]
   12dd4:	059d8004 	ldreq	r8, [sp, #4]
   12dd8:	00011008 	andeq	r1, r1, r8
   12ddc:	01800001 	orreq	r0, r0, r1
   12de0:	12855008 	addne	r5, r5, #8
   12de4:	15dc8000 	ldrbne	r8, [ip]
   12de8:	10651002 	rsbne	r1, r5, r2
   12dec:	11800118 	orrne	r0, r0, r8, lsl r1
   12df0:	e2833001 	add	r3, r3, #1
   12df4:	e28cc001 	add	ip, ip, #1
   12df8:	e1530006 	cmp	r3, r6
   12dfc:	1affffe3 	bne	12d90 <BitGetUnsigned+0x80>
   12e00:	ea000000 	b	12e08 <BitGetUnsigned+0xf8>
   12e04:	e3a00000 	mov	r0, #0
   12e08:	e28dd00c 	add	sp, sp, #12
   12e0c:	e8bd8ff0 	pop	{r4, r5, r6, r7, r8, r9, sl, fp, pc}

00012e10 <USBGamePadDeviceDecodeReport>:
   12e10:	e92d4ff0 	push	{r4, r5, r6, r7, r8, r9, sl, fp, lr}
   12e14:	e24dd044 	sub	sp, sp, #68	; 0x44
   12e18:	e58d001c 	str	r0, [sp, #28]
   12e1c:	e59020cc 	ldr	r2, [r0, #204]	; 0xcc
   12e20:	e58d2008 	str	r2, [sp, #8]
   12e24:	e59050c4 	ldr	r5, [r0, #196]	; 0xc4
   12e28:	e1d04cb0 	ldrh	r4, [r0, #192]	; 0xc0
   12e2c:	e3540000 	cmp	r4, #0
   12e30:	0a0000fc 	beq	13228 <USBGamePadDeviceDecodeReport+0x418>
   12e34:	e3a07000 	mov	r7, #0
   12e38:	e1a0b007 	mov	fp, r7
   12e3c:	e58d7020 	str	r7, [sp, #32]
   12e40:	e58d7018 	str	r7, [sp, #24]
   12e44:	e303a2eb 	movw	sl, #13035	; 0x32eb
   12e48:	e34fa8a4 	movt	sl, #63652	; 0xf8a4
   12e4c:	e58da010 	str	sl, [sp, #16]
   12e50:	e58da014 	str	sl, [sp, #20]
   12e54:	e1a08007 	mov	r8, r7
   12e58:	e58d700c 	str	r7, [sp, #12]
   12e5c:	e58d7004 	str	r7, [sp, #4]
   12e60:	e30392eb 	movw	r9, #13035	; 0x32eb
   12e64:	e34f98a4 	movt	r9, #63652	; 0xf8a4
   12e68:	e58d9028 	str	r9, [sp, #40]	; 0x28
   12e6c:	e1a0900a 	mov	r9, sl
   12e70:	e5d52000 	ldrb	r2, [r5]
   12e74:	e6af3072 	sxtb	r3, r2
   12e78:	e2022003 	and	r2, r2, #3
   12e7c:	e3520001 	cmp	r2, #1
   12e80:	0a000008 	beq	12ea8 <USBGamePadDeviceDecodeReport+0x98>
   12e84:	e3520002 	cmp	r2, #2
   12e88:	0a00000b 	beq	12ebc <USBGamePadDeviceDecodeReport+0xac>
   12e8c:	e3520000 	cmp	r2, #0
   12e90:	1a000010 	bne	12ed8 <USBGamePadDeviceDecodeReport+0xc8>
   12e94:	e2855001 	add	r5, r5, #1
   12e98:	e2444001 	sub	r4, r4, #1
   12e9c:	e6ff4074 	uxth	r4, r4
   12ea0:	e3a06000 	mov	r6, #0
   12ea4:	ea000016 	b	12f04 <USBGamePadDeviceDecodeReport+0xf4>
   12ea8:	e1d560d1 	ldrsb	r6, [r5, #1]
   12eac:	e2444002 	sub	r4, r4, #2
   12eb0:	e6ff4074 	uxth	r4, r4
   12eb4:	e2855002 	add	r5, r5, #2
   12eb8:	ea000011 	b	12f04 <USBGamePadDeviceDecodeReport+0xf4>
   12ebc:	e1d560d2 	ldrsb	r6, [r5, #2]
   12ec0:	e5d52001 	ldrb	r2, [r5, #1]
   12ec4:	e1826406 	orr	r6, r2, r6, lsl #8
   12ec8:	e2444003 	sub	r4, r4, #3
   12ecc:	e6ff4074 	uxth	r4, r4
   12ed0:	e2855003 	add	r5, r5, #3
   12ed4:	ea00000a 	b	12f04 <USBGamePadDeviceDecodeReport+0xf4>
   12ed8:	e1d560d1 	ldrsb	r6, [r5, #1]
   12edc:	e1d520d2 	ldrsb	r2, [r5, #2]
   12ee0:	e1d510d3 	ldrsb	r1, [r5, #3]
   12ee4:	e1a01801 	lsl	r1, r1, #16
   12ee8:	e1812402 	orr	r2, r1, r2, lsl #8
   12eec:	e1822006 	orr	r2, r2, r6
   12ef0:	e1d560d4 	ldrsb	r6, [r5, #4]
   12ef4:	e1826c06 	orr	r6, r2, r6, lsl #24
   12ef8:	e2444005 	sub	r4, r4, #5
   12efc:	e6ff4074 	uxth	r4, r4
   12f00:	e2855005 	add	r5, r5, #5
   12f04:	e20330fc 	and	r3, r3, #252	; 0xfc
   12f08:	e3530084 	cmp	r3, #132	; 0x84
   12f0c:	1a00000c 	bne	12f44 <USBGamePadDeviceDecodeReport+0x134>
   12f10:	e35b0000 	cmp	fp, #0
   12f14:	1a0000c7 	bne	13238 <USBGamePadDeviceDecodeReport+0x428>
   12f18:	e59d0008 	ldr	r0, [sp, #8]
   12f1c:	e3a01000 	mov	r1, #0
   12f20:	e3a02008 	mov	r2, #8
   12f24:	ebffff79 	bl	12d10 <BitGetUnsigned>
   12f28:	e1a0b006 	mov	fp, r6
   12f2c:	e1560000 	cmp	r6, r0
   12f30:	13500000 	cmpne	r0, #0
   12f34:	1a0000c9 	bne	13260 <USBGamePadDeviceDecodeReport+0x450>
   12f38:	e3a03008 	mov	r3, #8
   12f3c:	e58d3004 	str	r3, [sp, #4]
   12f40:	ea0000b5 	b	1321c <USBGamePadDeviceDecodeReport+0x40c>
   12f44:	e3530034 	cmp	r3, #52	; 0x34
   12f48:	0a00002e 	beq	13008 <USBGamePadDeviceDecodeReport+0x1f8>
   12f4c:	ca00000b 	bgt	12f80 <USBGamePadDeviceDecodeReport+0x170>
   12f50:	e3530008 	cmp	r3, #8
   12f54:	0a00001a 	beq	12fc4 <USBGamePadDeviceDecodeReport+0x1b4>
   12f58:	ca000002 	bgt	12f68 <USBGamePadDeviceDecodeReport+0x158>
   12f5c:	e3530004 	cmp	r3, #4
   12f60:	0a000012 	beq	12fb0 <USBGamePadDeviceDecodeReport+0x1a0>
   12f64:	ea0000ac 	b	1321c <USBGamePadDeviceDecodeReport+0x40c>
   12f68:	e3530014 	cmp	r3, #20
   12f6c:	058d6014 	streq	r6, [sp, #20]
   12f70:	0a0000a9 	beq	1321c <USBGamePadDeviceDecodeReport+0x40c>
   12f74:	e3530024 	cmp	r3, #36	; 0x24
   12f78:	01a0a006 	moveq	sl, r6
   12f7c:	ea0000a6 	b	1321c <USBGamePadDeviceDecodeReport+0x40c>
   12f80:	e3530074 	cmp	r3, #116	; 0x74
   12f84:	058d600c 	streq	r6, [sp, #12]
   12f88:	0a0000a3 	beq	1321c <USBGamePadDeviceDecodeReport+0x40c>
   12f8c:	ca000002 	bgt	12f9c <USBGamePadDeviceDecodeReport+0x18c>
   12f90:	e3530044 	cmp	r3, #68	; 0x44
   12f94:	01a09006 	moveq	r9, r6
   12f98:	ea00009f 	b	1321c <USBGamePadDeviceDecodeReport+0x40c>
   12f9c:	e3530080 	cmp	r3, #128	; 0x80
   12fa0:	0a00001a 	beq	13010 <USBGamePadDeviceDecodeReport+0x200>
   12fa4:	e3530094 	cmp	r3, #148	; 0x94
   12fa8:	01a08006 	moveq	r8, r6
   12fac:	ea00009a 	b	1321c <USBGamePadDeviceDecodeReport+0x40c>
   12fb0:	e3560009 	cmp	r6, #9
   12fb4:	1a000098 	bne	1321c <USBGamePadDeviceDecodeReport+0x40c>
   12fb8:	e3570001 	cmp	r7, #1
   12fbc:	03a07002 	moveq	r7, #2
   12fc0:	ea000095 	b	1321c <USBGamePadDeviceDecodeReport+0x40c>
   12fc4:	e3560036 	cmp	r6, #54	; 0x36
   12fc8:	ca000005 	bgt	12fe4 <USBGamePadDeviceDecodeReport+0x1d4>
   12fcc:	e3560030 	cmp	r6, #48	; 0x30
   12fd0:	aa000006 	bge	12ff0 <USBGamePadDeviceDecodeReport+0x1e0>
   12fd4:	e2466004 	sub	r6, r6, #4
   12fd8:	e3560001 	cmp	r6, #1
   12fdc:	93a07001 	movls	r7, #1
   12fe0:	ea00008d 	b	1321c <USBGamePadDeviceDecodeReport+0x40c>
   12fe4:	e3560039 	cmp	r6, #57	; 0x39
   12fe8:	0a000003 	beq	12ffc <USBGamePadDeviceDecodeReport+0x1ec>
   12fec:	ea00008a 	b	1321c <USBGamePadDeviceDecodeReport+0x40c>
   12ff0:	e3570001 	cmp	r7, #1
   12ff4:	03a07003 	moveq	r7, #3
   12ff8:	ea000087 	b	1321c <USBGamePadDeviceDecodeReport+0x40c>
   12ffc:	e3570001 	cmp	r7, #1
   13000:	03a07004 	moveq	r7, #4
   13004:	ea000084 	b	1321c <USBGamePadDeviceDecodeReport+0x40c>
   13008:	e58d6010 	str	r6, [sp, #16]
   1300c:	ea000082 	b	1321c <USBGamePadDeviceDecodeReport+0x40c>
   13010:	e2066003 	and	r6, r6, #3
   13014:	e3560002 	cmp	r6, #2
   13018:	1a00007b 	bne	1320c <USBGamePadDeviceDecodeReport+0x3fc>
   1301c:	e3570003 	cmp	r7, #3
   13020:	1a000047 	bne	13144 <USBGamePadDeviceDecodeReport+0x334>
   13024:	e3580000 	cmp	r8, #0
   13028:	03a07001 	moveq	r7, #1
   1302c:	0a000076 	beq	1320c <USBGamePadDeviceDecodeReport+0x3fc>
   13030:	e59d200c 	ldr	r2, [sp, #12]
   13034:	e2423001 	sub	r3, r2, #1
   13038:	e3a01001 	mov	r1, #1
   1303c:	e1a03311 	lsl	r3, r1, r3
   13040:	e58d302c 	str	r3, [sp, #44]	; 0x2c
   13044:	e1a03211 	lsl	r3, r1, r2
   13048:	e2633000 	rsb	r3, r3, #0
   1304c:	e58d3030 	str	r3, [sp, #48]	; 0x30
   13050:	e59d3018 	ldr	r3, [sp, #24]
   13054:	e1a06203 	lsl	r6, r3, #4
   13058:	e0466103 	sub	r6, r6, r3, lsl #2
   1305c:	e59d201c 	ldr	r2, [sp, #28]
   13060:	e0826006 	add	r6, r2, r6
   13064:	e59d2004 	ldr	r2, [sp, #4]
   13068:	e3a07000 	mov	r7, #0
   1306c:	e58d5034 	str	r5, [sp, #52]	; 0x34
   13070:	e58d4038 	str	r4, [sp, #56]	; 0x38
   13074:	e58db03c 	str	fp, [sp, #60]	; 0x3c
   13078:	e1a0b003 	mov	fp, r3
   1307c:	e1a04002 	mov	r4, r2
   13080:	e58d8024 	str	r8, [sp, #36]	; 0x24
   13084:	e59d8014 	ldr	r8, [sp, #20]
   13088:	e59d5028 	ldr	r5, [sp, #40]	; 0x28
   1308c:	e59d3010 	ldr	r3, [sp, #16]
   13090:	e1580005 	cmp	r8, r5
   13094:	11a03008 	movne	r3, r8
   13098:	e58d6018 	str	r6, [sp, #24]
   1309c:	e5863054 	str	r3, [r6, #84]	; 0x54
   130a0:	e15a0005 	cmp	sl, r5
   130a4:	11a0200a 	movne	r2, sl
   130a8:	01a02009 	moveq	r2, r9
   130ac:	e5862058 	str	r2, [r6, #88]	; 0x58
   130b0:	e3530000 	cmp	r3, #0
   130b4:	aa000008 	bge	130dc <USBGamePadDeviceDecodeReport+0x2cc>
   130b8:	e59d0008 	ldr	r0, [sp, #8]
   130bc:	e1a01004 	mov	r1, r4
   130c0:	e59d200c 	ldr	r2, [sp, #12]
   130c4:	ebffff11 	bl	12d10 <BitGetUnsigned>
   130c8:	e59d302c 	ldr	r3, [sp, #44]	; 0x2c
   130cc:	e1100003 	tst	r0, r3
   130d0:	159d3030 	ldrne	r3, [sp, #48]	; 0x30
   130d4:	11800003 	orrne	r0, r0, r3
   130d8:	ea000003 	b	130ec <USBGamePadDeviceDecodeReport+0x2dc>
   130dc:	e59d0008 	ldr	r0, [sp, #8]
   130e0:	e1a01004 	mov	r1, r4
   130e4:	e59d200c 	ldr	r2, [sp, #12]
   130e8:	ebffff08 	bl	12d10 <BitGetUnsigned>
   130ec:	e28bb001 	add	fp, fp, #1
   130f0:	e59d3018 	ldr	r3, [sp, #24]
   130f4:	e5830050 	str	r0, [r3, #80]	; 0x50
   130f8:	e2877001 	add	r7, r7, #1
   130fc:	e286600c 	add	r6, r6, #12
   13100:	e59d300c 	ldr	r3, [sp, #12]
   13104:	e0844003 	add	r4, r4, r3
   13108:	e59d3024 	ldr	r3, [sp, #36]	; 0x24
   1310c:	e1570003 	cmp	r7, r3
   13110:	23a03000 	movcs	r3, #0
   13114:	33a03001 	movcc	r3, #1
   13118:	e3570005 	cmp	r7, #5
   1311c:	c3a03000 	movgt	r3, #0
   13120:	e3530000 	cmp	r3, #0
   13124:	1affffd8 	bne	1308c <USBGamePadDeviceDecodeReport+0x27c>
   13128:	e59d5034 	ldr	r5, [sp, #52]	; 0x34
   1312c:	e59d4038 	ldr	r4, [sp, #56]	; 0x38
   13130:	e58db018 	str	fp, [sp, #24]
   13134:	e59db03c 	ldr	fp, [sp, #60]	; 0x3c
   13138:	e59d8024 	ldr	r8, [sp, #36]	; 0x24
   1313c:	e3a07001 	mov	r7, #1
   13140:	ea000031 	b	1320c <USBGamePadDeviceDecodeReport+0x3fc>
   13144:	e3570004 	cmp	r7, #4
   13148:	1a000023 	bne	131dc <USBGamePadDeviceDecodeReport+0x3cc>
   1314c:	e3580000 	cmp	r8, #0
   13150:	03a07001 	moveq	r7, #1
   13154:	0a00002c 	beq	1320c <USBGamePadDeviceDecodeReport+0x3fc>
   13158:	e59d2020 	ldr	r2, [sp, #32]
   1315c:	e2823026 	add	r3, r2, #38	; 0x26
   13160:	e59d101c 	ldr	r1, [sp, #28]
   13164:	e0817103 	add	r7, r1, r3, lsl #2
   13168:	e59d3004 	ldr	r3, [sp, #4]
   1316c:	e3a06000 	mov	r6, #0
   13170:	e58d5024 	str	r5, [sp, #36]	; 0x24
   13174:	e58d4020 	str	r4, [sp, #32]
   13178:	e58db02c 	str	fp, [sp, #44]	; 0x2c
   1317c:	e1a05002 	mov	r5, r2
   13180:	e59db00c 	ldr	fp, [sp, #12]
   13184:	e1a04003 	mov	r4, r3
   13188:	e59d0008 	ldr	r0, [sp, #8]
   1318c:	e1a01004 	mov	r1, r4
   13190:	e1a0200b 	mov	r2, fp
   13194:	ebfffedd 	bl	12d10 <BitGetUnsigned>
   13198:	e2855001 	add	r5, r5, #1
   1319c:	e5a70004 	str	r0, [r7, #4]!
   131a0:	e2866001 	add	r6, r6, #1
   131a4:	e084400b 	add	r4, r4, fp
   131a8:	e1560008 	cmp	r6, r8
   131ac:	23a03000 	movcs	r3, #0
   131b0:	33a03001 	movcc	r3, #1
   131b4:	e3560005 	cmp	r6, #5
   131b8:	c3a03000 	movgt	r3, #0
   131bc:	e3530000 	cmp	r3, #0
   131c0:	1afffff0 	bne	13188 <USBGamePadDeviceDecodeReport+0x378>
   131c4:	e59d4020 	ldr	r4, [sp, #32]
   131c8:	e59db02c 	ldr	fp, [sp, #44]	; 0x2c
   131cc:	e58d5020 	str	r5, [sp, #32]
   131d0:	e59d5024 	ldr	r5, [sp, #36]	; 0x24
   131d4:	e3a07001 	mov	r7, #1
   131d8:	ea00000b 	b	1320c <USBGamePadDeviceDecodeReport+0x3fc>
   131dc:	e3570002 	cmp	r7, #2
   131e0:	1a000009 	bne	1320c <USBGamePadDeviceDecodeReport+0x3fc>
   131e4:	e59d601c 	ldr	r6, [sp, #28]
   131e8:	e58680b4 	str	r8, [r6, #180]	; 0xb4
   131ec:	e59d0008 	ldr	r0, [sp, #8]
   131f0:	e59d1004 	ldr	r1, [sp, #4]
   131f4:	e59d300c 	ldr	r3, [sp, #12]
   131f8:	e0020893 	mul	r2, r3, r8
   131fc:	ebfffec3 	bl	12d10 <BitGetUnsigned>
   13200:	e58600b8 	str	r0, [r6, #184]	; 0xb8
   13204:	e3a07001 	mov	r7, #1
   13208:	eaffffff 	b	1320c <USBGamePadDeviceDecodeReport+0x3fc>
   1320c:	e59d300c 	ldr	r3, [sp, #12]
   13210:	e59d2004 	ldr	r2, [sp, #4]
   13214:	e0232893 	mla	r3, r3, r8, r2
   13218:	e58d3004 	str	r3, [sp, #4]
   1321c:	e3540000 	cmp	r4, #0
   13220:	1affff12 	bne	12e70 <USBGamePadDeviceDecodeReport+0x60>
   13224:	ea000003 	b	13238 <USBGamePadDeviceDecodeReport+0x428>
   13228:	e3a03000 	mov	r3, #0
   1322c:	e58d3020 	str	r3, [sp, #32]
   13230:	e58d3018 	str	r3, [sp, #24]
   13234:	e58d3004 	str	r3, [sp, #4]
   13238:	e59d301c 	ldr	r3, [sp, #28]
   1323c:	e59d2018 	ldr	r2, [sp, #24]
   13240:	e583204c 	str	r2, [r3, #76]	; 0x4c
   13244:	e1a02003 	mov	r2, r3
   13248:	e59d1020 	ldr	r1, [sp, #32]
   1324c:	e5831098 	str	r1, [r3, #152]	; 0x98
   13250:	e59d3004 	ldr	r3, [sp, #4]
   13254:	e2833007 	add	r3, r3, #7
   13258:	e1a031a3 	lsr	r3, r3, #3
   1325c:	e1c23db0 	strh	r3, [r2, #208]	; 0xd0
   13260:	e28dd044 	add	sp, sp, #68	; 0x44
   13264:	e8bd8ff0 	pop	{r4, r5, r6, r7, r8, r9, sl, fp, pc}

00013268 <USBGamePadDeviceStartRequest>:
   13268:	e92d4030 	push	{r4, r5, lr}
   1326c:	e24dd00c 	sub	sp, sp, #12
   13270:	e2504000 	subs	r4, r0, #0
   13274:	1a000005 	bne	13290 <USBGamePadDeviceStartRequest+0x28>
   13278:	e3090ce4 	movw	r0, #40164	; 0x9ce4
   1327c:	e3400001 	movt	r0, #1
   13280:	e30b1240 	movw	r1, #45632	; 0xb240
   13284:	e3401001 	movt	r1, #1
   13288:	e30021e5 	movw	r2, #485	; 0x1e5
   1328c:	eb00132a 	bl	17f3c <uspi_assertion_failed>
   13290:	e5943044 	ldr	r3, [r4, #68]	; 0x44
   13294:	e3530000 	cmp	r3, #0
   13298:	1a000005 	bne	132b4 <USBGamePadDeviceStartRequest+0x4c>
   1329c:	e30a0de4 	movw	r0, #44516	; 0xade4
   132a0:	e3400001 	movt	r0, #1
   132a4:	e30b1240 	movw	r1, #45632	; 0xb240
   132a8:	e3401001 	movt	r1, #1
   132ac:	e30021e7 	movw	r2, #487	; 0x1e7
   132b0:	eb001321 	bl	17f3c <uspi_assertion_failed>
   132b4:	e59430cc 	ldr	r3, [r4, #204]	; 0xcc
   132b8:	e3530000 	cmp	r3, #0
   132bc:	1a000005 	bne	132d8 <USBGamePadDeviceStartRequest+0x70>
   132c0:	e30b0004 	movw	r0, #45060	; 0xb004
   132c4:	e3400001 	movt	r0, #1
   132c8:	e30b1240 	movw	r1, #45632	; 0xb240
   132cc:	e3401001 	movt	r1, #1
   132d0:	e3a02f7a 	mov	r2, #488	; 0x1e8
   132d4:	eb001318 	bl	17f3c <uspi_assertion_failed>
   132d8:	e59430c8 	ldr	r3, [r4, #200]	; 0xc8
   132dc:	e3530000 	cmp	r3, #0
   132e0:	0a000005 	beq	132fc <USBGamePadDeviceStartRequest+0x94>
   132e4:	e30b0020 	movw	r0, #45088	; 0xb020
   132e8:	e3400001 	movt	r0, #1
   132ec:	e30b1240 	movw	r1, #45632	; 0xb240
   132f0:	e3401001 	movt	r1, #1
   132f4:	e30021ea 	movw	r2, #490	; 0x1ea
   132f8:	eb00130f 	bl	17f3c <uspi_assertion_failed>
   132fc:	e3a00024 	mov	r0, #36	; 0x24
   13300:	eb000a57 	bl	15c64 <malloc>
   13304:	e58400c8 	str	r0, [r4, #200]	; 0xc8
   13308:	e3500000 	cmp	r0, #0
   1330c:	1a000005 	bne	13328 <USBGamePadDeviceStartRequest+0xc0>
   13310:	e30a03a4 	movw	r0, #41892	; 0xa3a4
   13314:	e3400001 	movt	r0, #1
   13318:	e30b1240 	movw	r1, #45632	; 0xb240
   1331c:	e3401001 	movt	r1, #1
   13320:	e3a02f7b 	mov	r2, #492	; 0x1ec
   13324:	eb001304 	bl	17f3c <uspi_assertion_failed>
   13328:	e59400c8 	ldr	r0, [r4, #200]	; 0xc8
   1332c:	e5941044 	ldr	r1, [r4, #68]	; 0x44
   13330:	e59420cc 	ldr	r2, [r4, #204]	; 0xcc
   13334:	e1d43db0 	ldrh	r3, [r4, #208]	; 0xd0
   13338:	e3a05000 	mov	r5, #0
   1333c:	e58d5000 	str	r5, [sp]
   13340:	ebffeb93 	bl	e194 <USBRequest>
   13344:	e59400c8 	ldr	r0, [r4, #200]	; 0xc8
   13348:	e3031878 	movw	r1, #14456	; 0x3878
   1334c:	e3401001 	movt	r1, #1
   13350:	e1a02005 	mov	r2, r5
   13354:	e1a03004 	mov	r3, r4
   13358:	ebffec53 	bl	e4ac <USBRequestSetCompletionRoutine>
   1335c:	e1a00004 	mov	r0, r4
   13360:	ebffe84c 	bl	d498 <USBDeviceGetHost>
   13364:	e59410c8 	ldr	r1, [r4, #200]	; 0xc8
   13368:	ebffdaf6 	bl	9f48 <DWHCIDeviceSubmitAsyncRequest>
   1336c:	e28dd00c 	add	sp, sp, #12
   13370:	e8bd8030 	pop	{r4, r5, pc}

00013374 <USBGamePadDeviceConfigure>:
   13374:	e92d4ff0 	push	{r4, r5, r6, r7, r8, r9, sl, fp, lr}
   13378:	e24dd024 	sub	sp, sp, #36	; 0x24
   1337c:	e2504000 	subs	r4, r0, #0
   13380:	1a000005 	bne	1339c <USBGamePadDeviceConfigure+0x28>
   13384:	e3090ce4 	movw	r0, #40164	; 0x9ce4
   13388:	e3400001 	movt	r0, #1
   1338c:	e30b1240 	movw	r1, #45632	; 0xb240
   13390:	e3401001 	movt	r1, #1
   13394:	e3a02f55 	mov	r2, #340	; 0x154
   13398:	eb0012e7 	bl	17f3c <uspi_assertion_failed>
   1339c:	e1a05004 	mov	r5, r4
   133a0:	e1a00004 	mov	r0, r4
   133a4:	e3a01002 	mov	r1, #2
   133a8:	ebffe876 	bl	d588 <USBDeviceGetDescriptor>
   133ac:	e3500000 	cmp	r0, #0
   133b0:	0a000002 	beq	133c0 <USBGamePadDeviceConfigure+0x4c>
   133b4:	e5d03004 	ldrb	r3, [r0, #4]
   133b8:	e3530000 	cmp	r3, #0
   133bc:	1a000005 	bne	133d8 <USBGamePadDeviceConfigure+0x64>
   133c0:	e1a00004 	mov	r0, r4
   133c4:	e30b1230 	movw	r1, #45616	; 0xb230
   133c8:	e3401001 	movt	r1, #1
   133cc:	ebffe884 	bl	d5e4 <USBDeviceConfigurationError>
   133d0:	e3a05000 	mov	r5, #0
   133d4:	ea000124 	b	1386c <USBGamePadDeviceConfigure+0x4f8>
   133d8:	e1a00004 	mov	r0, r4
   133dc:	e3a01004 	mov	r1, #4
   133e0:	ebffe868 	bl	d588 <USBDeviceGetDescriptor>
   133e4:	e3500000 	cmp	r0, #0
   133e8:	0a00000b 	beq	1341c <USBGamePadDeviceConfigure+0xa8>
   133ec:	e5d03004 	ldrb	r3, [r0, #4]
   133f0:	e3530000 	cmp	r3, #0
   133f4:	0a000008 	beq	1341c <USBGamePadDeviceConfigure+0xa8>
   133f8:	e5d03005 	ldrb	r3, [r0, #5]
   133fc:	e3530003 	cmp	r3, #3
   13400:	1a000005 	bne	1341c <USBGamePadDeviceConfigure+0xa8>
   13404:	e5d03006 	ldrb	r3, [r0, #6]
   13408:	e3530000 	cmp	r3, #0
   1340c:	1a000002 	bne	1341c <USBGamePadDeviceConfigure+0xa8>
   13410:	e5d03007 	ldrb	r3, [r0, #7]
   13414:	e3530000 	cmp	r3, #0
   13418:	0a000005 	beq	13434 <USBGamePadDeviceConfigure+0xc0>
   1341c:	e1a00004 	mov	r0, r4
   13420:	e30b1230 	movw	r1, #45616	; 0xb230
   13424:	e3401001 	movt	r1, #1
   13428:	ebffe86d 	bl	d5e4 <USBDeviceConfigurationError>
   1342c:	e3a05000 	mov	r5, #0
   13430:	ea00010d 	b	1386c <USBGamePadDeviceConfigure+0x4f8>
   13434:	e5d03002 	ldrb	r3, [r0, #2]
   13438:	e5c43040 	strb	r3, [r4, #64]	; 0x40
   1343c:	e5d03003 	ldrb	r3, [r0, #3]
   13440:	e5c43041 	strb	r3, [r4, #65]	; 0x41
   13444:	e1a00004 	mov	r0, r4
   13448:	e3a01021 	mov	r1, #33	; 0x21
   1344c:	ebffe84d 	bl	d588 <USBDeviceGetDescriptor>
   13450:	e2508000 	subs	r8, r0, #0
   13454:	0a000002 	beq	13464 <USBGamePadDeviceConfigure+0xf0>
   13458:	e1d830b7 	ldrh	r3, [r8, #7]
   1345c:	e3530000 	cmp	r3, #0
   13460:	1a00003a 	bne	13550 <USBGamePadDeviceConfigure+0x1dc>
   13464:	e1a00004 	mov	r0, r4
   13468:	e30b1230 	movw	r1, #45616	; 0xb230
   1346c:	e3401001 	movt	r1, #1
   13470:	ebffe85b 	bl	d5e4 <USBDeviceConfigurationError>
   13474:	e3a05000 	mov	r5, #0
   13478:	ea0000fb 	b	1386c <USBGamePadDeviceConfigure+0x4f8>
   1347c:	e5d63003 	ldrb	r3, [r6, #3]
   13480:	e203303f 	and	r3, r3, #63	; 0x3f
   13484:	e3530003 	cmp	r3, #3
   13488:	1a000037 	bne	1356c <USBGamePadDeviceConfigure+0x1f8>
   1348c:	e1d630d2 	ldrsb	r3, [r6, #2]
   13490:	e3530000 	cmp	r3, #0
   13494:	aa000016 	bge	134f4 <USBGamePadDeviceConfigure+0x180>
   13498:	e5943044 	ldr	r3, [r4, #68]	; 0x44
   1349c:	e3530000 	cmp	r3, #0
   134a0:	0a000005 	beq	134bc <USBGamePadDeviceConfigure+0x148>
   134a4:	e1a00004 	mov	r0, r4
   134a8:	e30b1230 	movw	r1, #45616	; 0xb230
   134ac:	e3401001 	movt	r1, #1
   134b0:	ebffe84b 	bl	d5e4 <USBDeviceConfigurationError>
   134b4:	e3a05000 	mov	r5, #0
   134b8:	ea0000eb 	b	1386c <USBGamePadDeviceConfigure+0x4f8>
   134bc:	e3a0001c 	mov	r0, #28
   134c0:	eb0009e7 	bl	15c64 <malloc>
   134c4:	e5840044 	str	r0, [r4, #68]	; 0x44
   134c8:	e3500000 	cmp	r0, #0
   134cc:	1a000003 	bne	134e0 <USBGamePadDeviceConfigure+0x16c>
   134d0:	e1a0000a 	mov	r0, sl
   134d4:	e1a01009 	mov	r1, r9
   134d8:	e3a02f62 	mov	r2, #392	; 0x188
   134dc:	eb001296 	bl	17f3c <uspi_assertion_failed>
   134e0:	e5940044 	ldr	r0, [r4, #68]	; 0x44
   134e4:	e1a01005 	mov	r1, r5
   134e8:	e1a02006 	mov	r2, r6
   134ec:	ebffe9bb 	bl	dbe0 <USBEndpoint2>
   134f0:	ea00001c 	b	13568 <USBGamePadDeviceConfigure+0x1f4>
   134f4:	e5943048 	ldr	r3, [r4, #72]	; 0x48
   134f8:	e3530000 	cmp	r3, #0
   134fc:	0a000005 	beq	13518 <USBGamePadDeviceConfigure+0x1a4>
   13500:	e1a00004 	mov	r0, r4
   13504:	e30b1230 	movw	r1, #45616	; 0xb230
   13508:	e3401001 	movt	r1, #1
   1350c:	ebffe834 	bl	d5e4 <USBDeviceConfigurationError>
   13510:	e3a05000 	mov	r5, #0
   13514:	ea0000d4 	b	1386c <USBGamePadDeviceConfigure+0x4f8>
   13518:	e3a0001c 	mov	r0, #28
   1351c:	eb0009d0 	bl	15c64 <malloc>
   13520:	e5840048 	str	r0, [r4, #72]	; 0x48
   13524:	e3500000 	cmp	r0, #0
   13528:	1a000003 	bne	1353c <USBGamePadDeviceConfigure+0x1c8>
   1352c:	e1a0000b 	mov	r0, fp
   13530:	e1a01009 	mov	r1, r9
   13534:	e3002195 	movw	r2, #405	; 0x195
   13538:	eb00127f 	bl	17f3c <uspi_assertion_failed>
   1353c:	e5940048 	ldr	r0, [r4, #72]	; 0x48
   13540:	e1a01005 	mov	r1, r5
   13544:	e1a02006 	mov	r2, r6
   13548:	ebffe9a4 	bl	dbe0 <USBEndpoint2>
   1354c:	ea000005 	b	13568 <USBGamePadDeviceConfigure+0x1f4>
   13550:	e30abe00 	movw	fp, #44544	; 0xae00
   13554:	e340b001 	movt	fp, #1
   13558:	e30b9240 	movw	r9, #45632	; 0xb240
   1355c:	e3409001 	movt	r9, #1
   13560:	e30aade4 	movw	sl, #44516	; 0xade4
   13564:	e340a001 	movt	sl, #1
   13568:	e3a07005 	mov	r7, #5
   1356c:	e1a00005 	mov	r0, r5
   13570:	e1a01007 	mov	r1, r7
   13574:	ebffe803 	bl	d588 <USBDeviceGetDescriptor>
   13578:	e2506000 	subs	r6, r0, #0
   1357c:	1affffbe 	bne	1347c <USBGamePadDeviceConfigure+0x108>
   13580:	e5943044 	ldr	r3, [r4, #68]	; 0x44
   13584:	e3530000 	cmp	r3, #0
   13588:	1a000005 	bne	135a4 <USBGamePadDeviceConfigure+0x230>
   1358c:	e1a00004 	mov	r0, r4
   13590:	e30b1230 	movw	r1, #45616	; 0xb230
   13594:	e3401001 	movt	r1, #1
   13598:	ebffe811 	bl	d5e4 <USBDeviceConfigurationError>
   1359c:	e3a05000 	mov	r5, #0
   135a0:	ea0000b1 	b	1386c <USBGamePadDeviceConfigure+0x4f8>
   135a4:	e1d830b7 	ldrh	r3, [r8, #7]
   135a8:	e1c43cb0 	strh	r3, [r4, #192]	; 0xc0
   135ac:	e1d800b7 	ldrh	r0, [r8, #7]
   135b0:	eb0009ab 	bl	15c64 <malloc>
   135b4:	e58400c4 	str	r0, [r4, #196]	; 0xc4
   135b8:	e3500000 	cmp	r0, #0
   135bc:	1a000005 	bne	135d8 <USBGamePadDeviceConfigure+0x264>
   135c0:	e30b0250 	movw	r0, #45648	; 0xb250
   135c4:	e3400001 	movt	r0, #1
   135c8:	e30b1240 	movw	r1, #45632	; 0xb240
   135cc:	e3401001 	movt	r1, #1
   135d0:	e3a02f69 	mov	r2, #420	; 0x1a4
   135d4:	eb001258 	bl	17f3c <uspi_assertion_failed>
   135d8:	e1a00004 	mov	r0, r4
   135dc:	ebffe7ad 	bl	d498 <USBDeviceGetHost>
   135e0:	e1a05000 	mov	r5, r0
   135e4:	e1a00004 	mov	r0, r4
   135e8:	ebffe796 	bl	d448 <USBDeviceGetEndpoint0>
   135ec:	e1a01000 	mov	r1, r0
   135f0:	e5d82006 	ldrb	r2, [r8, #6]
   135f4:	e59430c4 	ldr	r3, [r4, #196]	; 0xc4
   135f8:	e58d3000 	str	r3, [sp]
   135fc:	e1d830b7 	ldrh	r3, [r8, #7]
   13600:	e58d3004 	str	r3, [sp, #4]
   13604:	e3a03080 	mov	r3, #128	; 0x80
   13608:	e58d3008 	str	r3, [sp, #8]
   1360c:	e1a00005 	mov	r0, r5
   13610:	e3a03000 	mov	r3, #0
   13614:	ebffdb88 	bl	a43c <DWHCIDeviceGetDescriptor>
   13618:	e1d830b7 	ldrh	r3, [r8, #7]
   1361c:	e1500003 	cmp	r0, r3
   13620:	0a000007 	beq	13644 <USBGamePadDeviceConfigure+0x2d0>
   13624:	e30b0230 	movw	r0, #45616	; 0xb230
   13628:	e3400001 	movt	r0, #1
   1362c:	e3a01001 	mov	r1, #1
   13630:	e30b2274 	movw	r2, #45684	; 0xb274
   13634:	e3402001 	movt	r2, #1
   13638:	eb00122d 	bl	17ef4 <LogWrite>
   1363c:	e3a05000 	mov	r5, #0
   13640:	ea000089 	b	1386c <USBGamePadDeviceConfigure+0x4f8>
   13644:	e59430cc 	ldr	r3, [r4, #204]	; 0xcc
   13648:	e3a02000 	mov	r2, #0
   1364c:	e5c32000 	strb	r2, [r3]
   13650:	e1a00004 	mov	r0, r4
   13654:	ebfffded 	bl	12e10 <USBGamePadDeviceDecodeReport>
   13658:	e1a00004 	mov	r0, r4
   1365c:	ebffe5c4 	bl	cd74 <USBDeviceConfigure>
   13660:	e2505000 	subs	r5, r0, #0
   13664:	1a000006 	bne	13684 <USBGamePadDeviceConfigure+0x310>
   13668:	e30b0230 	movw	r0, #45616	; 0xb230
   1366c:	e3400001 	movt	r0, #1
   13670:	e3a01001 	mov	r1, #1
   13674:	e30a2bb8 	movw	r2, #43960	; 0xabb8
   13678:	e3402001 	movt	r2, #1
   1367c:	eb00121c 	bl	17ef4 <LogWrite>
   13680:	ea000079 	b	1386c <USBGamePadDeviceConfigure+0x4f8>
   13684:	e5d43041 	ldrb	r3, [r4, #65]	; 0x41
   13688:	e3530000 	cmp	r3, #0
   1368c:	0a00001a 	beq	136fc <USBGamePadDeviceConfigure+0x388>
   13690:	e1a00004 	mov	r0, r4
   13694:	ebffe77f 	bl	d498 <USBDeviceGetHost>
   13698:	e1a05000 	mov	r5, r0
   1369c:	e1a00004 	mov	r0, r4
   136a0:	ebffe768 	bl	d448 <USBDeviceGetEndpoint0>
   136a4:	e1a01000 	mov	r1, r0
   136a8:	e5d43041 	ldrb	r3, [r4, #65]	; 0x41
   136ac:	e58d3000 	str	r3, [sp]
   136b0:	e5d43040 	ldrb	r3, [r4, #64]	; 0x40
   136b4:	e58d3004 	str	r3, [sp, #4]
   136b8:	e3a03000 	mov	r3, #0
   136bc:	e58d3008 	str	r3, [sp, #8]
   136c0:	e58d300c 	str	r3, [sp, #12]
   136c4:	e1a00005 	mov	r0, r5
   136c8:	e3a02001 	mov	r2, #1
   136cc:	e3a0300b 	mov	r3, #11
   136d0:	ebffdb23 	bl	a364 <DWHCIDeviceControlMessage>
   136d4:	e3500000 	cmp	r0, #0
   136d8:	aa000007 	bge	136fc <USBGamePadDeviceConfigure+0x388>
   136dc:	e30b0230 	movw	r0, #45616	; 0xb230
   136e0:	e3400001 	movt	r0, #1
   136e4:	e3a01001 	mov	r1, #1
   136e8:	e30b2054 	movw	r2, #45140	; 0xb054
   136ec:	e3402001 	movt	r2, #1
   136f0:	eb0011ff 	bl	17ef4 <LogWrite>
   136f4:	e3a05000 	mov	r5, #0
   136f8:	ea00005b 	b	1386c <USBGamePadDeviceConfigure+0x4f8>
   136fc:	e30c35c8 	movw	r3, #50632	; 0xc5c8
   13700:	e3403001 	movt	r3, #1
   13704:	e5932000 	ldr	r2, [r3]
   13708:	e2821001 	add	r1, r2, #1
   1370c:	e5831000 	str	r1, [r3]
   13710:	e584203c 	str	r2, [r4, #60]	; 0x3c
   13714:	e5943018 	ldr	r3, [r4, #24]
   13718:	e1d310b8 	ldrh	r1, [r3, #8]
   1371c:	e300254c 	movw	r2, #1356	; 0x54c
   13720:	e1510002 	cmp	r1, r2
   13724:	1a00003b 	bne	13818 <USBGamePadDeviceConfigure+0x4a4>
   13728:	e1d330ba 	ldrh	r3, [r3, #10]
   1372c:	e3530f9a 	cmp	r3, #616	; 0x268
   13730:	1a000038 	bne	13818 <USBGamePadDeviceConfigure+0x4a4>
   13734:	e59430cc 	ldr	r3, [r4, #204]	; 0xcc
   13738:	e3a02042 	mov	r2, #66	; 0x42
   1373c:	e5c32000 	strb	r2, [r3]
   13740:	e59430cc 	ldr	r3, [r4, #204]	; 0xcc
   13744:	e3a0200c 	mov	r2, #12
   13748:	e5c32001 	strb	r2, [r3, #1]
   1374c:	e59420cc 	ldr	r2, [r4, #204]	; 0xcc
   13750:	e3a03000 	mov	r3, #0
   13754:	e5c23002 	strb	r3, [r2, #2]
   13758:	e59420cc 	ldr	r2, [r4, #204]	; 0xcc
   1375c:	e5c23003 	strb	r3, [r2, #3]
   13760:	e1a00004 	mov	r0, r4
   13764:	ebffe74b 	bl	d498 <USBDeviceGetHost>
   13768:	e1a05000 	mov	r5, r0
   1376c:	e1a00004 	mov	r0, r4
   13770:	ebffe734 	bl	d448 <USBDeviceGetEndpoint0>
   13774:	e1a01000 	mov	r1, r0
   13778:	e3a03ffd 	mov	r3, #1012	; 0x3f4
   1377c:	e58d3000 	str	r3, [sp]
   13780:	e5d43040 	ldrb	r3, [r4, #64]	; 0x40
   13784:	e58d3004 	str	r3, [sp, #4]
   13788:	e59430cc 	ldr	r3, [r4, #204]	; 0xcc
   1378c:	e58d3008 	str	r3, [sp, #8]
   13790:	e3a03004 	mov	r3, #4
   13794:	e58d300c 	str	r3, [sp, #12]
   13798:	e1a00005 	mov	r0, r5
   1379c:	e3a02021 	mov	r2, #33	; 0x21
   137a0:	e3a03009 	mov	r3, #9
   137a4:	ebffdaee 	bl	a364 <DWHCIDeviceControlMessage>
   137a8:	e30c55c8 	movw	r5, #50632	; 0xc5c8
   137ac:	e3405001 	movt	r5, #1
   137b0:	e30b3230 	movw	r3, #45616	; 0xb230
   137b4:	e3403001 	movt	r3, #1
   137b8:	e594203c 	ldr	r2, [r4, #60]	; 0x3c
   137bc:	e0833002 	add	r3, r3, r2
   137c0:	e5d32008 	ldrb	r2, [r3, #8]
   137c4:	e5d5300d 	ldrb	r3, [r5, #13]
   137c8:	e1833082 	orr	r3, r3, r2, lsl #1
   137cc:	e5c5300d 	strb	r3, [r5, #13]
   137d0:	e1a00004 	mov	r0, r4
   137d4:	ebffe72f 	bl	d498 <USBDeviceGetHost>
   137d8:	e1a06000 	mov	r6, r0
   137dc:	e1a00004 	mov	r0, r4
   137e0:	ebffe718 	bl	d448 <USBDeviceGetEndpoint0>
   137e4:	e1a01000 	mov	r1, r0
   137e8:	e3003201 	movw	r3, #513	; 0x201
   137ec:	e58d3000 	str	r3, [sp]
   137f0:	e5d43040 	ldrb	r3, [r4, #64]	; 0x40
   137f4:	e58d3004 	str	r3, [sp, #4]
   137f8:	e2855004 	add	r5, r5, #4
   137fc:	e58d5008 	str	r5, [sp, #8]
   13800:	e3a03030 	mov	r3, #48	; 0x30
   13804:	e58d300c 	str	r3, [sp, #12]
   13808:	e1a00006 	mov	r0, r6
   1380c:	e3a02021 	mov	r2, #33	; 0x21
   13810:	e3a03009 	mov	r3, #9
   13814:	ebffdad2 	bl	a364 <DWHCIDeviceControlMessage>
   13818:	e28d0014 	add	r0, sp, #20
   1381c:	ebffefe3 	bl	f7b0 <String>
   13820:	e28d0014 	add	r0, sp, #20
   13824:	e3091c48 	movw	r1, #40008	; 0x9c48
   13828:	e3401001 	movt	r1, #1
   1382c:	e594203c 	ldr	r2, [r4, #60]	; 0x3c
   13830:	ebfff26e 	bl	101f0 <StringFormat>
   13834:	ebffec0a 	bl	e864 <DeviceNameServiceGet>
   13838:	e1a05000 	mov	r5, r0
   1383c:	e28d0014 	add	r0, sp, #20
   13840:	ebfff00a 	bl	f870 <StringGet>
   13844:	e1a01000 	mov	r1, r0
   13848:	e1a00005 	mov	r0, r5
   1384c:	e1a02004 	mov	r2, r4
   13850:	e3a03000 	mov	r3, #0
   13854:	ebffeb8a 	bl	e684 <DeviceNameServiceAddDevice>
   13858:	e28d0014 	add	r0, sp, #20
   1385c:	ebffeff3 	bl	f830 <_String>
   13860:	e1a00004 	mov	r0, r4
   13864:	ebfffe7f 	bl	13268 <USBGamePadDeviceStartRequest>
   13868:	e1a05000 	mov	r5, r0
   1386c:	e1a00005 	mov	r0, r5
   13870:	e28dd024 	add	sp, sp, #36	; 0x24
   13874:	e8bd8ff0 	pop	{r4, r5, r6, r7, r8, r9, sl, fp, pc}

00013878 <USBGamePadDeviceCompletionRoutine>:
   13878:	e92d4038 	push	{r3, r4, r5, lr}
   1387c:	e1a05000 	mov	r5, r0
   13880:	e2524000 	subs	r4, r2, #0
   13884:	1a000005 	bne	138a0 <USBGamePadDeviceCompletionRoutine+0x28>
   13888:	e3090ce4 	movw	r0, #40164	; 0x9ce4
   1388c:	e3400001 	movt	r0, #1
   13890:	e30b1240 	movw	r1, #45632	; 0xb240
   13894:	e3401001 	movt	r1, #1
   13898:	e30021f6 	movw	r2, #502	; 0x1f6
   1389c:	eb0011a6 	bl	17f3c <uspi_assertion_failed>
   138a0:	e3550000 	cmp	r5, #0
   138a4:	1a000005 	bne	138c0 <USBGamePadDeviceCompletionRoutine+0x48>
   138a8:	e3090dbc 	movw	r0, #40380	; 0x9dbc
   138ac:	e3400001 	movt	r0, #1
   138b0:	e30b1240 	movw	r1, #45632	; 0xb240
   138b4:	e3401001 	movt	r1, #1
   138b8:	e3a02f7e 	mov	r2, #504	; 0x1f8
   138bc:	eb00119e 	bl	17f3c <uspi_assertion_failed>
   138c0:	e59430c8 	ldr	r3, [r4, #200]	; 0xc8
   138c4:	e1530005 	cmp	r3, r5
   138c8:	0a000005 	beq	138e4 <USBGamePadDeviceCompletionRoutine+0x6c>
   138cc:	e30b0090 	movw	r0, #45200	; 0xb090
   138d0:	e3400001 	movt	r0, #1
   138d4:	e30b1240 	movw	r1, #45632	; 0xb240
   138d8:	e3401001 	movt	r1, #1
   138dc:	e30021f9 	movw	r2, #505	; 0x1f9
   138e0:	eb001195 	bl	17f3c <uspi_assertion_failed>
   138e4:	e1a00005 	mov	r0, r5
   138e8:	ebffea90 	bl	e330 <USBRequestGetStatus>
   138ec:	e3500000 	cmp	r0, #0
   138f0:	0a000010 	beq	13938 <USBGamePadDeviceCompletionRoutine+0xc0>
   138f4:	e1a00005 	mov	r0, r5
   138f8:	ebffea97 	bl	e35c <USBRequestGetResultLength>
   138fc:	e3500000 	cmp	r0, #0
   13900:	0a00000c 	beq	13938 <USBGamePadDeviceCompletionRoutine+0xc0>
   13904:	e59430c4 	ldr	r3, [r4, #196]	; 0xc4
   13908:	e3530000 	cmp	r3, #0
   1390c:	0a000009 	beq	13938 <USBGamePadDeviceCompletionRoutine+0xc0>
   13910:	e59430bc 	ldr	r3, [r4, #188]	; 0xbc
   13914:	e3530000 	cmp	r3, #0
   13918:	0a000006 	beq	13938 <USBGamePadDeviceCompletionRoutine+0xc0>
   1391c:	e1a00004 	mov	r0, r4
   13920:	ebfffd3a 	bl	12e10 <USBGamePadDeviceDecodeReport>
   13924:	e594003c 	ldr	r0, [r4, #60]	; 0x3c
   13928:	e59430bc 	ldr	r3, [r4, #188]	; 0xbc
   1392c:	e2400001 	sub	r0, r0, #1
   13930:	e284104c 	add	r1, r4, #76	; 0x4c
   13934:	e12fff33 	blx	r3
   13938:	e59400c8 	ldr	r0, [r4, #200]	; 0xc8
   1393c:	ebffea40 	bl	e244 <_USBRequest>
   13940:	e59400c8 	ldr	r0, [r4, #200]	; 0xc8
   13944:	eb000922 	bl	15dd4 <free>
   13948:	e3a03000 	mov	r3, #0
   1394c:	e58430c8 	str	r3, [r4, #200]	; 0xc8
   13950:	e1a00004 	mov	r0, r4
   13954:	ebfffe43 	bl	13268 <USBGamePadDeviceStartRequest>
   13958:	e8bd8038 	pop	{r3, r4, r5, pc}

0001395c <USBGamePadDevice>:
   1395c:	e92d4038 	push	{r3, r4, r5, lr}
   13960:	e1a05001 	mov	r5, r1
   13964:	e2504000 	subs	r4, r0, #0
   13968:	1a000005 	bne	13984 <USBGamePadDevice+0x28>
   1396c:	e3090ce4 	movw	r0, #40164	; 0x9ce4
   13970:	e3400001 	movt	r0, #1
   13974:	e30b1240 	movw	r1, #45632	; 0xb240
   13978:	e3401001 	movt	r1, #1
   1397c:	e3a02056 	mov	r2, #86	; 0x56
   13980:	eb00116d 	bl	17f3c <uspi_assertion_failed>
   13984:	e1a00004 	mov	r0, r4
   13988:	e1a01005 	mov	r1, r5
   1398c:	ebffe571 	bl	cf58 <USBDeviceCopy>
   13990:	e3033374 	movw	r3, #13172	; 0x3374
   13994:	e3403001 	movt	r3, #1
   13998:	e5843000 	str	r3, [r4]
   1399c:	e3a03000 	mov	r3, #0
   139a0:	e5843044 	str	r3, [r4, #68]	; 0x44
   139a4:	e5843048 	str	r3, [r4, #72]	; 0x48
   139a8:	e58430bc 	str	r3, [r4, #188]	; 0xbc
   139ac:	e58430c8 	str	r3, [r4, #200]	; 0xc8
   139b0:	e58430c4 	str	r3, [r4, #196]	; 0xc4
   139b4:	e1c43cb0 	strh	r3, [r4, #192]	; 0xc0
   139b8:	e1c43db0 	strh	r3, [r4, #208]	; 0xd0
   139bc:	e584304c 	str	r3, [r4, #76]	; 0x4c
   139c0:	e1a03004 	mov	r3, r4
   139c4:	e2841048 	add	r1, r4, #72	; 0x48
   139c8:	e3a02000 	mov	r2, #0
   139cc:	e5832050 	str	r2, [r3, #80]	; 0x50
   139d0:	e5832054 	str	r2, [r3, #84]	; 0x54
   139d4:	e5832058 	str	r2, [r3, #88]	; 0x58
   139d8:	e283300c 	add	r3, r3, #12
   139dc:	e1530001 	cmp	r3, r1
   139e0:	1afffff9 	bne	139cc <USBGamePadDevice+0x70>
   139e4:	e3a03000 	mov	r3, #0
   139e8:	e5843098 	str	r3, [r4, #152]	; 0x98
   139ec:	e584309c 	str	r3, [r4, #156]	; 0x9c
   139f0:	e58430a0 	str	r3, [r4, #160]	; 0xa0
   139f4:	e58430a4 	str	r3, [r4, #164]	; 0xa4
   139f8:	e58430a8 	str	r3, [r4, #168]	; 0xa8
   139fc:	e58430ac 	str	r3, [r4, #172]	; 0xac
   13a00:	e58430b0 	str	r3, [r4, #176]	; 0xb0
   13a04:	e58430b4 	str	r3, [r4, #180]	; 0xb4
   13a08:	e58430b8 	str	r3, [r4, #184]	; 0xb8
   13a0c:	e3a00040 	mov	r0, #64	; 0x40
   13a10:	eb000893 	bl	15c64 <malloc>
   13a14:	e58400cc 	str	r0, [r4, #204]	; 0xcc
   13a18:	e3500000 	cmp	r0, #0
   13a1c:	18bd8038 	popne	{r3, r4, r5, pc}
   13a20:	e30b0004 	movw	r0, #45060	; 0xb004
   13a24:	e3400001 	movt	r0, #1
   13a28:	e30b1240 	movw	r1, #45632	; 0xb240
   13a2c:	e3401001 	movt	r1, #1
   13a30:	e3a02072 	mov	r2, #114	; 0x72
   13a34:	eb001140 	bl	17f3c <uspi_assertion_failed>
   13a38:	e8bd8038 	pop	{r3, r4, r5, pc}

00013a3c <_CUSBGamePadDevice>:
   13a3c:	e92d4010 	push	{r4, lr}
   13a40:	e2504000 	subs	r4, r0, #0
   13a44:	1a000005 	bne	13a60 <_CUSBGamePadDevice+0x24>
   13a48:	e3090ce4 	movw	r0, #40164	; 0x9ce4
   13a4c:	e3400001 	movt	r0, #1
   13a50:	e30b1240 	movw	r1, #45632	; 0xb240
   13a54:	e3401001 	movt	r1, #1
   13a58:	e3a02077 	mov	r2, #119	; 0x77
   13a5c:	eb001136 	bl	17f3c <uspi_assertion_failed>
   13a60:	e59400c4 	ldr	r0, [r4, #196]	; 0xc4
   13a64:	e3500000 	cmp	r0, #0
   13a68:	0a000002 	beq	13a78 <_CUSBGamePadDevice+0x3c>
   13a6c:	eb0008d8 	bl	15dd4 <free>
   13a70:	e3a03000 	mov	r3, #0
   13a74:	e58430c4 	str	r3, [r4, #196]	; 0xc4
   13a78:	e59400cc 	ldr	r0, [r4, #204]	; 0xcc
   13a7c:	e3500000 	cmp	r0, #0
   13a80:	0a000002 	beq	13a90 <_CUSBGamePadDevice+0x54>
   13a84:	eb0008d2 	bl	15dd4 <free>
   13a88:	e3a03000 	mov	r3, #0
   13a8c:	e58430cc 	str	r3, [r4, #204]	; 0xcc
   13a90:	e5940044 	ldr	r0, [r4, #68]	; 0x44
   13a94:	e3500000 	cmp	r0, #0
   13a98:	0a000004 	beq	13ab0 <_CUSBGamePadDevice+0x74>
   13a9c:	ebffe8e5 	bl	de38 <_USBEndpoint>
   13aa0:	e5940044 	ldr	r0, [r4, #68]	; 0x44
   13aa4:	eb0008ca 	bl	15dd4 <free>
   13aa8:	e3a03000 	mov	r3, #0
   13aac:	e5843044 	str	r3, [r4, #68]	; 0x44
   13ab0:	e5940048 	ldr	r0, [r4, #72]	; 0x48
   13ab4:	e3500000 	cmp	r0, #0
   13ab8:	0a000004 	beq	13ad0 <_CUSBGamePadDevice+0x94>
   13abc:	ebffe8dd 	bl	de38 <_USBEndpoint>
   13ac0:	e5940048 	ldr	r0, [r4, #72]	; 0x48
   13ac4:	eb0008c2 	bl	15dd4 <free>
   13ac8:	e3a03000 	mov	r3, #0
   13acc:	e5843048 	str	r3, [r4, #72]	; 0x48
   13ad0:	e1a00004 	mov	r0, r4
   13ad4:	ebffe597 	bl	d138 <_USBDevice>
   13ad8:	e8bd8010 	pop	{r4, pc}

00013adc <USBGamePadDeviceRegisterStatusHandler>:
   13adc:	e92d4038 	push	{r3, r4, r5, lr}
   13ae0:	e1a04001 	mov	r4, r1
   13ae4:	e2505000 	subs	r5, r0, #0
   13ae8:	1a000005 	bne	13b04 <USBGamePadDeviceRegisterStatusHandler+0x28>
   13aec:	e3090ce4 	movw	r0, #40164	; 0x9ce4
   13af0:	e3400001 	movt	r0, #1
   13af4:	e30b1240 	movw	r1, #45632	; 0xb240
   13af8:	e3401001 	movt	r1, #1
   13afc:	e30021de 	movw	r2, #478	; 0x1de
   13b00:	eb00110d 	bl	17f3c <uspi_assertion_failed>
   13b04:	e3540000 	cmp	r4, #0
   13b08:	1a000005 	bne	13b24 <USBGamePadDeviceRegisterStatusHandler+0x48>
   13b0c:	e30b0204 	movw	r0, #45572	; 0xb204
   13b10:	e3400001 	movt	r0, #1
   13b14:	e30b1240 	movw	r1, #45632	; 0xb240
   13b18:	e3401001 	movt	r1, #1
   13b1c:	e30021df 	movw	r2, #479	; 0x1df
   13b20:	eb001105 	bl	17f3c <uspi_assertion_failed>
   13b24:	e58540bc 	str	r4, [r5, #188]	; 0xbc
   13b28:	e8bd8038 	pop	{r3, r4, r5, pc}

00013b2c <USBGamePadDeviceGetReport>:
   13b2c:	e92d4030 	push	{r4, r5, lr}
   13b30:	e24dd014 	sub	sp, sp, #20
   13b34:	e1a04000 	mov	r4, r0
   13b38:	ebffe656 	bl	d498 <USBDeviceGetHost>
   13b3c:	e1a05000 	mov	r5, r0
   13b40:	e1a00004 	mov	r0, r4
   13b44:	ebffe63f 	bl	d448 <USBDeviceGetEndpoint0>
   13b48:	e1a01000 	mov	r1, r0
   13b4c:	e3a03c01 	mov	r3, #256	; 0x100
   13b50:	e58d3000 	str	r3, [sp]
   13b54:	e5d43040 	ldrb	r3, [r4, #64]	; 0x40
   13b58:	e58d3004 	str	r3, [sp, #4]
   13b5c:	e59430cc 	ldr	r3, [r4, #204]	; 0xcc
   13b60:	e58d3008 	str	r3, [sp, #8]
   13b64:	e1d43db0 	ldrh	r3, [r4, #208]	; 0xd0
   13b68:	e58d300c 	str	r3, [sp, #12]
   13b6c:	e1a00005 	mov	r0, r5
   13b70:	e3a020a1 	mov	r2, #161	; 0xa1
   13b74:	e3a03001 	mov	r3, #1
   13b78:	ebffd9f9 	bl	a364 <DWHCIDeviceControlMessage>
   13b7c:	e3500000 	cmp	r0, #0
   13b80:	da000001 	ble	13b8c <USBGamePadDeviceGetReport+0x60>
   13b84:	e1a00004 	mov	r0, r4
   13b88:	ebfffca0 	bl	12e10 <USBGamePadDeviceDecodeReport>
   13b8c:	e28dd014 	add	sp, sp, #20
   13b90:	e8bd8030 	pop	{r4, r5, pc}

00013b94 <uspi_EnterCritical>:
   13b94:	e10f2000 	mrs	r2, CPSR
   13b98:	f10c0080 	cpsid	i
   13b9c:	e30c3644 	movw	r3, #50756	; 0xc644
   13ba0:	e3403001 	movt	r3, #1
   13ba4:	e5931000 	ldr	r1, [r3]
   13ba8:	e2810001 	add	r0, r1, #1
   13bac:	e5830000 	str	r0, [r3]
   13bb0:	e3510000 	cmp	r1, #0
   13bb4:	02222080 	eoreq	r2, r2, #128	; 0x80
   13bb8:	07e023d2 	ubfxeq	r2, r2, #7, #1
   13bbc:	030c3644 	movweq	r3, #50756	; 0xc644
   13bc0:	03403001 	movteq	r3, #1
   13bc4:	05832004 	streq	r2, [r3, #4]
   13bc8:	f57ff05f 	dmb	sy
   13bcc:	e12fff1e 	bx	lr

00013bd0 <uspi_LeaveCritical>:
   13bd0:	e92d4008 	push	{r3, lr}
   13bd4:	f57ff05f 	dmb	sy
   13bd8:	e30c3644 	movw	r3, #50756	; 0xc644
   13bdc:	e3403001 	movt	r3, #1
   13be0:	e5933000 	ldr	r3, [r3]
   13be4:	e3530000 	cmp	r3, #0
   13be8:	1a000005 	bne	13c04 <uspi_LeaveCritical+0x34>
   13bec:	e30b0298 	movw	r0, #45720	; 0xb298
   13bf0:	e3400001 	movt	r0, #1
   13bf4:	e30b12b0 	movw	r1, #45744	; 0xb2b0
   13bf8:	e3401001 	movt	r1, #1
   13bfc:	e3a02031 	mov	r2, #49	; 0x31
   13c00:	eb0010cd 	bl	17f3c <uspi_assertion_failed>
   13c04:	e30c2644 	movw	r2, #50756	; 0xc644
   13c08:	e3402001 	movt	r2, #1
   13c0c:	e5923000 	ldr	r3, [r2]
   13c10:	e2433001 	sub	r3, r3, #1
   13c14:	e5823000 	str	r3, [r2]
   13c18:	e3530000 	cmp	r3, #0
   13c1c:	18bd8008 	popne	{r3, pc}
   13c20:	e5923004 	ldr	r3, [r2, #4]
   13c24:	e3530000 	cmp	r3, #0
   13c28:	08bd8008 	popeq	{r3, pc}
   13c2c:	f1080080 	cpsie	i
   13c30:	e8bd8008 	pop	{r3, pc}

00013c34 <uspi_CleanAndInvalidateDataCacheRange>:
   13c34:	ee070f3e 	mcr	15, 0, r0, cr7, cr14, {1}
   13c38:	e2813040 	add	r3, r1, #64	; 0x40
   13c3c:	e353003f 	cmp	r3, #63	; 0x3f
   13c40:	912fff1e 	bxls	lr
   13c44:	e2800040 	add	r0, r0, #64	; 0x40
   13c48:	e3c1103f 	bic	r1, r1, #63	; 0x3f
   13c4c:	e0801001 	add	r1, r0, r1
   13c50:	ee070f3e 	mcr	15, 0, r0, cr7, cr14, {1}
   13c54:	e1500001 	cmp	r0, r1
   13c58:	e2800040 	add	r0, r0, #64	; 0x40
   13c5c:	1afffffb 	bne	13c50 <uspi_CleanAndInvalidateDataCacheRange+0x1c>
   13c60:	e12fff1e 	bx	lr

00013c64 <USBString>:
   13c64:	e92d4038 	push	{r3, r4, r5, lr}
   13c68:	e1a05001 	mov	r5, r1
   13c6c:	e2504000 	subs	r4, r0, #0
   13c70:	1a000005 	bne	13c8c <USBString+0x28>
   13c74:	e3090ce4 	movw	r0, #40164	; 0x9ce4
   13c78:	e3400001 	movt	r0, #1
   13c7c:	e30b12c0 	movw	r1, #45760	; 0xb2c0
   13c80:	e3401001 	movt	r1, #1
   13c84:	e3a02021 	mov	r2, #33	; 0x21
   13c88:	eb0010ab 	bl	17f3c <uspi_assertion_failed>
   13c8c:	e5845000 	str	r5, [r4]
   13c90:	e3550000 	cmp	r5, #0
   13c94:	1a000005 	bne	13cb0 <USBString+0x4c>
   13c98:	e30a03b8 	movw	r0, #41912	; 0xa3b8
   13c9c:	e3400001 	movt	r0, #1
   13ca0:	e30b12c0 	movw	r1, #45760	; 0xb2c0
   13ca4:	e3401001 	movt	r1, #1
   13ca8:	e3a02024 	mov	r2, #36	; 0x24
   13cac:	eb0010a2 	bl	17f3c <uspi_assertion_failed>
   13cb0:	e3a03000 	mov	r3, #0
   13cb4:	e5843004 	str	r3, [r4, #4]
   13cb8:	e3a0000c 	mov	r0, #12
   13cbc:	eb0007e8 	bl	15c64 <malloc>
   13cc0:	e5840008 	str	r0, [r4, #8]
   13cc4:	e3500000 	cmp	r0, #0
   13cc8:	1a000005 	bne	13ce4 <USBString+0x80>
   13ccc:	e30b02cc 	movw	r0, #45772	; 0xb2cc
   13cd0:	e3400001 	movt	r0, #1
   13cd4:	e30b12c0 	movw	r1, #45760	; 0xb2c0
   13cd8:	e3401001 	movt	r1, #1
   13cdc:	e3a02029 	mov	r2, #41	; 0x29
   13ce0:	eb001095 	bl	17f3c <uspi_assertion_failed>
   13ce4:	e5940008 	ldr	r0, [r4, #8]
   13ce8:	ebffeeb0 	bl	f7b0 <String>
   13cec:	e8bd8038 	pop	{r3, r4, r5, pc}

00013cf0 <USBStringCopy>:
   13cf0:	e92d4038 	push	{r3, r4, r5, lr}
   13cf4:	e1a04001 	mov	r4, r1
   13cf8:	e2505000 	subs	r5, r0, #0
   13cfc:	1a000005 	bne	13d18 <USBStringCopy+0x28>
   13d00:	e3090ce4 	movw	r0, #40164	; 0x9ce4
   13d04:	e3400001 	movt	r0, #1
   13d08:	e30b12c0 	movw	r1, #45760	; 0xb2c0
   13d0c:	e3401001 	movt	r1, #1
   13d10:	e3a0202f 	mov	r2, #47	; 0x2f
   13d14:	eb001088 	bl	17f3c <uspi_assertion_failed>
   13d18:	e3540000 	cmp	r4, #0
   13d1c:	1a000005 	bne	13d38 <USBStringCopy+0x48>
   13d20:	e30b02e4 	movw	r0, #45796	; 0xb2e4
   13d24:	e3400001 	movt	r0, #1
   13d28:	e30b12c0 	movw	r1, #45760	; 0xb2c0
   13d2c:	e3401001 	movt	r1, #1
   13d30:	e3a02030 	mov	r2, #48	; 0x30
   13d34:	eb001080 	bl	17f3c <uspi_assertion_failed>
   13d38:	e5943000 	ldr	r3, [r4]
   13d3c:	e5853000 	str	r3, [r5]
   13d40:	e3a03000 	mov	r3, #0
   13d44:	e5853004 	str	r3, [r5, #4]
   13d48:	e5943004 	ldr	r3, [r4, #4]
   13d4c:	e3530000 	cmp	r3, #0
   13d50:	0a00000f 	beq	13d94 <USBStringCopy+0xa4>
   13d54:	e5d30000 	ldrb	r0, [r3]
   13d58:	eb0007c1 	bl	15c64 <malloc>
   13d5c:	e5850004 	str	r0, [r5, #4]
   13d60:	e3500000 	cmp	r0, #0
   13d64:	1a000005 	bne	13d80 <USBStringCopy+0x90>
   13d68:	e30b02f4 	movw	r0, #45812	; 0xb2f4
   13d6c:	e3400001 	movt	r0, #1
   13d70:	e30b12c0 	movw	r1, #45760	; 0xb2c0
   13d74:	e3401001 	movt	r1, #1
   13d78:	e3a02037 	mov	r2, #55	; 0x37
   13d7c:	eb00106e 	bl	17f3c <uspi_assertion_failed>
   13d80:	e5943004 	ldr	r3, [r4, #4]
   13d84:	e5950004 	ldr	r0, [r5, #4]
   13d88:	e1a01003 	mov	r1, r3
   13d8c:	e5d32000 	ldrb	r2, [r3]
   13d90:	ebfff132 	bl	10260 <uspi_memcpy>
   13d94:	e5943008 	ldr	r3, [r4, #8]
   13d98:	e3530000 	cmp	r3, #0
   13d9c:	1a000005 	bne	13db8 <USBStringCopy+0xc8>
   13da0:	e30b0310 	movw	r0, #45840	; 0xb310
   13da4:	e3400001 	movt	r0, #1
   13da8:	e30b12c0 	movw	r1, #45760	; 0xb2c0
   13dac:	e3401001 	movt	r1, #1
   13db0:	e3a0203b 	mov	r2, #59	; 0x3b
   13db4:	eb001060 	bl	17f3c <uspi_assertion_failed>
   13db8:	e3a0000c 	mov	r0, #12
   13dbc:	eb0007a8 	bl	15c64 <malloc>
   13dc0:	e5850008 	str	r0, [r5, #8]
   13dc4:	e3500000 	cmp	r0, #0
   13dc8:	1a000005 	bne	13de4 <USBStringCopy+0xf4>
   13dcc:	e30b02cc 	movw	r0, #45772	; 0xb2cc
   13dd0:	e3400001 	movt	r0, #1
   13dd4:	e30b12c0 	movw	r1, #45760	; 0xb2c0
   13dd8:	e3401001 	movt	r1, #1
   13ddc:	e3a0203d 	mov	r2, #61	; 0x3d
   13de0:	eb001055 	bl	17f3c <uspi_assertion_failed>
   13de4:	e5955008 	ldr	r5, [r5, #8]
   13de8:	e5940008 	ldr	r0, [r4, #8]
   13dec:	ebffee9f 	bl	f870 <StringGet>
   13df0:	e1a01000 	mov	r1, r0
   13df4:	e1a00005 	mov	r0, r5
   13df8:	ebffee79 	bl	f7e4 <String2>
   13dfc:	e8bd8038 	pop	{r3, r4, r5, pc}

00013e00 <_USBString>:
   13e00:	e92d4010 	push	{r4, lr}
   13e04:	e2504000 	subs	r4, r0, #0
   13e08:	1a000005 	bne	13e24 <_USBString+0x24>
   13e0c:	e3090ce4 	movw	r0, #40164	; 0x9ce4
   13e10:	e3400001 	movt	r0, #1
   13e14:	e30b12c0 	movw	r1, #45760	; 0xb2c0
   13e18:	e3401001 	movt	r1, #1
   13e1c:	e3a02043 	mov	r2, #67	; 0x43
   13e20:	eb001045 	bl	17f3c <uspi_assertion_failed>
   13e24:	e5943008 	ldr	r3, [r4, #8]
   13e28:	e3530000 	cmp	r3, #0
   13e2c:	1a000005 	bne	13e48 <_USBString+0x48>
   13e30:	e30b02cc 	movw	r0, #45772	; 0xb2cc
   13e34:	e3400001 	movt	r0, #1
   13e38:	e30b12c0 	movw	r1, #45760	; 0xb2c0
   13e3c:	e3401001 	movt	r1, #1
   13e40:	e3a02045 	mov	r2, #69	; 0x45
   13e44:	eb00103c 	bl	17f3c <uspi_assertion_failed>
   13e48:	e5940008 	ldr	r0, [r4, #8]
   13e4c:	ebffee77 	bl	f830 <_String>
   13e50:	e5940008 	ldr	r0, [r4, #8]
   13e54:	eb0007de 	bl	15dd4 <free>
   13e58:	e3a03000 	mov	r3, #0
   13e5c:	e5843008 	str	r3, [r4, #8]
   13e60:	e5940004 	ldr	r0, [r4, #4]
   13e64:	e1500003 	cmp	r0, r3
   13e68:	0a000002 	beq	13e78 <_USBString+0x78>
   13e6c:	eb0007d8 	bl	15dd4 <free>
   13e70:	e3a03000 	mov	r3, #0
   13e74:	e5843004 	str	r3, [r4, #4]
   13e78:	e3a03000 	mov	r3, #0
   13e7c:	e5843000 	str	r3, [r4]
   13e80:	e8bd8010 	pop	{r4, pc}

00013e84 <USBStringGetFromDescriptor>:
   13e84:	e92d49f0 	push	{r4, r5, r6, r7, r8, fp, lr}
   13e88:	e28db018 	add	fp, sp, #24
   13e8c:	e24dd014 	sub	sp, sp, #20
   13e90:	e1a05001 	mov	r5, r1
   13e94:	e1a07002 	mov	r7, r2
   13e98:	e2504000 	subs	r4, r0, #0
   13e9c:	1a000005 	bne	13eb8 <USBStringGetFromDescriptor+0x34>
   13ea0:	e3090ce4 	movw	r0, #40164	; 0x9ce4
   13ea4:	e3400001 	movt	r0, #1
   13ea8:	e30b12c0 	movw	r1, #45760	; 0xb2c0
   13eac:	e3401001 	movt	r1, #1
   13eb0:	e3a02055 	mov	r2, #85	; 0x55
   13eb4:	eb001020 	bl	17f3c <uspi_assertion_failed>
   13eb8:	e3550000 	cmp	r5, #0
   13ebc:	1a000005 	bne	13ed8 <USBStringGetFromDescriptor+0x54>
   13ec0:	e30b0328 	movw	r0, #45864	; 0xb328
   13ec4:	e3400001 	movt	r0, #1
   13ec8:	e30b12c0 	movw	r1, #45760	; 0xb2c0
   13ecc:	e3401001 	movt	r1, #1
   13ed0:	e3a02056 	mov	r2, #86	; 0x56
   13ed4:	eb001018 	bl	17f3c <uspi_assertion_failed>
   13ed8:	e5940004 	ldr	r0, [r4, #4]
   13edc:	e3500000 	cmp	r0, #0
   13ee0:	0a000000 	beq	13ee8 <USBStringGetFromDescriptor+0x64>
   13ee4:	eb0007ba 	bl	15dd4 <free>
   13ee8:	e3a00004 	mov	r0, #4
   13eec:	eb00075c 	bl	15c64 <malloc>
   13ef0:	e5840004 	str	r0, [r4, #4]
   13ef4:	e3500000 	cmp	r0, #0
   13ef8:	1a000005 	bne	13f14 <USBStringGetFromDescriptor+0x90>
   13efc:	e30b02f4 	movw	r0, #45812	; 0xb2f4
   13f00:	e3400001 	movt	r0, #1
   13f04:	e30b12c0 	movw	r1, #45760	; 0xb2c0
   13f08:	e3401001 	movt	r1, #1
   13f0c:	e3a0205d 	mov	r2, #93	; 0x5d
   13f10:	eb001009 	bl	17f3c <uspi_assertion_failed>
   13f14:	e5943000 	ldr	r3, [r4]
   13f18:	e3530000 	cmp	r3, #0
   13f1c:	1a000005 	bne	13f38 <USBStringGetFromDescriptor+0xb4>
   13f20:	e30a03b8 	movw	r0, #41912	; 0xa3b8
   13f24:	e3400001 	movt	r0, #1
   13f28:	e30b12c0 	movw	r1, #45760	; 0xb2c0
   13f2c:	e3401001 	movt	r1, #1
   13f30:	e3a0205f 	mov	r2, #95	; 0x5f
   13f34:	eb001000 	bl	17f3c <uspi_assertion_failed>
   13f38:	e5940000 	ldr	r0, [r4]
   13f3c:	ebffe555 	bl	d498 <USBDeviceGetHost>
   13f40:	e1a06000 	mov	r6, r0
   13f44:	e5940000 	ldr	r0, [r4]
   13f48:	ebffe53e 	bl	d448 <USBDeviceGetEndpoint0>
   13f4c:	e1a01000 	mov	r1, r0
   13f50:	e3855c03 	orr	r5, r5, #768	; 0x300
   13f54:	e58d5000 	str	r5, [sp]
   13f58:	e58d7004 	str	r7, [sp, #4]
   13f5c:	e5943004 	ldr	r3, [r4, #4]
   13f60:	e58d3008 	str	r3, [sp, #8]
   13f64:	e3a03004 	mov	r3, #4
   13f68:	e58d300c 	str	r3, [sp, #12]
   13f6c:	e1a00006 	mov	r0, r6
   13f70:	e3a02080 	mov	r2, #128	; 0x80
   13f74:	e3a03006 	mov	r3, #6
   13f78:	ebffd8f9 	bl	a364 <DWHCIDeviceControlMessage>
   13f7c:	e3500000 	cmp	r0, #0
   13f80:	b3a00000 	movlt	r0, #0
   13f84:	ba00008a 	blt	141b4 <USBStringGetFromDescriptor+0x330>
   13f88:	e5940004 	ldr	r0, [r4, #4]
   13f8c:	e5d06000 	ldrb	r6, [r0]
   13f90:	e3560001 	cmp	r6, #1
   13f94:	93a00000 	movls	r0, #0
   13f98:	9a000085 	bls	141b4 <USBStringGetFromDescriptor+0x330>
   13f9c:	e3160001 	tst	r6, #1
   13fa0:	13a00000 	movne	r0, #0
   13fa4:	1a000082 	bne	141b4 <USBStringGetFromDescriptor+0x330>
   13fa8:	e5d03001 	ldrb	r3, [r0, #1]
   13fac:	e3530003 	cmp	r3, #3
   13fb0:	13a00000 	movne	r0, #0
   13fb4:	1a00007e 	bne	141b4 <USBStringGetFromDescriptor+0x330>
   13fb8:	e3560004 	cmp	r6, #4
   13fbc:	9a00003a 	bls	140ac <USBStringGetFromDescriptor+0x228>
   13fc0:	eb000783 	bl	15dd4 <free>
   13fc4:	e1a00006 	mov	r0, r6
   13fc8:	eb000725 	bl	15c64 <malloc>
   13fcc:	e5840004 	str	r0, [r4, #4]
   13fd0:	e3500000 	cmp	r0, #0
   13fd4:	1a000005 	bne	13ff0 <USBStringGetFromDescriptor+0x16c>
   13fd8:	e30b02f4 	movw	r0, #45812	; 0xb2f4
   13fdc:	e3400001 	movt	r0, #1
   13fe0:	e30b12c0 	movw	r1, #45760	; 0xb2c0
   13fe4:	e3401001 	movt	r1, #1
   13fe8:	e3a02075 	mov	r2, #117	; 0x75
   13fec:	eb000fd2 	bl	17f3c <uspi_assertion_failed>
   13ff0:	e5940000 	ldr	r0, [r4]
   13ff4:	ebffe527 	bl	d498 <USBDeviceGetHost>
   13ff8:	e1a08000 	mov	r8, r0
   13ffc:	e5940000 	ldr	r0, [r4]
   14000:	ebffe510 	bl	d448 <USBDeviceGetEndpoint0>
   14004:	e1a01000 	mov	r1, r0
   14008:	e58d5000 	str	r5, [sp]
   1400c:	e58d7004 	str	r7, [sp, #4]
   14010:	e5943004 	ldr	r3, [r4, #4]
   14014:	e58d3008 	str	r3, [sp, #8]
   14018:	e58d600c 	str	r6, [sp, #12]
   1401c:	e1a00008 	mov	r0, r8
   14020:	e3a02080 	mov	r2, #128	; 0x80
   14024:	e3a03006 	mov	r3, #6
   14028:	ebffd8cd 	bl	a364 <DWHCIDeviceControlMessage>
   1402c:	e1500006 	cmp	r0, r6
   14030:	13a00000 	movne	r0, #0
   14034:	1a00005e 	bne	141b4 <USBStringGetFromDescriptor+0x330>
   14038:	e5942004 	ldr	r2, [r4, #4]
   1403c:	e5d23000 	ldrb	r3, [r2]
   14040:	e1530006 	cmp	r3, r6
   14044:	13a00000 	movne	r0, #0
   14048:	1a000059 	bne	141b4 <USBStringGetFromDescriptor+0x330>
   1404c:	e3130001 	tst	r3, #1
   14050:	13a00000 	movne	r0, #0
   14054:	1a000056 	bne	141b4 <USBStringGetFromDescriptor+0x330>
   14058:	e5d22001 	ldrb	r2, [r2, #1]
   1405c:	e3520003 	cmp	r2, #3
   14060:	13a00000 	movne	r0, #0
   14064:	1a000052 	bne	141b4 <USBStringGetFromDescriptor+0x330>
   14068:	ea00004e 	b	141a8 <USBStringGetFromDescriptor+0x324>
   1406c:	e30b0334 	movw	r0, #45876	; 0xb334
   14070:	e3400001 	movt	r0, #1
   14074:	e30b12c0 	movw	r1, #45760	; 0xb2c0
   14078:	e3401001 	movt	r1, #1
   1407c:	e3a02089 	mov	r2, #137	; 0x89
   14080:	eb000fad 	bl	17f3c <uspi_assertion_failed>
   14084:	e5943004 	ldr	r3, [r4, #4]
   14088:	e5d33000 	ldrb	r3, [r3]
   1408c:	e3130001 	tst	r3, #1
   14090:	0a000005 	beq	140ac <USBStringGetFromDescriptor+0x228>
   14094:	e30b0358 	movw	r0, #45912	; 0xb358
   14098:	e3400001 	movt	r0, #1
   1409c:	e30b12c0 	movw	r1, #45760	; 0xb2c0
   140a0:	e3401001 	movt	r1, #1
   140a4:	e3a0208a 	mov	r2, #138	; 0x8a
   140a8:	eb000fa3 	bl	17f3c <uspi_assertion_failed>
   140ac:	e5943004 	ldr	r3, [r4, #4]
   140b0:	e5d36000 	ldrb	r6, [r3]
   140b4:	e2466002 	sub	r6, r6, #2
   140b8:	e0866fa6 	add	r6, r6, r6, lsr #31
   140bc:	e1a050c6 	asr	r5, r6, #1
   140c0:	e355007e 	cmp	r5, #126	; 0x7e
   140c4:	9a000005 	bls	140e0 <USBStringGetFromDescriptor+0x25c>
   140c8:	e30b0380 	movw	r0, #45952	; 0xb380
   140cc:	e3400001 	movt	r0, #1
   140d0:	e30b12c0 	movw	r1, #45760	; 0xb2c0
   140d4:	e3401001 	movt	r1, #1
   140d8:	e3a0208d 	mov	r2, #141	; 0x8d
   140dc:	eb000f96 	bl	17f3c <uspi_assertion_failed>
   140e0:	e2853008 	add	r3, r5, #8
   140e4:	e3c33007 	bic	r3, r3, #7
   140e8:	e04dd003 	sub	sp, sp, r3
   140ec:	e28d7010 	add	r7, sp, #16
   140f0:	e3550000 	cmp	r5, #0
   140f4:	0a00000c 	beq	1412c <USBStringGetFromDescriptor+0x2a8>
   140f8:	e594c004 	ldr	ip, [r4, #4]
   140fc:	e2471001 	sub	r1, r7, #1
   14100:	e3a02000 	mov	r2, #0
   14104:	e08c3082 	add	r3, ip, r2, lsl #1
   14108:	e1d330b2 	ldrh	r3, [r3, #2]
   1410c:	e2430020 	sub	r0, r3, #32
   14110:	e6ff0070 	uxth	r0, r0
   14114:	e350005f 	cmp	r0, #95	; 0x5f
   14118:	23a0305f 	movcs	r3, #95	; 0x5f
   1411c:	e5e13001 	strb	r3, [r1, #1]!
   14120:	e2822001 	add	r2, r2, #1
   14124:	e1550002 	cmp	r5, r2
   14128:	1afffff5 	bne	14104 <USBStringGetFromDescriptor+0x280>
   1412c:	e3a03000 	mov	r3, #0
   14130:	e7c730c6 	strb	r3, [r7, r6, asr #1]
   14134:	e5943008 	ldr	r3, [r4, #8]
   14138:	e3530000 	cmp	r3, #0
   1413c:	1a000005 	bne	14158 <USBStringGetFromDescriptor+0x2d4>
   14140:	e30b02cc 	movw	r0, #45772	; 0xb2cc
   14144:	e3400001 	movt	r0, #1
   14148:	e30b12c0 	movw	r1, #45760	; 0xb2c0
   1414c:	e3401001 	movt	r1, #1
   14150:	e3a0209d 	mov	r2, #157	; 0x9d
   14154:	eb000f78 	bl	17f3c <uspi_assertion_failed>
   14158:	e5940008 	ldr	r0, [r4, #8]
   1415c:	ebffedb3 	bl	f830 <_String>
   14160:	e5940008 	ldr	r0, [r4, #8]
   14164:	eb00071a 	bl	15dd4 <free>
   14168:	e3a0000c 	mov	r0, #12
   1416c:	eb0006bc 	bl	15c64 <malloc>
   14170:	e5840008 	str	r0, [r4, #8]
   14174:	e3500000 	cmp	r0, #0
   14178:	1a000005 	bne	14194 <USBStringGetFromDescriptor+0x310>
   1417c:	e30b02cc 	movw	r0, #45772	; 0xb2cc
   14180:	e3400001 	movt	r0, #1
   14184:	e30b12c0 	movw	r1, #45760	; 0xb2c0
   14188:	e3401001 	movt	r1, #1
   1418c:	e3a020a2 	mov	r2, #162	; 0xa2
   14190:	eb000f69 	bl	17f3c <uspi_assertion_failed>
   14194:	e5940008 	ldr	r0, [r4, #8]
   14198:	e1a01007 	mov	r1, r7
   1419c:	ebffed90 	bl	f7e4 <String2>
   141a0:	e3a00001 	mov	r0, #1
   141a4:	ea000002 	b	141b4 <USBStringGetFromDescriptor+0x330>
   141a8:	e3530001 	cmp	r3, #1
   141ac:	9affffae 	bls	1406c <USBStringGetFromDescriptor+0x1e8>
   141b0:	eaffffbd 	b	140ac <USBStringGetFromDescriptor+0x228>
   141b4:	e24bd018 	sub	sp, fp, #24
   141b8:	e8bd89f0 	pop	{r4, r5, r6, r7, r8, fp, pc}

000141bc <USBStringGet>:
   141bc:	e92d4010 	push	{r4, lr}
   141c0:	e2504000 	subs	r4, r0, #0
   141c4:	1a000005 	bne	141e0 <USBStringGet+0x24>
   141c8:	e3090ce4 	movw	r0, #40164	; 0x9ce4
   141cc:	e3400001 	movt	r0, #1
   141d0:	e30b12c0 	movw	r1, #45760	; 0xb2c0
   141d4:	e3401001 	movt	r1, #1
   141d8:	e3a020aa 	mov	r2, #170	; 0xaa
   141dc:	eb000f56 	bl	17f3c <uspi_assertion_failed>
   141e0:	e5940008 	ldr	r0, [r4, #8]
   141e4:	ebffeda1 	bl	f870 <StringGet>
   141e8:	e8bd8010 	pop	{r4, pc}

000141ec <USBStringGetLanguageID>:
   141ec:	e92d40f0 	push	{r4, r5, r6, r7, lr}
   141f0:	e24dd014 	sub	sp, sp, #20
   141f4:	e2505000 	subs	r5, r0, #0
   141f8:	1a000005 	bne	14214 <USBStringGetLanguageID+0x28>
   141fc:	e3090ce4 	movw	r0, #40164	; 0x9ce4
   14200:	e3400001 	movt	r0, #1
   14204:	e30b12c0 	movw	r1, #45760	; 0xb2c0
   14208:	e3401001 	movt	r1, #1
   1420c:	e3a020b0 	mov	r2, #176	; 0xb0
   14210:	eb000f49 	bl	17f3c <uspi_assertion_failed>
   14214:	e3a00004 	mov	r0, #4
   14218:	eb000691 	bl	15c64 <malloc>
   1421c:	e2504000 	subs	r4, r0, #0
   14220:	1a000005 	bne	1423c <USBStringGetLanguageID+0x50>
   14224:	e30b0398 	movw	r0, #45976	; 0xb398
   14228:	e3400001 	movt	r0, #1
   1422c:	e30b12c0 	movw	r1, #45760	; 0xb2c0
   14230:	e3401001 	movt	r1, #1
   14234:	e3a020b3 	mov	r2, #179	; 0xb3
   14238:	eb000f3f 	bl	17f3c <uspi_assertion_failed>
   1423c:	e5953000 	ldr	r3, [r5]
   14240:	e3530000 	cmp	r3, #0
   14244:	1a000005 	bne	14260 <USBStringGetLanguageID+0x74>
   14248:	e30a03b8 	movw	r0, #41912	; 0xa3b8
   1424c:	e3400001 	movt	r0, #1
   14250:	e30b12c0 	movw	r1, #45760	; 0xb2c0
   14254:	e3401001 	movt	r1, #1
   14258:	e3a020b5 	mov	r2, #181	; 0xb5
   1425c:	eb000f36 	bl	17f3c <uspi_assertion_failed>
   14260:	e5950000 	ldr	r0, [r5]
   14264:	ebffe48b 	bl	d498 <USBDeviceGetHost>
   14268:	e1a06000 	mov	r6, r0
   1426c:	e5950000 	ldr	r0, [r5]
   14270:	ebffe474 	bl	d448 <USBDeviceGetEndpoint0>
   14274:	e1a01000 	mov	r1, r0
   14278:	e58d4000 	str	r4, [sp]
   1427c:	e3a03004 	mov	r3, #4
   14280:	e58d3004 	str	r3, [sp, #4]
   14284:	e3a03080 	mov	r3, #128	; 0x80
   14288:	e58d3008 	str	r3, [sp, #8]
   1428c:	e1a00006 	mov	r0, r6
   14290:	e3a02003 	mov	r2, #3
   14294:	e3a03000 	mov	r3, #0
   14298:	ebffd867 	bl	a43c <DWHCIDeviceGetDescriptor>
   1429c:	e3500000 	cmp	r0, #0
   142a0:	aa000003 	bge	142b4 <USBStringGetLanguageID+0xc8>
   142a4:	e1a00004 	mov	r0, r4
   142a8:	eb0006c9 	bl	15dd4 <free>
   142ac:	e3000409 	movw	r0, #1033	; 0x409
   142b0:	ea000067 	b	14454 <USBStringGetLanguageID+0x268>
   142b4:	e5d46000 	ldrb	r6, [r4]
   142b8:	e3560003 	cmp	r6, #3
   142bc:	9a000004 	bls	142d4 <USBStringGetLanguageID+0xe8>
   142c0:	e3160001 	tst	r6, #1
   142c4:	1a000002 	bne	142d4 <USBStringGetLanguageID+0xe8>
   142c8:	e5d43001 	ldrb	r3, [r4, #1]
   142cc:	e3530003 	cmp	r3, #3
   142d0:	0a000003 	beq	142e4 <USBStringGetLanguageID+0xf8>
   142d4:	e1a00004 	mov	r0, r4
   142d8:	eb0006bd 	bl	15dd4 <free>
   142dc:	e3000409 	movw	r0, #1033	; 0x409
   142e0:	ea00005b 	b	14454 <USBStringGetLanguageID+0x268>
   142e4:	e3560004 	cmp	r6, #4
   142e8:	9a00003a 	bls	143d8 <USBStringGetLanguageID+0x1ec>
   142ec:	e1a00004 	mov	r0, r4
   142f0:	eb0006b7 	bl	15dd4 <free>
   142f4:	e1a00006 	mov	r0, r6
   142f8:	eb000659 	bl	15c64 <malloc>
   142fc:	e2504000 	subs	r4, r0, #0
   14300:	1a000005 	bne	1431c <USBStringGetLanguageID+0x130>
   14304:	e30b0398 	movw	r0, #45976	; 0xb398
   14308:	e3400001 	movt	r0, #1
   1430c:	e30b12c0 	movw	r1, #45760	; 0xb2c0
   14310:	e3401001 	movt	r1, #1
   14314:	e3a020ce 	mov	r2, #206	; 0xce
   14318:	eb000f07 	bl	17f3c <uspi_assertion_failed>
   1431c:	e5950000 	ldr	r0, [r5]
   14320:	ebffe45c 	bl	d498 <USBDeviceGetHost>
   14324:	e1a07000 	mov	r7, r0
   14328:	e5950000 	ldr	r0, [r5]
   1432c:	ebffe445 	bl	d448 <USBDeviceGetEndpoint0>
   14330:	e1a01000 	mov	r1, r0
   14334:	e58d4000 	str	r4, [sp]
   14338:	e58d6004 	str	r6, [sp, #4]
   1433c:	e3a03080 	mov	r3, #128	; 0x80
   14340:	e58d3008 	str	r3, [sp, #8]
   14344:	e1a00007 	mov	r0, r7
   14348:	e3a02003 	mov	r2, #3
   1434c:	e3a03000 	mov	r3, #0
   14350:	ebffd839 	bl	a43c <DWHCIDeviceGetDescriptor>
   14354:	e1500006 	cmp	r0, r6
   14358:	0a000003 	beq	1436c <USBStringGetLanguageID+0x180>
   1435c:	e1a00004 	mov	r0, r4
   14360:	eb00069b 	bl	15dd4 <free>
   14364:	e3000409 	movw	r0, #1033	; 0x409
   14368:	ea000039 	b	14454 <USBStringGetLanguageID+0x268>
   1436c:	e5d43000 	ldrb	r3, [r4]
   14370:	e1530006 	cmp	r3, r6
   14374:	1a000004 	bne	1438c <USBStringGetLanguageID+0x1a0>
   14378:	e3130001 	tst	r3, #1
   1437c:	1a000002 	bne	1438c <USBStringGetLanguageID+0x1a0>
   14380:	e5d42001 	ldrb	r2, [r4, #1]
   14384:	e3520003 	cmp	r2, #3
   14388:	0a00002e 	beq	14448 <USBStringGetLanguageID+0x25c>
   1438c:	e1a00004 	mov	r0, r4
   14390:	eb00068f 	bl	15dd4 <free>
   14394:	e3000409 	movw	r0, #1033	; 0x409
   14398:	ea00002d 	b	14454 <USBStringGetLanguageID+0x268>
   1439c:	e30b03ac 	movw	r0, #45996	; 0xb3ac
   143a0:	e3400001 	movt	r0, #1
   143a4:	e30b12c0 	movw	r1, #45760	; 0xb2c0
   143a8:	e3401001 	movt	r1, #1
   143ac:	e3a020e4 	mov	r2, #228	; 0xe4
   143b0:	eb000ee1 	bl	17f3c <uspi_assertion_failed>
   143b4:	e5d43000 	ldrb	r3, [r4]
   143b8:	e3130001 	tst	r3, #1
   143bc:	0a000005 	beq	143d8 <USBStringGetLanguageID+0x1ec>
   143c0:	e30b03c8 	movw	r0, #46024	; 0xb3c8
   143c4:	e3400001 	movt	r0, #1
   143c8:	e30b12c0 	movw	r1, #45760	; 0xb2c0
   143cc:	e3401001 	movt	r1, #1
   143d0:	e3a020e5 	mov	r2, #229	; 0xe5
   143d4:	eb000ed8 	bl	17f3c <uspi_assertion_failed>
   143d8:	e5d41000 	ldrb	r1, [r4]
   143dc:	e2411002 	sub	r1, r1, #2
   143e0:	e0811fa1 	add	r1, r1, r1, lsr #31
   143e4:	e1b010c1 	asrs	r1, r1, #1
   143e8:	0a000011 	beq	14434 <USBStringGetLanguageID+0x248>
   143ec:	e1d420b2 	ldrh	r2, [r4, #2]
   143f0:	e3003409 	movw	r3, #1033	; 0x409
   143f4:	e1520003 	cmp	r2, r3
   143f8:	0a000006 	beq	14418 <USBStringGetLanguageID+0x22c>
   143fc:	e3a03000 	mov	r3, #0
   14400:	e3000409 	movw	r0, #1033	; 0x409
   14404:	ea000007 	b	14428 <USBStringGetLanguageID+0x23c>
   14408:	e0842083 	add	r2, r4, r3, lsl #1
   1440c:	e1d220b2 	ldrh	r2, [r2, #2]
   14410:	e1520000 	cmp	r2, r0
   14414:	1a000003 	bne	14428 <USBStringGetLanguageID+0x23c>
   14418:	e1a00004 	mov	r0, r4
   1441c:	eb00066c 	bl	15dd4 <free>
   14420:	e3000409 	movw	r0, #1033	; 0x409
   14424:	ea00000a 	b	14454 <USBStringGetLanguageID+0x268>
   14428:	e2833001 	add	r3, r3, #1
   1442c:	e1510003 	cmp	r1, r3
   14430:	1afffff4 	bne	14408 <USBStringGetLanguageID+0x21c>
   14434:	e1d450b2 	ldrh	r5, [r4, #2]
   14438:	e1a00004 	mov	r0, r4
   1443c:	eb000664 	bl	15dd4 <free>
   14440:	e1a00005 	mov	r0, r5
   14444:	ea000002 	b	14454 <USBStringGetLanguageID+0x268>
   14448:	e3530003 	cmp	r3, #3
   1444c:	9affffd2 	bls	1439c <USBStringGetLanguageID+0x1b0>
   14450:	eaffffe0 	b	143d8 <USBStringGetLanguageID+0x1ec>
   14454:	e28dd014 	add	sp, sp, #20
   14458:	e8bd80f0 	pop	{r4, r5, r6, r7, pc}

0001445c <USBConfigurationParser>:
   1445c:	e92d40f8 	push	{r3, r4, r5, r6, r7, lr}
   14460:	e1a05001 	mov	r5, r1
   14464:	e1a06002 	mov	r6, r2
   14468:	e2504000 	subs	r4, r0, #0
   1446c:	1a000005 	bne	14488 <USBConfigurationParser+0x2c>
   14470:	e3090ce4 	movw	r0, #40164	; 0x9ce4
   14474:	e3400001 	movt	r0, #1
   14478:	e30b13ec 	movw	r1, #46060	; 0xb3ec
   1447c:	e3401001 	movt	r1, #1
   14480:	e3a0201c 	mov	r2, #28
   14484:	eb000eac 	bl	17f3c <uspi_assertion_failed>
   14488:	e5845000 	str	r5, [r4]
   1448c:	e5846004 	str	r6, [r4, #4]
   14490:	e3a03000 	mov	r3, #0
   14494:	e5843008 	str	r3, [r4, #8]
   14498:	e0853006 	add	r3, r5, r6
   1449c:	e584300c 	str	r3, [r4, #12]
   144a0:	e5845010 	str	r5, [r4, #16]
   144a4:	e5845014 	str	r5, [r4, #20]
   144a8:	e3550000 	cmp	r5, #0
   144ac:	1a000005 	bne	144c8 <USBConfigurationParser+0x6c>
   144b0:	e30b0400 	movw	r0, #46080	; 0xb400
   144b4:	e3400001 	movt	r0, #1
   144b8:	e30b13ec 	movw	r1, #46060	; 0xb3ec
   144bc:	e3401001 	movt	r1, #1
   144c0:	e3a02024 	mov	r2, #36	; 0x24
   144c4:	eb000e9c 	bl	17f3c <uspi_assertion_failed>
   144c8:	e5943004 	ldr	r3, [r4, #4]
   144cc:	e2433004 	sub	r3, r3, #4
   144d0:	e3530f7f 	cmp	r3, #508	; 0x1fc
   144d4:	88bd80f8 	pophi	{r3, r4, r5, r6, r7, pc}
   144d8:	e5943000 	ldr	r3, [r4]
   144dc:	e5d32000 	ldrb	r2, [r3]
   144e0:	e3520009 	cmp	r2, #9
   144e4:	18bd80f8 	popne	{r3, r4, r5, r6, r7, pc}
   144e8:	e5d32001 	ldrb	r2, [r3, #1]
   144ec:	e3520002 	cmp	r2, #2
   144f0:	18bd80f8 	popne	{r3, r4, r5, r6, r7, pc}
   144f4:	e1d320b2 	ldrh	r2, [r3, #2]
   144f8:	e1560002 	cmp	r6, r2
   144fc:	38bd80f8 	popcc	{r3, r4, r5, r6, r7, pc}
   14500:	80832002 	addhi	r2, r3, r2
   14504:	8584200c 	strhi	r2, [r4, #12]
   14508:	e594e00c 	ldr	lr, [r4, #12]
   1450c:	e3a0c000 	mov	ip, #0
   14510:	e3a05009 	mov	r5, #9
   14514:	e3a07007 	mov	r7, #7
   14518:	e1a0600c 	mov	r6, ip
   1451c:	ea000025 	b	145b8 <USBConfigurationParser+0x15c>
   14520:	e5d31000 	ldrb	r1, [r3]
   14524:	e5d32001 	ldrb	r2, [r3, #1]
   14528:	e0830001 	add	r0, r3, r1
   1452c:	e15e0000 	cmp	lr, r0
   14530:	2a000001 	bcs	1453c <USBConfigurationParser+0xe0>
   14534:	e5843014 	str	r3, [r4, #20]
   14538:	e8bd80f8 	pop	{r3, r4, r5, r6, r7, pc}
   1453c:	e3520004 	cmp	r2, #4
   14540:	0a000008 	beq	14568 <USBConfigurationParser+0x10c>
   14544:	e3520005 	cmp	r2, #5
   14548:	0a00000a 	beq	14578 <USBConfigurationParser+0x11c>
   1454c:	e3520002 	cmp	r2, #2
   14550:	11a0c006 	movne	ip, r6
   14554:	1a000010 	bne	1459c <USBConfigurationParser+0x140>
   14558:	e35c0000 	cmp	ip, #0
   1455c:	0a000009 	beq	14588 <USBConfigurationParser+0x12c>
   14560:	e5843014 	str	r3, [r4, #20]
   14564:	e8bd80f8 	pop	{r3, r4, r5, r6, r7, pc}
   14568:	e35c0000 	cmp	ip, #0
   1456c:	1a000007 	bne	14590 <USBConfigurationParser+0x134>
   14570:	e5843014 	str	r3, [r4, #20]
   14574:	e8bd80f8 	pop	{r3, r4, r5, r6, r7, pc}
   14578:	e31c00fd 	tst	ip, #253	; 0xfd
   1457c:	1a000005 	bne	14598 <USBConfigurationParser+0x13c>
   14580:	e5843014 	str	r3, [r4, #20]
   14584:	e8bd80f8 	pop	{r3, r4, r5, r6, r7, pc}
   14588:	e1a0c005 	mov	ip, r5
   1458c:	ea000002 	b	1459c <USBConfigurationParser+0x140>
   14590:	e1a0c005 	mov	ip, r5
   14594:	ea000000 	b	1459c <USBConfigurationParser+0x140>
   14598:	e1a0c007 	mov	ip, r7
   1459c:	e151000c 	cmp	r1, ip
   145a0:	135c0000 	cmpne	ip, #0
   145a4:	0a000001 	beq	145b0 <USBConfigurationParser+0x154>
   145a8:	e5843014 	str	r3, [r4, #20]
   145ac:	e8bd80f8 	pop	{r3, r4, r5, r6, r7, pc}
   145b0:	e1a0c002 	mov	ip, r2
   145b4:	e1a03000 	mov	r3, r0
   145b8:	e2832002 	add	r2, r3, #2
   145bc:	e15e0002 	cmp	lr, r2
   145c0:	8affffd6 	bhi	14520 <USBConfigurationParser+0xc4>
   145c4:	e15e0003 	cmp	lr, r3
   145c8:	15843014 	strne	r3, [r4, #20]
   145cc:	03a03001 	moveq	r3, #1
   145d0:	05843008 	streq	r3, [r4, #8]
   145d4:	e8bd80f8 	pop	{r3, r4, r5, r6, r7, pc}

000145d8 <_USBConfigurationParser>:
   145d8:	e92d4010 	push	{r4, lr}
   145dc:	e2504000 	subs	r4, r0, #0
   145e0:	1a000005 	bne	145fc <_USBConfigurationParser+0x24>
   145e4:	e3090ce4 	movw	r0, #40164	; 0x9ce4
   145e8:	e3400001 	movt	r0, #1
   145ec:	e30b13ec 	movw	r1, #46060	; 0xb3ec
   145f0:	e3401001 	movt	r1, #1
   145f4:	e3a0207f 	mov	r2, #127	; 0x7f
   145f8:	eb000e4f 	bl	17f3c <uspi_assertion_failed>
   145fc:	e3a03000 	mov	r3, #0
   14600:	e5843000 	str	r3, [r4]
   14604:	e8bd8010 	pop	{r4, pc}

00014608 <USBConfigurationParserIsValid>:
   14608:	e92d4010 	push	{r4, lr}
   1460c:	e2504000 	subs	r4, r0, #0
   14610:	1a000005 	bne	1462c <USBConfigurationParserIsValid+0x24>
   14614:	e3090ce4 	movw	r0, #40164	; 0x9ce4
   14618:	e3400001 	movt	r0, #1
   1461c:	e30b13ec 	movw	r1, #46060	; 0xb3ec
   14620:	e3401001 	movt	r1, #1
   14624:	e3a02085 	mov	r2, #133	; 0x85
   14628:	eb000e43 	bl	17f3c <uspi_assertion_failed>
   1462c:	e5940008 	ldr	r0, [r4, #8]
   14630:	e8bd8010 	pop	{r4, pc}

00014634 <USBConfigurationParserGetDescriptor>:
   14634:	e92d47f0 	push	{r4, r5, r6, r7, r8, r9, sl, lr}
   14638:	e1a07001 	mov	r7, r1
   1463c:	e2506000 	subs	r6, r0, #0
   14640:	1a000005 	bne	1465c <USBConfigurationParserGetDescriptor+0x28>
   14644:	e3090ce4 	movw	r0, #40164	; 0x9ce4
   14648:	e3400001 	movt	r0, #1
   1464c:	e30b13ec 	movw	r1, #46060	; 0xb3ec
   14650:	e3401001 	movt	r1, #1
   14654:	e3a0208b 	mov	r2, #139	; 0x8b
   14658:	eb000e37 	bl	17f3c <uspi_assertion_failed>
   1465c:	e5963008 	ldr	r3, [r6, #8]
   14660:	e3530000 	cmp	r3, #0
   14664:	1a000005 	bne	14680 <USBConfigurationParserGetDescriptor+0x4c>
   14668:	e30a027c 	movw	r0, #41596	; 0xa27c
   1466c:	e3400001 	movt	r0, #1
   14670:	e30b13ec 	movw	r1, #46060	; 0xb3ec
   14674:	e3401001 	movt	r1, #1
   14678:	e3a0208c 	mov	r2, #140	; 0x8c
   1467c:	eb000e2e 	bl	17f3c <uspi_assertion_failed>
   14680:	e5963010 	ldr	r3, [r6, #16]
   14684:	e596200c 	ldr	r2, [r6, #12]
   14688:	e1530002 	cmp	r3, r2
   1468c:	2a00001f 	bcs	14710 <USBConfigurationParserGetDescriptor+0xdc>
   14690:	e30b9418 	movw	r9, #46104	; 0xb418
   14694:	e3409001 	movt	r9, #1
   14698:	e30b83ec 	movw	r8, #46060	; 0xb3ec
   1469c:	e3408001 	movt	r8, #1
   146a0:	e3a0a096 	mov	sl, #150	; 0x96
   146a4:	e5d35001 	ldrb	r5, [r3, #1]
   146a8:	e5d34000 	ldrb	r4, [r3]
   146ac:	e0834004 	add	r4, r3, r4
   146b0:	e1540002 	cmp	r4, r2
   146b4:	9a000003 	bls	146c8 <USBConfigurationParserGetDescriptor+0x94>
   146b8:	e1a00009 	mov	r0, r9
   146bc:	e1a01008 	mov	r1, r8
   146c0:	e1a0200a 	mov	r2, sl
   146c4:	eb000e1c 	bl	17f3c <uspi_assertion_failed>
   146c8:	e3570005 	cmp	r7, #5
   146cc:	03550004 	cmpeq	r5, #4
   146d0:	0a00000e 	beq	14710 <USBConfigurationParserGetDescriptor+0xdc>
   146d4:	e1550007 	cmp	r5, r7
   146d8:	1a000004 	bne	146f0 <USBConfigurationParserGetDescriptor+0xbc>
   146dc:	e5960010 	ldr	r0, [r6, #16]
   146e0:	e5864010 	str	r4, [r6, #16]
   146e4:	e3500000 	cmp	r0, #0
   146e8:	1a000006 	bne	14708 <USBConfigurationParserGetDescriptor+0xd4>
   146ec:	e8bd87f0 	pop	{r4, r5, r6, r7, r8, r9, sl, pc}
   146f0:	e5864010 	str	r4, [r6, #16]
   146f4:	e596200c 	ldr	r2, [r6, #12]
   146f8:	e1a03004 	mov	r3, r4
   146fc:	e1520004 	cmp	r2, r4
   14700:	8affffe7 	bhi	146a4 <USBConfigurationParserGetDescriptor+0x70>
   14704:	ea000001 	b	14710 <USBConfigurationParserGetDescriptor+0xdc>
   14708:	e5860014 	str	r0, [r6, #20]
   1470c:	e8bd87f0 	pop	{r4, r5, r6, r7, r8, r9, sl, pc}
   14710:	e3a00000 	mov	r0, #0
   14714:	e8bd87f0 	pop	{r4, r5, r6, r7, r8, r9, sl, pc}

00014718 <USBConfigurationParserError>:
   14718:	e92d4038 	push	{r3, r4, r5, lr}
   1471c:	e1a05001 	mov	r5, r1
   14720:	e2504000 	subs	r4, r0, #0
   14724:	1a000005 	bne	14740 <USBConfigurationParserError+0x28>
   14728:	e3090ce4 	movw	r0, #40164	; 0x9ce4
   1472c:	e3400001 	movt	r0, #1
   14730:	e30b13ec 	movw	r1, #46060	; 0xb3ec
   14734:	e3401001 	movt	r1, #1
   14738:	e3a020b3 	mov	r2, #179	; 0xb3
   1473c:	eb000dfe 	bl	17f3c <uspi_assertion_failed>
   14740:	e3550000 	cmp	r5, #0
   14744:	1a000005 	bne	14760 <USBConfigurationParserError+0x48>
   14748:	e30b043c 	movw	r0, #46140	; 0xb43c
   1474c:	e3400001 	movt	r0, #1
   14750:	e30b13ec 	movw	r1, #46060	; 0xb3ec
   14754:	e3401001 	movt	r1, #1
   14758:	e3a020b4 	mov	r2, #180	; 0xb4
   1475c:	eb000df6 	bl	17f3c <uspi_assertion_failed>
   14760:	e594c014 	ldr	ip, [r4, #20]
   14764:	e5943000 	ldr	r3, [r4]
   14768:	e1a00005 	mov	r0, r5
   1476c:	e3a01001 	mov	r1, #1
   14770:	e30b244c 	movw	r2, #46156	; 0xb44c
   14774:	e3402001 	movt	r2, #1
   14778:	e063300c 	rsb	r3, r3, ip
   1477c:	eb000ddc 	bl	17ef4 <LogWrite>
   14780:	e5940000 	ldr	r0, [r4]
   14784:	e5941004 	ldr	r1, [r4, #4]
   14788:	e1a02005 	mov	r2, r5
   1478c:	eb000ded 	bl	17f48 <DebugHexdump>
   14790:	e8bd8038 	pop	{r3, r4, r5, pc}

00014794 <GetDevice>:
   14794:	e92d4070 	push	{r4, r5, r6, lr}
   14798:	e1a04001 	mov	r4, r1
   1479c:	e2506000 	subs	r6, r0, #0
   147a0:	1a000005 	bne	147bc <GetDevice+0x28>
   147a4:	e30b02e4 	movw	r0, #45796	; 0xb2e4
   147a8:	e3400001 	movt	r0, #1
   147ac:	e30b147c 	movw	r1, #46204	; 0xb47c
   147b0:	e3401001 	movt	r1, #1
   147b4:	e3a02035 	mov	r2, #53	; 0x35
   147b8:	eb000ddf 	bl	17f3c <uspi_assertion_failed>
   147bc:	e3540000 	cmp	r4, #0
   147c0:	1a000005 	bne	147dc <GetDevice+0x48>
   147c4:	e30a0a00 	movw	r0, #43520	; 0xaa00
   147c8:	e3400001 	movt	r0, #1
   147cc:	e30b147c 	movw	r1, #46204	; 0xb47c
   147d0:	e3401001 	movt	r1, #1
   147d4:	e3a02036 	mov	r2, #54	; 0x36
   147d8:	eb000dd7 	bl	17f3c <uspi_assertion_failed>
   147dc:	e1a00004 	mov	r0, r4
   147e0:	e30b1490 	movw	r1, #46224	; 0xb490
   147e4:	e3401001 	movt	r1, #1
   147e8:	ebffec7f 	bl	f9ec <StringCompare>
   147ec:	e3500000 	cmp	r0, #0
   147f0:	1a00000d 	bne	1482c <GetDevice+0x98>
   147f4:	e3a00084 	mov	r0, #132	; 0x84
   147f8:	eb000519 	bl	15c64 <malloc>
   147fc:	e2505000 	subs	r5, r0, #0
   14800:	1a000005 	bne	1481c <GetDevice+0x88>
   14804:	e30a0550 	movw	r0, #42320	; 0xa550
   14808:	e3400001 	movt	r0, #1
   1480c:	e30b147c 	movw	r1, #46204	; 0xb47c
   14810:	e3401001 	movt	r1, #1
   14814:	e3a0203d 	mov	r2, #61	; 0x3d
   14818:	eb000dc7 	bl	17f3c <uspi_assertion_failed>
   1481c:	e1a00005 	mov	r0, r5
   14820:	e1a01006 	mov	r1, r6
   14824:	eb000098 	bl	14a8c <USBStandardHub>
   14828:	ea000063 	b	149bc <GetDevice+0x228>
   1482c:	e1a00004 	mov	r0, r4
   14830:	e30b149c 	movw	r1, #46236	; 0xb49c
   14834:	e3401001 	movt	r1, #1
   14838:	ebffec6b 	bl	f9ec <StringCompare>
   1483c:	e3500000 	cmp	r0, #0
   14840:	1a00000d 	bne	1487c <GetDevice+0xe8>
   14844:	e3a00058 	mov	r0, #88	; 0x58
   14848:	eb000505 	bl	15c64 <malloc>
   1484c:	e2505000 	subs	r5, r0, #0
   14850:	1a000005 	bne	1486c <GetDevice+0xd8>
   14854:	e30a0550 	movw	r0, #42320	; 0xa550
   14858:	e3400001 	movt	r0, #1
   1485c:	e30b147c 	movw	r1, #46204	; 0xb47c
   14860:	e3401001 	movt	r1, #1
   14864:	e3a02044 	mov	r2, #68	; 0x44
   14868:	eb000db3 	bl	17f3c <uspi_assertion_failed>
   1486c:	e1a00005 	mov	r0, r5
   14870:	e1a01006 	mov	r1, r6
   14874:	ebffef1b 	bl	104e8 <USBBulkOnlyMassStorageDevice>
   14878:	ea00004f 	b	149bc <GetDevice+0x228>
   1487c:	e1a00004 	mov	r0, r4
   14880:	e30b14a8 	movw	r1, #46248	; 0xb4a8
   14884:	e3401001 	movt	r1, #1
   14888:	ebffec57 	bl	f9ec <StringCompare>
   1488c:	e3500000 	cmp	r0, #0
   14890:	1a00000d 	bne	148cc <GetDevice+0x138>
   14894:	e3a00e1f 	mov	r0, #496	; 0x1f0
   14898:	eb0004f1 	bl	15c64 <malloc>
   1489c:	e2505000 	subs	r5, r0, #0
   148a0:	1a000005 	bne	148bc <GetDevice+0x128>
   148a4:	e30a0550 	movw	r0, #42320	; 0xa550
   148a8:	e3400001 	movt	r0, #1
   148ac:	e30b147c 	movw	r1, #46204	; 0xb47c
   148b0:	e3401001 	movt	r1, #1
   148b4:	e3a0204b 	mov	r2, #75	; 0x4b
   148b8:	eb000d9f 	bl	17f3c <uspi_assertion_failed>
   148bc:	e1a00005 	mov	r0, r5
   148c0:	e1a01006 	mov	r1, r6
   148c4:	ebfff5b7 	bl	11fa8 <USBKeyboardDevice>
   148c8:	ea00003b 	b	149bc <GetDevice+0x228>
   148cc:	e1a00004 	mov	r0, r4
   148d0:	e30b14b4 	movw	r1, #46260	; 0xb4b4
   148d4:	e3401001 	movt	r1, #1
   148d8:	ebffec43 	bl	f9ec <StringCompare>
   148dc:	e3500000 	cmp	r0, #0
   148e0:	1a00000d 	bne	1491c <GetDevice+0x188>
   148e4:	e3a00050 	mov	r0, #80	; 0x50
   148e8:	eb0004dd 	bl	15c64 <malloc>
   148ec:	e2505000 	subs	r5, r0, #0
   148f0:	1a000005 	bne	1490c <GetDevice+0x178>
   148f4:	e30a0550 	movw	r0, #42320	; 0xa550
   148f8:	e3400001 	movt	r0, #1
   148fc:	e30b147c 	movw	r1, #46204	; 0xb47c
   14900:	e3401001 	movt	r1, #1
   14904:	e3a02052 	mov	r2, #82	; 0x52
   14908:	eb000d8b 	bl	17f3c <uspi_assertion_failed>
   1490c:	e1a00005 	mov	r0, r5
   14910:	e1a01006 	mov	r1, r6
   14914:	ebfff848 	bl	12a3c <USBMouseDevice>
   14918:	ea000027 	b	149bc <GetDevice+0x228>
   1491c:	e1a00004 	mov	r0, r4
   14920:	e30b14c0 	movw	r1, #46272	; 0xb4c0
   14924:	e3401001 	movt	r1, #1
   14928:	ebffec2f 	bl	f9ec <StringCompare>
   1492c:	e3500000 	cmp	r0, #0
   14930:	1a00000d 	bne	1496c <GetDevice+0x1d8>
   14934:	e3a00054 	mov	r0, #84	; 0x54
   14938:	eb0004c9 	bl	15c64 <malloc>
   1493c:	e2505000 	subs	r5, r0, #0
   14940:	1a000005 	bne	1495c <GetDevice+0x1c8>
   14944:	e30a0550 	movw	r0, #42320	; 0xa550
   14948:	e3400001 	movt	r0, #1
   1494c:	e30b147c 	movw	r1, #46204	; 0xb47c
   14950:	e3401001 	movt	r1, #1
   14954:	e3a02059 	mov	r2, #89	; 0x59
   14958:	eb000d77 	bl	17f3c <uspi_assertion_failed>
   1495c:	e1a00005 	mov	r0, r5
   14960:	e1a01006 	mov	r1, r6
   14964:	ebffe8bd 	bl	ec60 <SMSC951xDevice>
   14968:	ea000013 	b	149bc <GetDevice+0x228>
   1496c:	e1a00004 	mov	r0, r4
   14970:	e30b14cc 	movw	r1, #46284	; 0xb4cc
   14974:	e3401001 	movt	r1, #1
   14978:	ebffec1b 	bl	f9ec <StringCompare>
   1497c:	e3500000 	cmp	r0, #0
   14980:	13a05000 	movne	r5, #0
   14984:	1a000018 	bne	149ec <GetDevice+0x258>
   14988:	e3a000d4 	mov	r0, #212	; 0xd4
   1498c:	eb0004b4 	bl	15c64 <malloc>
   14990:	e2505000 	subs	r5, r0, #0
   14994:	1a000005 	bne	149b0 <GetDevice+0x21c>
   14998:	e30a0550 	movw	r0, #42320	; 0xa550
   1499c:	e3400001 	movt	r0, #1
   149a0:	e30b147c 	movw	r1, #46204	; 0xb47c
   149a4:	e3401001 	movt	r1, #1
   149a8:	e3a02060 	mov	r2, #96	; 0x60
   149ac:	eb000d62 	bl	17f3c <uspi_assertion_failed>
   149b0:	e1a00005 	mov	r0, r5
   149b4:	e1a01006 	mov	r1, r6
   149b8:	ebfffbe7 	bl	1395c <USBGamePadDevice>
   149bc:	e3550000 	cmp	r5, #0
   149c0:	0a000009 	beq	149ec <GetDevice+0x258>
   149c4:	e1a00004 	mov	r0, r4
   149c8:	ebffeba8 	bl	f870 <StringGet>
   149cc:	e1a03000 	mov	r3, r0
   149d0:	e30b04d8 	movw	r0, #46296	; 0xb4d8
   149d4:	e3400001 	movt	r0, #1
   149d8:	e3a01003 	mov	r1, #3
   149dc:	e30b24e0 	movw	r2, #46304	; 0xb4e0
   149e0:	e3402001 	movt	r2, #1
   149e4:	eb000d42 	bl	17ef4 <LogWrite>
   149e8:	eaffffff 	b	149ec <GetDevice+0x258>
   149ec:	e1a00004 	mov	r0, r4
   149f0:	ebffeb8e 	bl	f830 <_String>
   149f4:	e1a00004 	mov	r0, r4
   149f8:	eb0004f5 	bl	15dd4 <free>
   149fc:	e1a00005 	mov	r0, r5
   14a00:	e8bd8070 	pop	{r4, r5, r6, pc}

00014a04 <USBDeviceFactoryGetDevice>:
   14a04:	e92d4010 	push	{r4, lr}
   14a08:	e2504000 	subs	r4, r0, #0
   14a0c:	1a000005 	bne	14a28 <USBDeviceFactoryGetDevice+0x24>
   14a10:	e30b02e4 	movw	r0, #45796	; 0xb2e4
   14a14:	e3400001 	movt	r0, #1
   14a18:	e30b147c 	movw	r1, #46204	; 0xb47c
   14a1c:	e3401001 	movt	r1, #1
   14a20:	e3a02024 	mov	r2, #36	; 0x24
   14a24:	eb000d44 	bl	17f3c <uspi_assertion_failed>
   14a28:	e1a00004 	mov	r0, r4
   14a2c:	e3a01000 	mov	r1, #0
   14a30:	ebffe1ed 	bl	d1ec <USBDeviceGetName>
   14a34:	e1a01000 	mov	r1, r0
   14a38:	e1a00004 	mov	r0, r4
   14a3c:	ebffff54 	bl	14794 <GetDevice>
   14a40:	e3500000 	cmp	r0, #0
   14a44:	18bd8010 	popne	{r4, pc}
   14a48:	e1a00004 	mov	r0, r4
   14a4c:	e3a01001 	mov	r1, #1
   14a50:	ebffe1e5 	bl	d1ec <USBDeviceGetName>
   14a54:	e1a01000 	mov	r1, r0
   14a58:	e1a00004 	mov	r0, r4
   14a5c:	ebffff4c 	bl	14794 <GetDevice>
   14a60:	e3500000 	cmp	r0, #0
   14a64:	18bd8010 	popne	{r4, pc}
   14a68:	e1a00004 	mov	r0, r4
   14a6c:	e3a01002 	mov	r1, #2
   14a70:	ebffe1dd 	bl	d1ec <USBDeviceGetName>
   14a74:	e1a01000 	mov	r1, r0
   14a78:	e1a00004 	mov	r0, r4
   14a7c:	ebffff44 	bl	14794 <GetDevice>
   14a80:	e3500000 	cmp	r0, #0
   14a84:	03a00000 	moveq	r0, #0
   14a88:	e8bd8010 	pop	{r4, pc}

00014a8c <USBStandardHub>:
   14a8c:	e92d4038 	push	{r3, r4, r5, lr}
   14a90:	e1a05001 	mov	r5, r1
   14a94:	e2504000 	subs	r4, r0, #0
   14a98:	1a000005 	bne	14ab4 <USBStandardHub+0x28>
   14a9c:	e3090ce4 	movw	r0, #40164	; 0x9ce4
   14aa0:	e3400001 	movt	r0, #1
   14aa4:	e30b14f8 	movw	r1, #46328	; 0xb4f8
   14aa8:	e3401001 	movt	r1, #1
   14aac:	e3a02020 	mov	r2, #32
   14ab0:	eb000d21 	bl	17f3c <uspi_assertion_failed>
   14ab4:	e1a00004 	mov	r0, r4
   14ab8:	e1a01005 	mov	r1, r5
   14abc:	ebffe125 	bl	cf58 <USBDeviceCopy>
   14ac0:	e3053498 	movw	r3, #21656	; 0x5498
   14ac4:	e3403001 	movt	r3, #1
   14ac8:	e5843000 	str	r3, [r4]
   14acc:	e3a02000 	mov	r2, #0
   14ad0:	e584203c 	str	r2, [r4, #60]	; 0x3c
   14ad4:	e1a03004 	mov	r3, r4
   14ad8:	e5a32040 	str	r2, [r3, #64]!	; 0x40
   14adc:	e2840060 	add	r0, r4, #96	; 0x60
   14ae0:	e1a01000 	mov	r1, r0
   14ae4:	e5a32004 	str	r2, [r3, #4]!
   14ae8:	e5a12004 	str	r2, [r1, #4]!
   14aec:	e1530000 	cmp	r3, r0
   14af0:	1afffffb 	bne	14ae4 <USBStandardHub+0x58>
   14af4:	e8bd8038 	pop	{r3, r4, r5, pc}

00014af8 <_USBStandardHub>:
   14af8:	e92d41f0 	push	{r4, r5, r6, r7, r8, lr}
   14afc:	e2507000 	subs	r7, r0, #0
   14b00:	1a000005 	bne	14b1c <_USBStandardHub+0x24>
   14b04:	e3090ce4 	movw	r0, #40164	; 0x9ce4
   14b08:	e3400001 	movt	r0, #1
   14b0c:	e30b14f8 	movw	r1, #46328	; 0xb4f8
   14b10:	e3401001 	movt	r1, #1
   14b14:	e3a02031 	mov	r2, #49	; 0x31
   14b18:	eb000d07 	bl	17f3c <uspi_assertion_failed>
   14b1c:	e5973040 	ldr	r3, [r7, #64]	; 0x40
   14b20:	e3530000 	cmp	r3, #0
   14b24:	0a000013 	beq	14b78 <_USBStandardHub+0x80>
   14b28:	e2876060 	add	r6, r7, #96	; 0x60
   14b2c:	e2874040 	add	r4, r7, #64	; 0x40
   14b30:	e3a05000 	mov	r5, #0
   14b34:	e1a08005 	mov	r8, r5
   14b38:	e5b60004 	ldr	r0, [r6, #4]!
   14b3c:	e3500000 	cmp	r0, #0
   14b40:	0a000001 	beq	14b4c <_USBStandardHub+0x54>
   14b44:	eb0004a2 	bl	15dd4 <free>
   14b48:	e5868000 	str	r8, [r6]
   14b4c:	e5b40004 	ldr	r0, [r4, #4]!
   14b50:	e3500000 	cmp	r0, #0
   14b54:	0a000003 	beq	14b68 <_USBStandardHub+0x70>
   14b58:	ebffe176 	bl	d138 <_USBDevice>
   14b5c:	e5940000 	ldr	r0, [r4]
   14b60:	eb00049b 	bl	15dd4 <free>
   14b64:	e5848000 	str	r8, [r4]
   14b68:	e2855001 	add	r5, r5, #1
   14b6c:	e5973040 	ldr	r3, [r7, #64]	; 0x40
   14b70:	e1530005 	cmp	r3, r5
   14b74:	8affffef 	bhi	14b38 <_USBStandardHub+0x40>
   14b78:	e3a03000 	mov	r3, #0
   14b7c:	e5873040 	str	r3, [r7, #64]	; 0x40
   14b80:	e597003c 	ldr	r0, [r7, #60]	; 0x3c
   14b84:	e1500003 	cmp	r0, r3
   14b88:	0a000002 	beq	14b98 <_USBStandardHub+0xa0>
   14b8c:	eb000490 	bl	15dd4 <free>
   14b90:	e3a03000 	mov	r3, #0
   14b94:	e587303c 	str	r3, [r7, #60]	; 0x3c
   14b98:	e1a00007 	mov	r0, r7
   14b9c:	ebffe165 	bl	d138 <_USBDevice>
   14ba0:	e8bd81f0 	pop	{r4, r5, r6, r7, r8, pc}

00014ba4 <USBStandardHubInitialize>:
   14ba4:	e92d4010 	push	{r4, lr}
   14ba8:	e2504000 	subs	r4, r0, #0
   14bac:	1a000005 	bne	14bc8 <USBStandardHubInitialize+0x24>
   14bb0:	e3090ce4 	movw	r0, #40164	; 0x9ce4
   14bb4:	e3400001 	movt	r0, #1
   14bb8:	e30b14f8 	movw	r1, #46328	; 0xb4f8
   14bbc:	e3401001 	movt	r1, #1
   14bc0:	e3a02050 	mov	r2, #80	; 0x50
   14bc4:	eb000cdc 	bl	17f3c <uspi_assertion_failed>
   14bc8:	e1a00004 	mov	r0, r4
   14bcc:	ebffe2af 	bl	d690 <USBDeviceInitialize>
   14bd0:	e8bd8010 	pop	{r4, pc}

00014bd4 <USBStandardHubGetDeviceNames>:
   14bd4:	e92d47f0 	push	{r4, r5, r6, r7, r8, r9, sl, lr}
   14bd8:	e2508000 	subs	r8, r0, #0
   14bdc:	1a000005 	bne	14bf8 <USBStandardHubGetDeviceNames+0x24>
   14be0:	e30a0550 	movw	r0, #42320	; 0xa550
   14be4:	e3400001 	movt	r0, #1
   14be8:	e30b14f8 	movw	r1, #46328	; 0xb4f8
   14bec:	e3401001 	movt	r1, #1
   14bf0:	e30021ba 	movw	r2, #442	; 0x1ba
   14bf4:	eb000cd0 	bl	17f3c <uspi_assertion_failed>
   14bf8:	e3a0000c 	mov	r0, #12
   14bfc:	eb000418 	bl	15c64 <malloc>
   14c00:	e2506000 	subs	r6, r0, #0
   14c04:	1a000005 	bne	14c20 <USBStandardHubGetDeviceNames+0x4c>
   14c08:	e30b050c 	movw	r0, #46348	; 0xb50c
   14c0c:	e3400001 	movt	r0, #1
   14c10:	e30b14f8 	movw	r1, #46328	; 0xb4f8
   14c14:	e3401001 	movt	r1, #1
   14c18:	e30021bd 	movw	r2, #445	; 0x1bd
   14c1c:	eb000cc6 	bl	17f3c <uspi_assertion_failed>
   14c20:	e1a00006 	mov	r0, r6
   14c24:	ebffeae1 	bl	f7b0 <String>
   14c28:	e3a04000 	mov	r4, #0
   14c2c:	e30aaa00 	movw	sl, #43520	; 0xaa00
   14c30:	e340a001 	movt	sl, #1
   14c34:	e30b94f8 	movw	r9, #46328	; 0xb4f8
   14c38:	e3409001 	movt	r9, #1
   14c3c:	e30a7620 	movw	r7, #42528	; 0xa620
   14c40:	e3407001 	movt	r7, #1
   14c44:	e1a00008 	mov	r0, r8
   14c48:	e1a01004 	mov	r1, r4
   14c4c:	ebffe166 	bl	d1ec <USBDeviceGetName>
   14c50:	e2505000 	subs	r5, r0, #0
   14c54:	1a000003 	bne	14c68 <USBStandardHubGetDeviceNames+0x94>
   14c58:	e1a0000a 	mov	r0, sl
   14c5c:	e1a01009 	mov	r1, r9
   14c60:	e30021c3 	movw	r2, #451	; 0x1c3
   14c64:	eb000cb4 	bl	17f3c <uspi_assertion_failed>
   14c68:	e1a00005 	mov	r0, r5
   14c6c:	e1a01007 	mov	r1, r7
   14c70:	ebffeb5d 	bl	f9ec <StringCompare>
   14c74:	e3500000 	cmp	r0, #0
   14c78:	0a00000c 	beq	14cb0 <USBStandardHubGetDeviceNames+0xdc>
   14c7c:	e1a00006 	mov	r0, r6
   14c80:	ebffeb21 	bl	f90c <StringGetLength>
   14c84:	e3500000 	cmp	r0, #0
   14c88:	0a000003 	beq	14c9c <USBStandardHubGetDeviceNames+0xc8>
   14c8c:	e1a00006 	mov	r0, r6
   14c90:	e30b151c 	movw	r1, #46364	; 0xb51c
   14c94:	e3401001 	movt	r1, #1
   14c98:	ebffeb2b 	bl	f94c <StringAppend>
   14c9c:	e1a00005 	mov	r0, r5
   14ca0:	ebffeaf2 	bl	f870 <StringGet>
   14ca4:	e1a01000 	mov	r1, r0
   14ca8:	e1a00006 	mov	r0, r6
   14cac:	ebffeb26 	bl	f94c <StringAppend>
   14cb0:	e1a00005 	mov	r0, r5
   14cb4:	ebffeadd 	bl	f830 <_String>
   14cb8:	e1a00005 	mov	r0, r5
   14cbc:	eb000444 	bl	15dd4 <free>
   14cc0:	e2844001 	add	r4, r4, #1
   14cc4:	e3540003 	cmp	r4, #3
   14cc8:	1affffdd 	bne	14c44 <USBStandardHubGetDeviceNames+0x70>
   14ccc:	e1a00006 	mov	r0, r6
   14cd0:	ebffeb0d 	bl	f90c <StringGetLength>
   14cd4:	e3500000 	cmp	r0, #0
   14cd8:	1a000003 	bne	14cec <USBStandardHubGetDeviceNames+0x118>
   14cdc:	e1a00006 	mov	r0, r6
   14ce0:	e30a1620 	movw	r1, #42528	; 0xa620
   14ce4:	e3401001 	movt	r1, #1
   14ce8:	ebffeaef 	bl	f8ac <StringSet>
   14cec:	e1a00006 	mov	r0, r6
   14cf0:	e8bd87f0 	pop	{r4, r5, r6, r7, r8, r9, sl, pc}

00014cf4 <USBStandardHubEnumeratePorts>:
   14cf4:	e92d4ff0 	push	{r4, r5, r6, r7, r8, r9, sl, fp, lr}
   14cf8:	e24dd02c 	sub	sp, sp, #44	; 0x2c
   14cfc:	e2504000 	subs	r4, r0, #0
   14d00:	1a000005 	bne	14d1c <USBStandardHubEnumeratePorts+0x28>
   14d04:	e3090ce4 	movw	r0, #40164	; 0x9ce4
   14d08:	e3400001 	movt	r0, #1
   14d0c:	e30b14f8 	movw	r1, #46328	; 0xb4f8
   14d10:	e3401001 	movt	r1, #1
   14d14:	e3a020db 	mov	r2, #219	; 0xdb
   14d18:	eb000c87 	bl	17f3c <uspi_assertion_failed>
   14d1c:	e58d4020 	str	r4, [sp, #32]
   14d20:	e1a00004 	mov	r0, r4
   14d24:	ebffe1db 	bl	d498 <USBDeviceGetHost>
   14d28:	e250b000 	subs	fp, r0, #0
   14d2c:	1a000005 	bne	14d48 <USBStandardHubEnumeratePorts+0x54>
   14d30:	e30a0d54 	movw	r0, #44372	; 0xad54
   14d34:	e3400001 	movt	r0, #1
   14d38:	e30b14f8 	movw	r1, #46328	; 0xb4f8
   14d3c:	e3401001 	movt	r1, #1
   14d40:	e3a020de 	mov	r2, #222	; 0xde
   14d44:	eb000c7c 	bl	17f3c <uspi_assertion_failed>
   14d48:	e1a00004 	mov	r0, r4
   14d4c:	ebffe1bd 	bl	d448 <USBDeviceGetEndpoint0>
   14d50:	e2503000 	subs	r3, r0, #0
   14d54:	e58d3014 	str	r3, [sp, #20]
   14d58:	1a000005 	bne	14d74 <USBStandardHubEnumeratePorts+0x80>
   14d5c:	e30b0520 	movw	r0, #46368	; 0xb520
   14d60:	e3400001 	movt	r0, #1
   14d64:	e30b14f8 	movw	r1, #46328	; 0xb4f8
   14d68:	e3401001 	movt	r1, #1
   14d6c:	e3a020e1 	mov	r2, #225	; 0xe1
   14d70:	eb000c71 	bl	17f3c <uspi_assertion_failed>
   14d74:	e5943040 	ldr	r3, [r4, #64]	; 0x40
   14d78:	e3530000 	cmp	r3, #0
   14d7c:	1a000008 	bne	14da4 <USBStandardHubEnumeratePorts+0xb0>
   14d80:	e30b0530 	movw	r0, #46384	; 0xb530
   14d84:	e3400001 	movt	r0, #1
   14d88:	e30b14f8 	movw	r1, #46328	; 0xb4f8
   14d8c:	e3401001 	movt	r1, #1
   14d90:	e3a020e3 	mov	r2, #227	; 0xe3
   14d94:	eb000c68 	bl	17f3c <uspi_assertion_failed>
   14d98:	e5943040 	ldr	r3, [r4, #64]	; 0x40
   14d9c:	e3530000 	cmp	r3, #0
   14da0:	0a00001d 	beq	14e1c <USBStandardHubEnumeratePorts+0x128>
   14da4:	e3a05000 	mov	r5, #0
   14da8:	e3a08008 	mov	r8, #8
   14dac:	e1a06005 	mov	r6, r5
   14db0:	e3a07023 	mov	r7, #35	; 0x23
   14db4:	e58d8000 	str	r8, [sp]
   14db8:	e2853001 	add	r3, r5, #1
   14dbc:	e6ff3073 	uxth	r3, r3
   14dc0:	e58d3004 	str	r3, [sp, #4]
   14dc4:	e58d6008 	str	r6, [sp, #8]
   14dc8:	e58d600c 	str	r6, [sp, #12]
   14dcc:	e1a0000b 	mov	r0, fp
   14dd0:	e59d1014 	ldr	r1, [sp, #20]
   14dd4:	e1a02007 	mov	r2, r7
   14dd8:	e3a03003 	mov	r3, #3
   14ddc:	ebffd560 	bl	a364 <DWHCIDeviceControlMessage>
   14de0:	e3500000 	cmp	r0, #0
   14de4:	aa000008 	bge	14e0c <USBStandardHubEnumeratePorts+0x118>
   14de8:	e30b04f0 	movw	r0, #46320	; 0xb4f0
   14dec:	e3400001 	movt	r0, #1
   14df0:	e3a01001 	mov	r1, #1
   14df4:	e30b2544 	movw	r2, #46404	; 0xb544
   14df8:	e3402001 	movt	r2, #1
   14dfc:	e0853001 	add	r3, r5, r1
   14e00:	eb000c3b 	bl	17ef4 <LogWrite>
   14e04:	e3a00000 	mov	r0, #0
   14e08:	ea0001a0 	b	15490 <USBStandardHubEnumeratePorts+0x79c>
   14e0c:	e2855001 	add	r5, r5, #1
   14e10:	e5943040 	ldr	r3, [r4, #64]	; 0x40
   14e14:	e1530005 	cmp	r3, r5
   14e18:	8affffe5 	bhi	14db4 <USBStandardHubEnumeratePorts+0xc0>
   14e1c:	e30001fe 	movw	r0, #510	; 0x1fe
   14e20:	eb000bce 	bl	17d60 <MsDelay>
   14e24:	e5943040 	ldr	r3, [r4, #64]	; 0x40
   14e28:	e3530000 	cmp	r3, #0
   14e2c:	0a000113 	beq	15280 <USBStandardHubEnumeratePorts+0x58c>
   14e30:	e2847060 	add	r7, r4, #96	; 0x60
   14e34:	e2849044 	add	r9, r4, #68	; 0x44
   14e38:	e3a05001 	mov	r5, #1
   14e3c:	e30b355c 	movw	r3, #46428	; 0xb55c
   14e40:	e3403001 	movt	r3, #1
   14e44:	e58d301c 	str	r3, [sp, #28]
   14e48:	e30b34f8 	movw	r3, #46328	; 0xb4f8
   14e4c:	e3403001 	movt	r3, #1
   14e50:	e58d3018 	str	r3, [sp, #24]
   14e54:	e30b357c 	movw	r3, #46460	; 0xb57c
   14e58:	e3403001 	movt	r3, #1
   14e5c:	e58d3024 	str	r3, [sp, #36]	; 0x24
   14e60:	ea000000 	b	14e68 <USBStandardHubEnumeratePorts+0x174>
   14e64:	e1a05002 	mov	r5, r2
   14e68:	e245a001 	sub	sl, r5, #1
   14e6c:	e2877004 	add	r7, r7, #4
   14e70:	e1a06007 	mov	r6, r7
   14e74:	e5973000 	ldr	r3, [r7]
   14e78:	e3530000 	cmp	r3, #0
   14e7c:	0a000003 	beq	14e90 <USBStandardHubEnumeratePorts+0x19c>
   14e80:	e59d001c 	ldr	r0, [sp, #28]
   14e84:	e59d1018 	ldr	r1, [sp, #24]
   14e88:	e3a020f9 	mov	r2, #249	; 0xf9
   14e8c:	eb000c2a 	bl	17f3c <uspi_assertion_failed>
   14e90:	e3a00004 	mov	r0, #4
   14e94:	eb000372 	bl	15c64 <malloc>
   14e98:	e5860000 	str	r0, [r6]
   14e9c:	e3500000 	cmp	r0, #0
   14ea0:	1a000003 	bne	14eb4 <USBStandardHubEnumeratePorts+0x1c0>
   14ea4:	e59d0024 	ldr	r0, [sp, #36]	; 0x24
   14ea8:	e59d1018 	ldr	r1, [sp, #24]
   14eac:	e3a020fb 	mov	r2, #251	; 0xfb
   14eb0:	eb000c21 	bl	17f3c <uspi_assertion_failed>
   14eb4:	e6ff8075 	uxth	r8, r5
   14eb8:	e3a03000 	mov	r3, #0
   14ebc:	e58d3000 	str	r3, [sp]
   14ec0:	e58d8004 	str	r8, [sp, #4]
   14ec4:	e5962000 	ldr	r2, [r6]
   14ec8:	e58d2008 	str	r2, [sp, #8]
   14ecc:	e3a02004 	mov	r2, #4
   14ed0:	e58d200c 	str	r2, [sp, #12]
   14ed4:	e1a0000b 	mov	r0, fp
   14ed8:	e59d1014 	ldr	r1, [sp, #20]
   14edc:	e3a020a3 	mov	r2, #163	; 0xa3
   14ee0:	ebffd51f 	bl	a364 <DWHCIDeviceControlMessage>
   14ee4:	e3500004 	cmp	r0, #4
   14ee8:	0a000007 	beq	14f0c <USBStandardHubEnumeratePorts+0x218>
   14eec:	e30b04f0 	movw	r0, #46320	; 0xb4f0
   14ef0:	e3400001 	movt	r0, #1
   14ef4:	e3a01001 	mov	r1, #1
   14ef8:	e30b259c 	movw	r2, #46492	; 0xb59c
   14efc:	e3402001 	movt	r2, #1
   14f00:	e1a03005 	mov	r3, r5
   14f04:	eb000bfa 	bl	17ef4 <LogWrite>
   14f08:	ea0000a2 	b	15198 <USBStandardHubEnumeratePorts+0x4a4>
   14f0c:	e5963000 	ldr	r3, [r6]
   14f10:	e1d330b0 	ldrh	r3, [r3]
   14f14:	e2033c01 	and	r3, r3, #256	; 0x100
   14f18:	e6ff3073 	uxth	r3, r3
   14f1c:	e3530000 	cmp	r3, #0
   14f20:	1a000004 	bne	14f38 <USBStandardHubEnumeratePorts+0x244>
   14f24:	e30b05bc 	movw	r0, #46524	; 0xb5bc
   14f28:	e3400001 	movt	r0, #1
   14f2c:	e59d1018 	ldr	r1, [sp, #24]
   14f30:	e3002106 	movw	r2, #262	; 0x106
   14f34:	eb000c00 	bl	17f3c <uspi_assertion_failed>
   14f38:	e5963000 	ldr	r3, [r6]
   14f3c:	e1d330b0 	ldrh	r3, [r3]
   14f40:	e3130001 	tst	r3, #1
   14f44:	0a000093 	beq	15198 <USBStandardHubEnumeratePorts+0x4a4>
   14f48:	e3a03004 	mov	r3, #4
   14f4c:	e58d3000 	str	r3, [sp]
   14f50:	e58d8004 	str	r8, [sp, #4]
   14f54:	e3a03000 	mov	r3, #0
   14f58:	e58d3008 	str	r3, [sp, #8]
   14f5c:	e58d300c 	str	r3, [sp, #12]
   14f60:	e1a0000b 	mov	r0, fp
   14f64:	e59d1014 	ldr	r1, [sp, #20]
   14f68:	e3a02023 	mov	r2, #35	; 0x23
   14f6c:	e3a03003 	mov	r3, #3
   14f70:	ebffd4fb 	bl	a364 <DWHCIDeviceControlMessage>
   14f74:	e3500000 	cmp	r0, #0
   14f78:	aa000007 	bge	14f9c <USBStandardHubEnumeratePorts+0x2a8>
   14f7c:	e30b04f0 	movw	r0, #46320	; 0xb4f0
   14f80:	e3400001 	movt	r0, #1
   14f84:	e3a01001 	mov	r1, #1
   14f88:	e30b25f4 	movw	r2, #46580	; 0xb5f4
   14f8c:	e3402001 	movt	r2, #1
   14f90:	e1a03005 	mov	r3, r5
   14f94:	eb000bd6 	bl	17ef4 <LogWrite>
   14f98:	ea00007e 	b	15198 <USBStandardHubEnumeratePorts+0x4a4>
   14f9c:	e3a00064 	mov	r0, #100	; 0x64
   14fa0:	eb000b6e 	bl	17d60 <MsDelay>
   14fa4:	e3a03000 	mov	r3, #0
   14fa8:	e58d3000 	str	r3, [sp]
   14fac:	e58d8004 	str	r8, [sp, #4]
   14fb0:	e5962000 	ldr	r2, [r6]
   14fb4:	e58d2008 	str	r2, [sp, #8]
   14fb8:	e3a02004 	mov	r2, #4
   14fbc:	e58d200c 	str	r2, [sp, #12]
   14fc0:	e1a0000b 	mov	r0, fp
   14fc4:	e59d1014 	ldr	r1, [sp, #20]
   14fc8:	e3a020a3 	mov	r2, #163	; 0xa3
   14fcc:	ebffd4e4 	bl	a364 <DWHCIDeviceControlMessage>
   14fd0:	e3500004 	cmp	r0, #4
   14fd4:	1a00012c 	bne	1548c <USBStandardHubEnumeratePorts+0x798>
   14fd8:	e5963000 	ldr	r3, [r6]
   14fdc:	e1d330b0 	ldrh	r3, [r3]
   14fe0:	e2032002 	and	r2, r3, #2
   14fe4:	e6ff2072 	uxth	r2, r2
   14fe8:	e3520000 	cmp	r2, #0
   14fec:	1a000007 	bne	15010 <USBStandardHubEnumeratePorts+0x31c>
   14ff0:	e30b04f0 	movw	r0, #46320	; 0xb4f0
   14ff4:	e3400001 	movt	r0, #1
   14ff8:	e3a01001 	mov	r1, #1
   14ffc:	e30b260c 	movw	r2, #46604	; 0xb60c
   15000:	e3402001 	movt	r2, #1
   15004:	e1a03005 	mov	r3, r5
   15008:	eb000bb9 	bl	17ef4 <LogWrite>
   1500c:	ea000061 	b	15198 <USBStandardHubEnumeratePorts+0x4a4>
   15010:	e2032008 	and	r2, r3, #8
   15014:	e6ff2072 	uxth	r2, r2
   15018:	e3520000 	cmp	r2, #0
   1501c:	0a000013 	beq	15070 <USBStandardHubEnumeratePorts+0x37c>
   15020:	e3a03008 	mov	r3, #8
   15024:	e58d3000 	str	r3, [sp]
   15028:	e58d8004 	str	r8, [sp, #4]
   1502c:	e3a04000 	mov	r4, #0
   15030:	e58d4008 	str	r4, [sp, #8]
   15034:	e58d400c 	str	r4, [sp, #12]
   15038:	e1a0000b 	mov	r0, fp
   1503c:	e59d1014 	ldr	r1, [sp, #20]
   15040:	e3a02023 	mov	r2, #35	; 0x23
   15044:	e3a03001 	mov	r3, #1
   15048:	ebffd4c5 	bl	a364 <DWHCIDeviceControlMessage>
   1504c:	e30b04f0 	movw	r0, #46320	; 0xb4f0
   15050:	e3400001 	movt	r0, #1
   15054:	e3a01001 	mov	r1, #1
   15058:	e30b2624 	movw	r2, #46628	; 0xb624
   1505c:	e3402001 	movt	r2, #1
   15060:	e08a3001 	add	r3, sl, r1
   15064:	eb000ba2 	bl	17ef4 <LogWrite>
   15068:	e1a00004 	mov	r0, r4
   1506c:	ea000107 	b	15490 <USBStandardHubEnumeratePorts+0x79c>
   15070:	e2032c02 	and	r2, r3, #512	; 0x200
   15074:	e6ff2072 	uxth	r2, r2
   15078:	e3520000 	cmp	r2, #0
   1507c:	13a08000 	movne	r8, #0
   15080:	1a000005 	bne	1509c <USBStandardHubEnumeratePorts+0x3a8>
   15084:	e2033b01 	and	r3, r3, #1024	; 0x400
   15088:	e6ff3073 	uxth	r3, r3
   1508c:	e3530000 	cmp	r3, #0
   15090:	13a08002 	movne	r8, #2
   15094:	03a08001 	moveq	r8, #1
   15098:	eaffffff 	b	1509c <USBStandardHubEnumeratePorts+0x3a8>
   1509c:	e1a06009 	mov	r6, r9
   150a0:	e5993000 	ldr	r3, [r9]
   150a4:	e3530000 	cmp	r3, #0
   150a8:	0a000004 	beq	150c0 <USBStandardHubEnumeratePorts+0x3cc>
   150ac:	e30b0648 	movw	r0, #46664	; 0xb648
   150b0:	e3400001 	movt	r0, #1
   150b4:	e59d1018 	ldr	r1, [sp, #24]
   150b8:	e3002142 	movw	r2, #322	; 0x142
   150bc:	eb000b9e 	bl	17f3c <uspi_assertion_failed>
   150c0:	e3a0003c 	mov	r0, #60	; 0x3c
   150c4:	eb0002e6 	bl	15c64 <malloc>
   150c8:	e5860000 	str	r0, [r6]
   150cc:	e3500000 	cmp	r0, #0
   150d0:	1a000004 	bne	150e8 <USBStandardHubEnumeratePorts+0x3f4>
   150d4:	e30b0668 	movw	r0, #46696	; 0xb668
   150d8:	e3400001 	movt	r0, #1
   150dc:	e59d1018 	ldr	r1, [sp, #24]
   150e0:	e3a02f51 	mov	r2, #324	; 0x144
   150e4:	eb000b94 	bl	17f3c <uspi_assertion_failed>
   150e8:	e596a000 	ldr	sl, [r6]
   150ec:	e59d0020 	ldr	r0, [sp, #32]
   150f0:	ebffe0a8 	bl	d398 <USBDeviceGetAddress>
   150f4:	e1a03000 	mov	r3, r0
   150f8:	e6ef2075 	uxtb	r2, r5
   150fc:	e58d2000 	str	r2, [sp]
   15100:	e1a0000a 	mov	r0, sl
   15104:	e1a0100b 	mov	r1, fp
   15108:	e1a02008 	mov	r2, r8
   1510c:	ebffdf49 	bl	ce38 <USBDevice>
   15110:	e5960000 	ldr	r0, [r6]
   15114:	ebffe15d 	bl	d690 <USBDeviceInitialize>
   15118:	e3500000 	cmp	r0, #0
   1511c:	1a000006 	bne	1513c <USBStandardHubEnumeratePorts+0x448>
   15120:	e5960000 	ldr	r0, [r6]
   15124:	ebffe003 	bl	d138 <_USBDevice>
   15128:	e5960000 	ldr	r0, [r6]
   1512c:	eb000328 	bl	15dd4 <free>
   15130:	e3a03000 	mov	r3, #0
   15134:	e5863000 	str	r3, [r6]
   15138:	ea000016 	b	15198 <USBStandardHubEnumeratePorts+0x4a4>
   1513c:	e5960000 	ldr	r0, [r6]
   15140:	ebfffea3 	bl	14bd4 <USBStandardHubGetDeviceNames>
   15144:	e2506000 	subs	r6, r0, #0
   15148:	1a000004 	bne	15160 <USBStandardHubEnumeratePorts+0x46c>
   1514c:	e30b016c 	movw	r0, #45420	; 0xb16c
   15150:	e3400001 	movt	r0, #1
   15154:	e59d1018 	ldr	r1, [sp, #24]
   15158:	e3002151 	movw	r2, #337	; 0x151
   1515c:	eb000b76 	bl	17f3c <uspi_assertion_failed>
   15160:	e1a00006 	mov	r0, r6
   15164:	ebffe9c1 	bl	f870 <StringGet>
   15168:	e58d0000 	str	r0, [sp]
   1516c:	e30b04f0 	movw	r0, #46320	; 0xb4f0
   15170:	e3400001 	movt	r0, #1
   15174:	e3a01003 	mov	r1, #3
   15178:	e30b2688 	movw	r2, #46728	; 0xb688
   1517c:	e3402001 	movt	r2, #1
   15180:	e1a03005 	mov	r3, r5
   15184:	eb000b5a 	bl	17ef4 <LogWrite>
   15188:	e1a00006 	mov	r0, r6
   1518c:	ebffe9a7 	bl	f830 <_String>
   15190:	e1a00006 	mov	r0, r6
   15194:	eb00030e 	bl	15dd4 <free>
   15198:	e5943040 	ldr	r3, [r4, #64]	; 0x40
   1519c:	e2852001 	add	r2, r5, #1
   151a0:	e2899004 	add	r9, r9, #4
   151a4:	e1530005 	cmp	r3, r5
   151a8:	8affff2d 	bhi	14e64 <USBStandardHubEnumeratePorts+0x170>
   151ac:	e3530000 	cmp	r3, #0
   151b0:	0a000032 	beq	15280 <USBStandardHubEnumeratePorts+0x58c>
   151b4:	e2845040 	add	r5, r4, #64	; 0x40
   151b8:	e3a06001 	mov	r6, #1
   151bc:	e30b94f0 	movw	r9, #46320	; 0xb4f0
   151c0:	e3409001 	movt	r9, #1
   151c4:	e30b36e4 	movw	r3, #46820	; 0xb6e4
   151c8:	e3403001 	movt	r3, #1
   151cc:	e58d3018 	str	r3, [sp, #24]
   151d0:	e30ba6c8 	movw	sl, #46792	; 0xb6c8
   151d4:	e340a001 	movt	sl, #1
   151d8:	ea000000 	b	151e0 <USBStandardHubEnumeratePorts+0x4ec>
   151dc:	e1a06002 	mov	r6, r2
   151e0:	e2855004 	add	r5, r5, #4
   151e4:	e5950000 	ldr	r0, [r5]
   151e8:	e3500000 	cmp	r0, #0
   151ec:	0a00001f 	beq	15270 <USBStandardHubEnumeratePorts+0x57c>
   151f0:	ebfffe03 	bl	14a04 <USBDeviceFactoryGetDevice>
   151f4:	e2508000 	subs	r8, r0, #0
   151f8:	0a000011 	beq	15244 <USBStandardHubEnumeratePorts+0x550>
   151fc:	e5950000 	ldr	r0, [r5]
   15200:	ebffdfcc 	bl	d138 <_USBDevice>
   15204:	e5950000 	ldr	r0, [r5]
   15208:	eb0002f1 	bl	15dd4 <free>
   1520c:	e5858000 	str	r8, [r5]
   15210:	e5983000 	ldr	r3, [r8]
   15214:	e1a00008 	mov	r0, r8
   15218:	e12fff33 	blx	r3
   1521c:	e3500000 	cmp	r0, #0
   15220:	e1a00009 	mov	r0, r9
   15224:	03a01001 	moveq	r1, #1
   15228:	030b26a4 	movweq	r2, #46756	; 0xb6a4
   1522c:	03402001 	movteq	r2, #1
   15230:	13a01004 	movne	r1, #4
   15234:	11a0200a 	movne	r2, sl
   15238:	e1a03006 	mov	r3, r6
   1523c:	eb000b2c 	bl	17ef4 <LogWrite>
   15240:	ea00000a 	b	15270 <USBStandardHubEnumeratePorts+0x57c>
   15244:	e1a00009 	mov	r0, r9
   15248:	e3a01003 	mov	r1, #3
   1524c:	e59d2018 	ldr	r2, [sp, #24]
   15250:	e1a03006 	mov	r3, r6
   15254:	eb000b26 	bl	17ef4 <LogWrite>
   15258:	e5950000 	ldr	r0, [r5]
   1525c:	ebffdfb5 	bl	d138 <_USBDevice>
   15260:	e5950000 	ldr	r0, [r5]
   15264:	eb0002da 	bl	15dd4 <free>
   15268:	e3a03000 	mov	r3, #0
   1526c:	e5853000 	str	r3, [r5]
   15270:	e2862001 	add	r2, r6, #1
   15274:	e5943040 	ldr	r3, [r4, #64]	; 0x40
   15278:	e1530006 	cmp	r3, r6
   1527c:	8affffd6 	bhi	151dc <USBStandardHubEnumeratePorts+0x4e8>
   15280:	e3a00004 	mov	r0, #4
   15284:	eb000276 	bl	15c64 <malloc>
   15288:	e2509000 	subs	r9, r0, #0
   1528c:	1a000005 	bne	152a8 <USBStandardHubEnumeratePorts+0x5b4>
   15290:	e30b0708 	movw	r0, #46856	; 0xb708
   15294:	e3400001 	movt	r0, #1
   15298:	e30b14f8 	movw	r1, #46328	; 0xb4f8
   1529c:	e3401001 	movt	r1, #1
   152a0:	e300217e 	movw	r2, #382	; 0x17e
   152a4:	eb000b24 	bl	17f3c <uspi_assertion_failed>
   152a8:	e3a03000 	mov	r3, #0
   152ac:	e58d3000 	str	r3, [sp]
   152b0:	e58d3004 	str	r3, [sp, #4]
   152b4:	e58d9008 	str	r9, [sp, #8]
   152b8:	e3a02004 	mov	r2, #4
   152bc:	e58d200c 	str	r2, [sp, #12]
   152c0:	e1a0000b 	mov	r0, fp
   152c4:	e59d1014 	ldr	r1, [sp, #20]
   152c8:	e3a020a0 	mov	r2, #160	; 0xa0
   152cc:	ebffd424 	bl	a364 <DWHCIDeviceControlMessage>
   152d0:	e3500004 	cmp	r0, #4
   152d4:	0a000009 	beq	15300 <USBStandardHubEnumeratePorts+0x60c>
   152d8:	e30b04f0 	movw	r0, #46320	; 0xb4f0
   152dc:	e3400001 	movt	r0, #1
   152e0:	e3a01001 	mov	r1, #1
   152e4:	e30b2718 	movw	r2, #46872	; 0xb718
   152e8:	e3402001 	movt	r2, #1
   152ec:	eb000b00 	bl	17ef4 <LogWrite>
   152f0:	e1a00009 	mov	r0, r9
   152f4:	eb0002b6 	bl	15dd4 <free>
   152f8:	e3a00000 	mov	r0, #0
   152fc:	ea000063 	b	15490 <USBStandardHubEnumeratePorts+0x79c>
   15300:	e1d930b0 	ldrh	r3, [r9]
   15304:	e2033002 	and	r3, r3, #2
   15308:	e6ff3073 	uxth	r3, r3
   1530c:	e3530000 	cmp	r3, #0
   15310:	0a000021 	beq	1539c <USBStandardHubEnumeratePorts+0x6a8>
   15314:	e5943040 	ldr	r3, [r4, #64]	; 0x40
   15318:	e3530000 	cmp	r3, #0
   1531c:	0a000014 	beq	15374 <USBStandardHubEnumeratePorts+0x680>
   15320:	e3a05001 	mov	r5, #1
   15324:	e3a08008 	mov	r8, #8
   15328:	e3a06000 	mov	r6, #0
   1532c:	e3a07023 	mov	r7, #35	; 0x23
   15330:	e59da014 	ldr	sl, [sp, #20]
   15334:	ea000000 	b	1533c <USBStandardHubEnumeratePorts+0x648>
   15338:	e1a05002 	mov	r5, r2
   1533c:	e58d8000 	str	r8, [sp]
   15340:	e6ff3075 	uxth	r3, r5
   15344:	e58d3004 	str	r3, [sp, #4]
   15348:	e58d6008 	str	r6, [sp, #8]
   1534c:	e58d600c 	str	r6, [sp, #12]
   15350:	e1a0000b 	mov	r0, fp
   15354:	e1a0100a 	mov	r1, sl
   15358:	e1a02007 	mov	r2, r7
   1535c:	e3a03001 	mov	r3, #1
   15360:	ebffd3ff 	bl	a364 <DWHCIDeviceControlMessage>
   15364:	e2852001 	add	r2, r5, #1
   15368:	e5943040 	ldr	r3, [r4, #64]	; 0x40
   1536c:	e1550003 	cmp	r5, r3
   15370:	3afffff0 	bcc	15338 <USBStandardHubEnumeratePorts+0x644>
   15374:	e30b04f0 	movw	r0, #46320	; 0xb4f0
   15378:	e3400001 	movt	r0, #1
   1537c:	e3a01001 	mov	r1, #1
   15380:	e30b2730 	movw	r2, #46896	; 0xb730
   15384:	e3402001 	movt	r2, #1
   15388:	eb000ad9 	bl	17ef4 <LogWrite>
   1538c:	e1a00009 	mov	r0, r9
   15390:	eb00028f 	bl	15dd4 <free>
   15394:	e3a00000 	mov	r0, #0
   15398:	ea00003c 	b	15490 <USBStandardHubEnumeratePorts+0x79c>
   1539c:	e1a00009 	mov	r0, r9
   153a0:	eb00028b 	bl	15dd4 <free>
   153a4:	e5943040 	ldr	r3, [r4, #64]	; 0x40
   153a8:	e3530000 	cmp	r3, #0
   153ac:	0a000032 	beq	1547c <USBStandardHubEnumeratePorts+0x788>
   153b0:	e2846060 	add	r6, r4, #96	; 0x60
   153b4:	e3a05001 	mov	r5, #1
   153b8:	e58d5018 	str	r5, [sp, #24]
   153bc:	e3a07000 	mov	r7, #0
   153c0:	e30b94f0 	movw	r9, #46320	; 0xb4f0
   153c4:	e3409001 	movt	r9, #1
   153c8:	e30ba624 	movw	sl, #46628	; 0xb624
   153cc:	e340a001 	movt	sl, #1
   153d0:	ea000000 	b	153d8 <USBStandardHubEnumeratePorts+0x6e4>
   153d4:	e1a05002 	mov	r5, r2
   153d8:	e6ff8075 	uxth	r8, r5
   153dc:	e58d7000 	str	r7, [sp]
   153e0:	e58d8004 	str	r8, [sp, #4]
   153e4:	e5b63004 	ldr	r3, [r6, #4]!
   153e8:	e58d3008 	str	r3, [sp, #8]
   153ec:	e3a03004 	mov	r3, #4
   153f0:	e58d300c 	str	r3, [sp, #12]
   153f4:	e1a0000b 	mov	r0, fp
   153f8:	e59d1014 	ldr	r1, [sp, #20]
   153fc:	e3a020a3 	mov	r2, #163	; 0xa3
   15400:	e1a03007 	mov	r3, r7
   15404:	ebffd3d6 	bl	a364 <DWHCIDeviceControlMessage>
   15408:	e3500004 	cmp	r0, #4
   1540c:	1a000015 	bne	15468 <USBStandardHubEnumeratePorts+0x774>
   15410:	e5963000 	ldr	r3, [r6]
   15414:	e1d330b0 	ldrh	r3, [r3]
   15418:	e2033008 	and	r3, r3, #8
   1541c:	e6ff3073 	uxth	r3, r3
   15420:	e3530000 	cmp	r3, #0
   15424:	0a00000f 	beq	15468 <USBStandardHubEnumeratePorts+0x774>
   15428:	e3a03008 	mov	r3, #8
   1542c:	e58d3000 	str	r3, [sp]
   15430:	e58d8004 	str	r8, [sp, #4]
   15434:	e58d7008 	str	r7, [sp, #8]
   15438:	e58d700c 	str	r7, [sp, #12]
   1543c:	e1a0000b 	mov	r0, fp
   15440:	e59d1014 	ldr	r1, [sp, #20]
   15444:	e3a02023 	mov	r2, #35	; 0x23
   15448:	e3a03001 	mov	r3, #1
   1544c:	ebffd3c4 	bl	a364 <DWHCIDeviceControlMessage>
   15450:	e1a00009 	mov	r0, r9
   15454:	e3a01001 	mov	r1, #1
   15458:	e1a0200a 	mov	r2, sl
   1545c:	e1a03005 	mov	r3, r5
   15460:	eb000aa3 	bl	17ef4 <LogWrite>
   15464:	e58d7018 	str	r7, [sp, #24]
   15468:	e2852001 	add	r2, r5, #1
   1546c:	e5943040 	ldr	r3, [r4, #64]	; 0x40
   15470:	e1530005 	cmp	r3, r5
   15474:	8affffd6 	bhi	153d4 <USBStandardHubEnumeratePorts+0x6e0>
   15478:	ea000001 	b	15484 <USBStandardHubEnumeratePorts+0x790>
   1547c:	e3a03001 	mov	r3, #1
   15480:	e58d3018 	str	r3, [sp, #24]
   15484:	e59d0018 	ldr	r0, [sp, #24]
   15488:	ea000000 	b	15490 <USBStandardHubEnumeratePorts+0x79c>
   1548c:	e3a00000 	mov	r0, #0
   15490:	e28dd02c 	add	sp, sp, #44	; 0x2c
   15494:	e8bd8ff0 	pop	{r4, r5, r6, r7, r8, r9, sl, fp, pc}

00015498 <USBStandardHubConfigure>:
   15498:	e92d40f0 	push	{r4, r5, r6, r7, lr}
   1549c:	e24dd014 	sub	sp, sp, #20
   154a0:	e2505000 	subs	r5, r0, #0
   154a4:	1a000005 	bne	154c0 <USBStandardHubConfigure+0x28>
   154a8:	e3090ce4 	movw	r0, #40164	; 0x9ce4
   154ac:	e3400001 	movt	r0, #1
   154b0:	e30b14f8 	movw	r1, #46328	; 0xb4f8
   154b4:	e3401001 	movt	r1, #1
   154b8:	e3a02057 	mov	r2, #87	; 0x57
   154bc:	eb000a9e 	bl	17f3c <uspi_assertion_failed>
   154c0:	e1a06005 	mov	r6, r5
   154c4:	e1a00005 	mov	r0, r5
   154c8:	ebffe006 	bl	d4e8 <USBDeviceGetDeviceDescriptor>
   154cc:	e2504000 	subs	r4, r0, #0
   154d0:	1a000005 	bne	154ec <USBStandardHubConfigure+0x54>
   154d4:	e30b074c 	movw	r0, #46924	; 0xb74c
   154d8:	e3400001 	movt	r0, #1
   154dc:	e30b14f8 	movw	r1, #46328	; 0xb4f8
   154e0:	e3401001 	movt	r1, #1
   154e4:	e3a0205a 	mov	r2, #90	; 0x5a
   154e8:	eb000a93 	bl	17f3c <uspi_assertion_failed>
   154ec:	e5d43004 	ldrb	r3, [r4, #4]
   154f0:	e3530009 	cmp	r3, #9
   154f4:	1a000008 	bne	1551c <USBStandardHubConfigure+0x84>
   154f8:	e5d43005 	ldrb	r3, [r4, #5]
   154fc:	e3530000 	cmp	r3, #0
   15500:	1a000005 	bne	1551c <USBStandardHubConfigure+0x84>
   15504:	e5d43006 	ldrb	r3, [r4, #6]
   15508:	e3530002 	cmp	r3, #2
   1550c:	1a000002 	bne	1551c <USBStandardHubConfigure+0x84>
   15510:	e5d43011 	ldrb	r3, [r4, #17]
   15514:	e3530001 	cmp	r3, #1
   15518:	0a000008 	beq	15540 <USBStandardHubConfigure+0xa8>
   1551c:	e30b04f0 	movw	r0, #46320	; 0xb4f0
   15520:	e3400001 	movt	r0, #1
   15524:	e3a01001 	mov	r1, #1
   15528:	e30b2760 	movw	r2, #46944	; 0xb760
   1552c:	e3402001 	movt	r2, #1
   15530:	e5d43006 	ldrb	r3, [r4, #6]
   15534:	eb000a6e 	bl	17ef4 <LogWrite>
   15538:	e3a04000 	mov	r4, #0
   1553c:	ea0000b8 	b	15824 <USBStandardHubConfigure+0x38c>
   15540:	e1a00005 	mov	r0, r5
   15544:	e3a01002 	mov	r1, #2
   15548:	ebffe00e 	bl	d588 <USBDeviceGetDescriptor>
   1554c:	e3500000 	cmp	r0, #0
   15550:	0a000002 	beq	15560 <USBStandardHubConfigure+0xc8>
   15554:	e5d03004 	ldrb	r3, [r0, #4]
   15558:	e3530001 	cmp	r3, #1
   1555c:	0a000029 	beq	15608 <USBStandardHubConfigure+0x170>
   15560:	e1a00005 	mov	r0, r5
   15564:	e30b14f0 	movw	r1, #46320	; 0xb4f0
   15568:	e3401001 	movt	r1, #1
   1556c:	ebffe01c 	bl	d5e4 <USBDeviceConfigurationError>
   15570:	e3a04000 	mov	r4, #0
   15574:	ea0000aa 	b	15824 <USBStandardHubConfigure+0x38c>
   15578:	e5d73005 	ldrb	r3, [r7, #5]
   1557c:	e3530009 	cmp	r3, #9
   15580:	1a000021 	bne	1560c <USBStandardHubConfigure+0x174>
   15584:	e5d73006 	ldrb	r3, [r7, #6]
   15588:	e3530000 	cmp	r3, #0
   1558c:	1a00001e 	bne	1560c <USBStandardHubConfigure+0x174>
   15590:	e5d73007 	ldrb	r3, [r7, #7]
   15594:	e3530002 	cmp	r3, #2
   15598:	1a00001b 	bne	1560c <USBStandardHubConfigure+0x174>
   1559c:	e5d73004 	ldrb	r3, [r7, #4]
   155a0:	e3530001 	cmp	r3, #1
   155a4:	0a000005 	beq	155c0 <USBStandardHubConfigure+0x128>
   155a8:	e1a00005 	mov	r0, r5
   155ac:	e30b14f0 	movw	r1, #46320	; 0xb4f0
   155b0:	e3401001 	movt	r1, #1
   155b4:	ebffe00a 	bl	d5e4 <USBDeviceConfigurationError>
   155b8:	e3a04000 	mov	r4, #0
   155bc:	ea000098 	b	15824 <USBStandardHubConfigure+0x38c>
   155c0:	e1a00005 	mov	r0, r5
   155c4:	e3a01005 	mov	r1, #5
   155c8:	ebffdfee 	bl	d588 <USBDeviceGetDescriptor>
   155cc:	e3500000 	cmp	r0, #0
   155d0:	0a000006 	beq	155f0 <USBStandardHubConfigure+0x158>
   155d4:	e1d030d2 	ldrsb	r3, [r0, #2]
   155d8:	e3530000 	cmp	r3, #0
   155dc:	aa000003 	bge	155f0 <USBStandardHubConfigure+0x158>
   155e0:	e5d03003 	ldrb	r3, [r0, #3]
   155e4:	e203303f 	and	r3, r3, #63	; 0x3f
   155e8:	e3530003 	cmp	r3, #3
   155ec:	0a000082 	beq	157fc <USBStandardHubConfigure+0x364>
   155f0:	e1a00005 	mov	r0, r5
   155f4:	e30b14f0 	movw	r1, #46320	; 0xb4f0
   155f8:	e3401001 	movt	r1, #1
   155fc:	ebffdff8 	bl	d5e4 <USBDeviceConfigurationError>
   15600:	e3a04000 	mov	r4, #0
   15604:	ea000086 	b	15824 <USBStandardHubConfigure+0x38c>
   15608:	e3a04004 	mov	r4, #4
   1560c:	e1a00006 	mov	r0, r6
   15610:	e1a01004 	mov	r1, r4
   15614:	ebffdfdb 	bl	d588 <USBDeviceGetDescriptor>
   15618:	e2507000 	subs	r7, r0, #0
   1561c:	1affffd5 	bne	15578 <USBStandardHubConfigure+0xe0>
   15620:	ea00007a 	b	15810 <USBStandardHubConfigure+0x378>
   15624:	e30b04f0 	movw	r0, #46320	; 0xb4f0
   15628:	e3400001 	movt	r0, #1
   1562c:	e3a01001 	mov	r1, #1
   15630:	e30a2bb8 	movw	r2, #43960	; 0xabb8
   15634:	e3402001 	movt	r2, #1
   15638:	eb000a2d 	bl	17ef4 <LogWrite>
   1563c:	ea000078 	b	15824 <USBStandardHubConfigure+0x38c>
   15640:	e1a00005 	mov	r0, r5
   15644:	ebffdf93 	bl	d498 <USBDeviceGetHost>
   15648:	e2504000 	subs	r4, r0, #0
   1564c:	1a000005 	bne	15668 <USBStandardHubConfigure+0x1d0>
   15650:	e30a0d54 	movw	r0, #44372	; 0xad54
   15654:	e3400001 	movt	r0, #1
   15658:	e30b14f8 	movw	r1, #46328	; 0xb4f8
   1565c:	e3401001 	movt	r1, #1
   15660:	e3a0209f 	mov	r2, #159	; 0x9f
   15664:	eb000a34 	bl	17f3c <uspi_assertion_failed>
   15668:	e5d73003 	ldrb	r3, [r7, #3]
   1566c:	e3530000 	cmp	r3, #0
   15670:	0a000017 	beq	156d4 <USBStandardHubConfigure+0x23c>
   15674:	e1a00005 	mov	r0, r5
   15678:	ebffdf72 	bl	d448 <USBDeviceGetEndpoint0>
   1567c:	e1a01000 	mov	r1, r0
   15680:	e5d73003 	ldrb	r3, [r7, #3]
   15684:	e58d3000 	str	r3, [sp]
   15688:	e5d73002 	ldrb	r3, [r7, #2]
   1568c:	e58d3004 	str	r3, [sp, #4]
   15690:	e3a03000 	mov	r3, #0
   15694:	e58d3008 	str	r3, [sp, #8]
   15698:	e58d300c 	str	r3, [sp, #12]
   1569c:	e1a00004 	mov	r0, r4
   156a0:	e3a02001 	mov	r2, #1
   156a4:	e3a0300b 	mov	r3, #11
   156a8:	ebffd32d 	bl	a364 <DWHCIDeviceControlMessage>
   156ac:	e3500000 	cmp	r0, #0
   156b0:	aa000007 	bge	156d4 <USBStandardHubConfigure+0x23c>
   156b4:	e30b04f0 	movw	r0, #46320	; 0xb4f0
   156b8:	e3400001 	movt	r0, #1
   156bc:	e3a01001 	mov	r1, #1
   156c0:	e30b2054 	movw	r2, #45140	; 0xb054
   156c4:	e3402001 	movt	r2, #1
   156c8:	eb000a09 	bl	17ef4 <LogWrite>
   156cc:	e3a04000 	mov	r4, #0
   156d0:	ea000053 	b	15824 <USBStandardHubConfigure+0x38c>
   156d4:	e595303c 	ldr	r3, [r5, #60]	; 0x3c
   156d8:	e3530000 	cmp	r3, #0
   156dc:	0a000005 	beq	156f8 <USBStandardHubConfigure+0x260>
   156e0:	e30b077c 	movw	r0, #46972	; 0xb77c
   156e4:	e3400001 	movt	r0, #1
   156e8:	e30b14f8 	movw	r1, #46328	; 0xb4f8
   156ec:	e3401001 	movt	r1, #1
   156f0:	e3a020ae 	mov	r2, #174	; 0xae
   156f4:	eb000a10 	bl	17f3c <uspi_assertion_failed>
   156f8:	e3a00009 	mov	r0, #9
   156fc:	eb000158 	bl	15c64 <malloc>
   15700:	e585003c 	str	r0, [r5, #60]	; 0x3c
   15704:	e3500000 	cmp	r0, #0
   15708:	1a000005 	bne	15724 <USBStandardHubConfigure+0x28c>
   1570c:	e30b0794 	movw	r0, #46996	; 0xb794
   15710:	e3400001 	movt	r0, #1
   15714:	e30b14f8 	movw	r1, #46328	; 0xb4f8
   15718:	e3401001 	movt	r1, #1
   1571c:	e3a020b0 	mov	r2, #176	; 0xb0
   15720:	eb000a05 	bl	17f3c <uspi_assertion_failed>
   15724:	e1a00005 	mov	r0, r5
   15728:	ebffdf46 	bl	d448 <USBDeviceGetEndpoint0>
   1572c:	e1a01000 	mov	r1, r0
   15730:	e595303c 	ldr	r3, [r5, #60]	; 0x3c
   15734:	e58d3000 	str	r3, [sp]
   15738:	e3a03009 	mov	r3, #9
   1573c:	e58d3004 	str	r3, [sp, #4]
   15740:	e3a030a0 	mov	r3, #160	; 0xa0
   15744:	e58d3008 	str	r3, [sp, #8]
   15748:	e1a00004 	mov	r0, r4
   1574c:	e3a02029 	mov	r2, #41	; 0x29
   15750:	e3a03000 	mov	r3, #0
   15754:	ebffd338 	bl	a43c <DWHCIDeviceGetDescriptor>
   15758:	e3500009 	cmp	r0, #9
   1575c:	0a00000a 	beq	1578c <USBStandardHubConfigure+0x2f4>
   15760:	e30b04f0 	movw	r0, #46320	; 0xb4f0
   15764:	e3400001 	movt	r0, #1
   15768:	e3a01001 	mov	r1, #1
   1576c:	e30b27ac 	movw	r2, #47020	; 0xb7ac
   15770:	e3402001 	movt	r2, #1
   15774:	eb0009de 	bl	17ef4 <LogWrite>
   15778:	e595003c 	ldr	r0, [r5, #60]	; 0x3c
   1577c:	eb000194 	bl	15dd4 <free>
   15780:	e3a04000 	mov	r4, #0
   15784:	e585403c 	str	r4, [r5, #60]	; 0x3c
   15788:	ea000025 	b	15824 <USBStandardHubConfigure+0x38c>
   1578c:	e595303c 	ldr	r3, [r5, #60]	; 0x3c
   15790:	e5d33002 	ldrb	r3, [r3, #2]
   15794:	e5853040 	str	r3, [r5, #64]	; 0x40
   15798:	e3530008 	cmp	r3, #8
   1579c:	9a00000a 	bls	157cc <USBStandardHubConfigure+0x334>
   157a0:	e30b04f0 	movw	r0, #46320	; 0xb4f0
   157a4:	e3400001 	movt	r0, #1
   157a8:	e3a01001 	mov	r1, #1
   157ac:	e30b27c8 	movw	r2, #47048	; 0xb7c8
   157b0:	e3402001 	movt	r2, #1
   157b4:	eb0009ce 	bl	17ef4 <LogWrite>
   157b8:	e595003c 	ldr	r0, [r5, #60]	; 0x3c
   157bc:	eb000184 	bl	15dd4 <free>
   157c0:	e3a04000 	mov	r4, #0
   157c4:	e585403c 	str	r4, [r5, #60]	; 0x3c
   157c8:	ea000015 	b	15824 <USBStandardHubConfigure+0x38c>
   157cc:	e1a00005 	mov	r0, r5
   157d0:	ebfffd47 	bl	14cf4 <USBStandardHubEnumeratePorts>
   157d4:	e2504000 	subs	r4, r0, #0
   157d8:	13a04001 	movne	r4, #1
   157dc:	1a000010 	bne	15824 <USBStandardHubConfigure+0x38c>
   157e0:	e30b04f0 	movw	r0, #46320	; 0xb4f0
   157e4:	e3400001 	movt	r0, #1
   157e8:	e3a01001 	mov	r1, #1
   157ec:	e30b27dc 	movw	r2, #47068	; 0xb7dc
   157f0:	e3402001 	movt	r2, #1
   157f4:	eb0009be 	bl	17ef4 <LogWrite>
   157f8:	ea000009 	b	15824 <USBStandardHubConfigure+0x38c>
   157fc:	e1a00005 	mov	r0, r5
   15800:	ebffdd5b 	bl	cd74 <USBDeviceConfigure>
   15804:	e2504000 	subs	r4, r0, #0
   15808:	1affff8c 	bne	15640 <USBStandardHubConfigure+0x1a8>
   1580c:	eaffff84 	b	15624 <USBStandardHubConfigure+0x18c>
   15810:	e1a00005 	mov	r0, r5
   15814:	e30b14f0 	movw	r1, #46320	; 0xb4f0
   15818:	e3401001 	movt	r1, #1
   1581c:	ebffdf70 	bl	d5e4 <USBDeviceConfigurationError>
   15820:	e3a04000 	mov	r4, #0
   15824:	e1a00004 	mov	r0, r4
   15828:	e28dd014 	add	sp, sp, #20
   1582c:	e8bd80f0 	pop	{r4, r5, r6, r7, pc}

00015830 <KeyMap>:
   15830:	e92d4010 	push	{r4, lr}
   15834:	e2504000 	subs	r4, r0, #0
   15838:	1a000005 	bne	15854 <KeyMap+0x24>
   1583c:	e3090ce4 	movw	r0, #40164	; 0x9ce4
   15840:	e3400001 	movt	r0, #1
   15844:	e30b1a40 	movw	r1, #47680	; 0xba40
   15848:	e3401001 	movt	r1, #1
   1584c:	e3a02062 	mov	r2, #98	; 0x62
   15850:	eb0009b9 	bl	17f3c <uspi_assertion_failed>
   15854:	e3a03000 	mov	r3, #0
   15858:	e5843180 	str	r3, [r4, #384]	; 0x180
   1585c:	e3a02001 	mov	r2, #1
   15860:	e5842184 	str	r2, [r4, #388]	; 0x184
   15864:	e5843188 	str	r3, [r4, #392]	; 0x188
   15868:	e1a00004 	mov	r0, r4
   1586c:	e30b17f4 	movw	r1, #47092	; 0xb7f4
   15870:	e3401001 	movt	r1, #1
   15874:	e3a02d06 	mov	r2, #384	; 0x180
   15878:	ebffea78 	bl	10260 <uspi_memcpy>
   1587c:	e8bd8010 	pop	{r4, pc}

00015880 <_KeyMap>:
   15880:	e12fff1e 	bx	lr

00015884 <KeyMapClearTable>:
   15884:	e92d4038 	push	{r3, r4, r5, lr}
   15888:	e1a05001 	mov	r5, r1
   1588c:	e2504000 	subs	r4, r0, #0
   15890:	1a00000e 	bne	158d0 <KeyMapClearTable+0x4c>
   15894:	e3090ce4 	movw	r0, #40164	; 0x9ce4
   15898:	e3400001 	movt	r0, #1
   1589c:	e30b1a40 	movw	r1, #47680	; 0xba40
   158a0:	e3401001 	movt	r1, #1
   158a4:	e3a02072 	mov	r2, #114	; 0x72
   158a8:	eb0009a3 	bl	17f3c <uspi_assertion_failed>
   158ac:	ea000007 	b	158d0 <KeyMapClearTable+0x4c>
   158b0:	e7c21003 	strb	r1, [r2, r3]
   158b4:	e2833003 	add	r3, r3, #3
   158b8:	e3530d06 	cmp	r3, #384	; 0x180
   158bc:	1afffffb 	bne	158b0 <KeyMapClearTable+0x2c>
   158c0:	e3a00001 	mov	r0, #1
   158c4:	e8bd8038 	pop	{r3, r4, r5, pc}
   158c8:	e3a00000 	mov	r0, #0
   158cc:	e8bd8038 	pop	{r3, r4, r5, pc}
   158d0:	e3550002 	cmp	r5, #2
   158d4:	8afffffb 	bhi	158c8 <KeyMapClearTable+0x44>
   158d8:	e3a03000 	mov	r3, #0
   158dc:	e0842005 	add	r2, r4, r5
   158e0:	e1a01003 	mov	r1, r3
   158e4:	eafffff1 	b	158b0 <KeyMapClearTable+0x2c>

000158e8 <KeyMapSetEntry>:
   158e8:	e92d40f8 	push	{r3, r4, r5, r6, r7, lr}
   158ec:	e1a07001 	mov	r7, r1
   158f0:	e1a04002 	mov	r4, r2
   158f4:	e1a05003 	mov	r5, r3
   158f8:	e2506000 	subs	r6, r0, #0
   158fc:	1a000005 	bne	15918 <KeyMapSetEntry+0x30>
   15900:	e3090ce4 	movw	r0, #40164	; 0x9ce4
   15904:	e3400001 	movt	r0, #1
   15908:	e30b1a40 	movw	r1, #47680	; 0xba40
   1590c:	e3401001 	movt	r1, #1
   15910:	e3a02083 	mov	r2, #131	; 0x83
   15914:	eb000988 	bl	17f3c <uspi_assertion_failed>
   15918:	e6afc074 	sxtb	ip, r4
   1591c:	e35c0000 	cmp	ip, #0
   15920:	c3a0c000 	movgt	ip, #0
   15924:	d3a0c001 	movle	ip, #1
   15928:	e3570002 	cmp	r7, #2
   1592c:	838cc001 	orrhi	ip, ip, #1
   15930:	e35c0000 	cmp	ip, #0
   15934:	1a000006 	bne	15954 <KeyMapSetEntry+0x6c>
   15938:	e35500b2 	cmp	r5, #178	; 0xb2
   1593c:	8a000006 	bhi	1595c <KeyMapSetEntry+0x74>
   15940:	e0844084 	add	r4, r4, r4, lsl #1
   15944:	e0844007 	add	r4, r4, r7
   15948:	e7c65004 	strb	r5, [r6, r4]
   1594c:	e3a00001 	mov	r0, #1
   15950:	e8bd80f8 	pop	{r3, r4, r5, r6, r7, pc}
   15954:	e3a00000 	mov	r0, #0
   15958:	e8bd80f8 	pop	{r3, r4, r5, r6, r7, pc}
   1595c:	e3a00000 	mov	r0, #0
   15960:	e8bd80f8 	pop	{r3, r4, r5, r6, r7, pc}

00015964 <KeyMapTranslate>:
   15964:	e92d4070 	push	{r4, r5, r6, lr}
   15968:	e1a04001 	mov	r4, r1
   1596c:	e1a06002 	mov	r6, r2
   15970:	e2505000 	subs	r5, r0, #0
   15974:	1a000005 	bne	15990 <KeyMapTranslate+0x2c>
   15978:	e3090ce4 	movw	r0, #40164	; 0x9ce4
   1597c:	e3400001 	movt	r0, #1
   15980:	e30b1a40 	movw	r1, #47680	; 0xba40
   15984:	e3401001 	movt	r1, #1
   15988:	e3a02094 	mov	r2, #148	; 0x94
   1598c:	eb00096a 	bl	17f3c <uspi_assertion_failed>
   15990:	e6af3074 	sxtb	r3, r4
   15994:	e3530000 	cmp	r3, #0
   15998:	da00003d 	ble	15a94 <KeyMapTranslate+0x130>
   1599c:	e0843084 	add	r3, r4, r4, lsl #1
   159a0:	e7d53003 	ldrb	r3, [r5, r3]
   159a4:	e3530088 	cmp	r3, #136	; 0x88
   159a8:	1a000004 	bne	159c0 <KeyMapTranslate+0x5c>
   159ac:	e3160011 	tst	r6, #17
   159b0:	0a00000b 	beq	159e4 <KeyMapTranslate+0x80>
   159b4:	e3160004 	tst	r6, #4
   159b8:	1a000037 	bne	15a9c <KeyMapTranslate+0x138>
   159bc:	ea000008 	b	159e4 <KeyMapTranslate+0x80>
   159c0:	e2832071 	add	r2, r3, #113	; 0x71
   159c4:	e6ef2072 	uxtb	r2, r2
   159c8:	e352000b 	cmp	r2, #11
   159cc:	8a000004 	bhi	159e4 <KeyMapTranslate+0x80>
   159d0:	e3160004 	tst	r6, #4
   159d4:	0a000002 	beq	159e4 <KeyMapTranslate+0x80>
   159d8:	e2830027 	add	r0, r3, #39	; 0x27
   159dc:	e6ef0070 	uxtb	r0, r0
   159e0:	e8bd8070 	pop	{r4, r5, r6, pc}
   159e4:	e316008c 	tst	r6, #140	; 0x8c
   159e8:	1a00002d 	bne	15aa4 <KeyMapTranslate+0x140>
   159ec:	e2443053 	sub	r3, r4, #83	; 0x53
   159f0:	e6ef3073 	uxtb	r3, r3
   159f4:	e3530010 	cmp	r3, #16
   159f8:	8a000003 	bhi	15a0c <KeyMapTranslate+0xa8>
   159fc:	e5953184 	ldr	r3, [r5, #388]	; 0x184
   15a00:	e2933000 	adds	r3, r3, #0
   15a04:	13a03001 	movne	r3, #1
   15a08:	ea000006 	b	15a28 <KeyMapTranslate+0xc4>
   15a0c:	e3160040 	tst	r6, #64	; 0x40
   15a10:	13a03002 	movne	r3, #2
   15a14:	1a000003 	bne	15a28 <KeyMapTranslate+0xc4>
   15a18:	e3160022 	tst	r6, #34	; 0x22
   15a1c:	13a03001 	movne	r3, #1
   15a20:	03a03000 	moveq	r3, #0
   15a24:	eaffffff 	b	15a28 <KeyMapTranslate+0xc4>
   15a28:	e0844084 	add	r4, r4, r4, lsl #1
   15a2c:	e0844003 	add	r4, r4, r3
   15a30:	e7d53004 	ldrb	r3, [r5, r4]
   15a34:	e353009e 	cmp	r3, #158	; 0x9e
   15a38:	0a00000f 	beq	15a7c <KeyMapTranslate+0x118>
   15a3c:	e35300a0 	cmp	r3, #160	; 0xa0
   15a40:	0a000007 	beq	15a64 <KeyMapTranslate+0x100>
   15a44:	e353009c 	cmp	r3, #156	; 0x9c
   15a48:	1a000017 	bne	15aac <KeyMapTranslate+0x148>
   15a4c:	e5953180 	ldr	r3, [r5, #384]	; 0x180
   15a50:	e16f3f13 	clz	r3, r3
   15a54:	e1a032a3 	lsr	r3, r3, #5
   15a58:	e5853180 	str	r3, [r5, #384]	; 0x180
   15a5c:	e3a000b3 	mov	r0, #179	; 0xb3
   15a60:	e8bd8070 	pop	{r4, r5, r6, pc}
   15a64:	e5953184 	ldr	r3, [r5, #388]	; 0x184
   15a68:	e16f3f13 	clz	r3, r3
   15a6c:	e1a032a3 	lsr	r3, r3, #5
   15a70:	e5853184 	str	r3, [r5, #388]	; 0x184
   15a74:	e3a000b4 	mov	r0, #180	; 0xb4
   15a78:	e8bd8070 	pop	{r4, r5, r6, pc}
   15a7c:	e5953188 	ldr	r3, [r5, #392]	; 0x188
   15a80:	e16f3f13 	clz	r3, r3
   15a84:	e1a032a3 	lsr	r3, r3, #5
   15a88:	e5853188 	str	r3, [r5, #392]	; 0x188
   15a8c:	e3a000b5 	mov	r0, #181	; 0xb5
   15a90:	e8bd8070 	pop	{r4, r5, r6, pc}
   15a94:	e3a00000 	mov	r0, #0
   15a98:	e8bd8070 	pop	{r4, r5, r6, pc}
   15a9c:	e3a000c2 	mov	r0, #194	; 0xc2
   15aa0:	e8bd8070 	pop	{r4, r5, r6, pc}
   15aa4:	e3a00000 	mov	r0, #0
   15aa8:	e8bd8070 	pop	{r4, r5, r6, pc}
   15aac:	e1a00003 	mov	r0, r3
   15ab0:	e8bd8070 	pop	{r4, r5, r6, pc}

00015ab4 <KeyMapGetString>:
   15ab4:	e92d40f8 	push	{r3, r4, r5, r6, r7, lr}
   15ab8:	e1a04001 	mov	r4, r1
   15abc:	e1a06002 	mov	r6, r2
   15ac0:	e1a05003 	mov	r5, r3
   15ac4:	e2507000 	subs	r7, r0, #0
   15ac8:	1a000005 	bne	15ae4 <KeyMapGetString+0x30>
   15acc:	e3090ce4 	movw	r0, #40164	; 0x9ce4
   15ad0:	e3400001 	movt	r0, #1
   15ad4:	e30b1a40 	movw	r1, #47680	; 0xba40
   15ad8:	e3401001 	movt	r1, #1
   15adc:	e3a020d9 	mov	r2, #217	; 0xd9
   15ae0:	eb000915 	bl	17f3c <uspi_assertion_failed>
   15ae4:	e2443021 	sub	r3, r4, #33	; 0x21
   15ae8:	e6ef3073 	uxtb	r3, r3
   15aec:	e3530091 	cmp	r3, #145	; 0x91
   15af0:	8a000027 	bhi	15b94 <KeyMapGetString+0xe0>
   15af4:	e2243080 	eor	r3, r4, #128	; 0x80
   15af8:	e3530032 	cmp	r3, #50	; 0x32
   15afc:	8a000004 	bhi	15b14 <KeyMapGetString+0x60>
   15b00:	e30b37f4 	movw	r3, #47092	; 0xb7f4
   15b04:	e3403001 	movt	r3, #1
   15b08:	e0834104 	add	r4, r3, r4, lsl #2
   15b0c:	e5140080 	ldr	r0, [r4, #-128]	; 0xffffff80
   15b10:	e8bd80f8 	pop	{r3, r4, r5, r6, r7, pc}
   15b14:	e6ef3074 	uxtb	r3, r4
   15b18:	e3160011 	tst	r6, #17
   15b1c:	0a000009 	beq	15b48 <KeyMapGetString+0x94>
   15b20:	e2443061 	sub	r3, r4, #97	; 0x61
   15b24:	e6ef3073 	uxtb	r3, r3
   15b28:	e3530019 	cmp	r3, #25
   15b2c:	8a00001a 	bhi	15b9c <KeyMapGetString+0xe8>
   15b30:	e2444060 	sub	r4, r4, #96	; 0x60
   15b34:	e5c54000 	strb	r4, [r5]
   15b38:	e3a03000 	mov	r3, #0
   15b3c:	e5c53001 	strb	r3, [r5, #1]
   15b40:	e1a00005 	mov	r0, r5
   15b44:	e8bd80f8 	pop	{r3, r4, r5, r6, r7, pc}
   15b48:	e5972180 	ldr	r2, [r7, #384]	; 0x180
   15b4c:	e3520000 	cmp	r2, #0
   15b50:	0a00000a 	beq	15b80 <KeyMapGetString+0xcc>
   15b54:	e2442041 	sub	r2, r4, #65	; 0x41
   15b58:	e6ef2072 	uxtb	r2, r2
   15b5c:	e3520019 	cmp	r2, #25
   15b60:	92844020 	addls	r4, r4, #32
   15b64:	96ef3074 	uxtbls	r3, r4
   15b68:	9a000004 	bls	15b80 <KeyMapGetString+0xcc>
   15b6c:	e2442061 	sub	r2, r4, #97	; 0x61
   15b70:	e6ef2072 	uxtb	r2, r2
   15b74:	e3520019 	cmp	r2, #25
   15b78:	92444020 	subls	r4, r4, #32
   15b7c:	96ef3074 	uxtbls	r3, r4
   15b80:	e5c53000 	strb	r3, [r5]
   15b84:	e3a03000 	mov	r3, #0
   15b88:	e5c53001 	strb	r3, [r5, #1]
   15b8c:	e1a00005 	mov	r0, r5
   15b90:	e8bd80f8 	pop	{r3, r4, r5, r6, r7, pc}
   15b94:	e3a00000 	mov	r0, #0
   15b98:	e8bd80f8 	pop	{r3, r4, r5, r6, r7, pc}
   15b9c:	e3a00000 	mov	r0, #0
   15ba0:	e8bd80f8 	pop	{r3, r4, r5, r6, r7, pc}

00015ba4 <KeyMapGetLEDStatus>:
   15ba4:	e92d4010 	push	{r4, lr}
   15ba8:	e2504000 	subs	r4, r0, #0
   15bac:	1a000005 	bne	15bc8 <KeyMapGetLEDStatus+0x24>
   15bb0:	e3090ce4 	movw	r0, #40164	; 0x9ce4
   15bb4:	e3400001 	movt	r0, #1
   15bb8:	e30b1a40 	movw	r1, #47680	; 0xba40
   15bbc:	e3401001 	movt	r1, #1
   15bc0:	e300210a 	movw	r2, #266	; 0x10a
   15bc4:	eb0008dc 	bl	17f3c <uspi_assertion_failed>
   15bc8:	e5943180 	ldr	r3, [r4, #384]	; 0x180
   15bcc:	e3530000 	cmp	r3, #0
   15bd0:	03a00000 	moveq	r0, #0
   15bd4:	13a00002 	movne	r0, #2
   15bd8:	e5943184 	ldr	r3, [r4, #388]	; 0x184
   15bdc:	e3530000 	cmp	r3, #0
   15be0:	13800001 	orrne	r0, r0, #1
   15be4:	16ef0070 	uxtbne	r0, r0
   15be8:	e5943188 	ldr	r3, [r4, #392]	; 0x188
   15bec:	e3530000 	cmp	r3, #0
   15bf0:	13800004 	orrne	r0, r0, #4
   15bf4:	e8bd8010 	pop	{r4, pc}

00015bf8 <mem_init>:
   15bf8:	e0801001 	add	r1, r0, r1
   15bfc:	e30f3fff 	movw	r3, #65535	; 0xffff
   15c00:	e340304f 	movt	r3, #79	; 0x4f
   15c04:	e1500003 	cmp	r0, r3
   15c08:	93a00605 	movls	r0, #5242880	; 0x500000
   15c0c:	e30c364c 	movw	r3, #50764	; 0xc64c
   15c10:	e3403001 	movt	r3, #1
   15c14:	e5830000 	str	r0, [r3]
   15c18:	e0602001 	rsb	r2, r0, r1
   15c1c:	e0800122 	add	r0, r0, r2, lsr #2
   15c20:	e5830004 	str	r0, [r3, #4]
   15c24:	e2800a01 	add	r0, r0, #4096	; 0x1000
   15c28:	e3c00eff 	bic	r0, r0, #4080	; 0xff0
   15c2c:	e3c0000f 	bic	r0, r0, #15
   15c30:	e5830008 	str	r0, [r3, #8]
   15c34:	e583100c 	str	r1, [r3, #12]
   15c38:	e12fff1e 	bx	lr

00015c3c <mem_get_size>:
   15c3c:	e30c364c 	movw	r3, #50764	; 0xc64c
   15c40:	e3403001 	movt	r3, #1
   15c44:	e593200c 	ldr	r2, [r3, #12]
   15c48:	e5930008 	ldr	r0, [r3, #8]
   15c4c:	e0600002 	rsb	r0, r0, r2
   15c50:	e5932004 	ldr	r2, [r3, #4]
   15c54:	e5933000 	ldr	r3, [r3]
   15c58:	e0633002 	rsb	r3, r3, r2
   15c5c:	e0800003 	add	r0, r0, r3
   15c60:	e12fff1e 	bx	lr

00015c64 <malloc>:
   15c64:	e92d4070 	push	{r4, r5, r6, lr}
   15c68:	e1a06000 	mov	r6, r0
   15c6c:	e30c364c 	movw	r3, #50764	; 0xc64c
   15c70:	e3403001 	movt	r3, #1
   15c74:	e5933000 	ldr	r3, [r3]
   15c78:	e3530000 	cmp	r3, #0
   15c7c:	1a000005 	bne	15c98 <malloc+0x34>
   15c80:	e30b0b1c 	movw	r0, #47900	; 0xbb1c
   15c84:	e3400001 	movt	r0, #1
   15c88:	e30b1b30 	movw	r1, #47920	; 0xbb30
   15c8c:	e3401001 	movt	r1, #1
   15c90:	e3a02081 	mov	r2, #129	; 0x81
   15c94:	eb0000c2 	bl	15fa4 <assertion_failed>
   15c98:	eb000579 	bl	17284 <EnterCritical>
   15c9c:	e30c35fc 	movw	r3, #50684	; 0xc5fc
   15ca0:	e3403001 	movt	r3, #1
   15ca4:	e5933000 	ldr	r3, [r3]
   15ca8:	e3530000 	cmp	r3, #0
   15cac:	0a000018 	beq	15d14 <malloc+0xb0>
   15cb0:	e1560003 	cmp	r6, r3
   15cb4:	9a00003f 	bls	15db8 <malloc+0x154>
   15cb8:	e30c45fc 	movw	r4, #50684	; 0xc5fc
   15cbc:	e3404001 	movt	r4, #1
   15cc0:	ea000001 	b	15ccc <malloc+0x68>
   15cc4:	e1530006 	cmp	r3, r6
   15cc8:	2a00003c 	bcs	15dc0 <malloc+0x15c>
   15ccc:	e5b43008 	ldr	r3, [r4, #8]!
   15cd0:	e3530000 	cmp	r3, #0
   15cd4:	1afffffa 	bne	15cc4 <malloc+0x60>
   15cd8:	ea00000d 	b	15d14 <malloc+0xb0>
   15cdc:	e5952000 	ldr	r2, [r5]
   15ce0:	e3043d43 	movw	r3, #19779	; 0x4d43
   15ce4:	e344324c 	movt	r3, #16972	; 0x424c
   15ce8:	e1520003 	cmp	r2, r3
   15cec:	0a000005 	beq	15d08 <malloc+0xa4>
   15cf0:	e30b0b38 	movw	r0, #47928	; 0xbb38
   15cf4:	e3400001 	movt	r0, #1
   15cf8:	e30b1b30 	movw	r1, #47920	; 0xbb30
   15cfc:	e3401001 	movt	r1, #1
   15d00:	e3a0209b 	mov	r2, #155	; 0x9b
   15d04:	eb0000a6 	bl	15fa4 <assertion_failed>
   15d08:	e5953008 	ldr	r3, [r5, #8]
   15d0c:	e5843004 	str	r3, [r4, #4]
   15d10:	ea000015 	b	15d6c <malloc+0x108>
   15d14:	e30c264c 	movw	r2, #50764	; 0xc64c
   15d18:	e3402001 	movt	r2, #1
   15d1c:	e5925000 	ldr	r5, [r2]
   15d20:	e286301f 	add	r3, r6, #31
   15d24:	e3c3300f 	bic	r3, r3, #15
   15d28:	e0853003 	add	r3, r5, r3
   15d2c:	e5823000 	str	r3, [r2]
   15d30:	e5922004 	ldr	r2, [r2, #4]
   15d34:	e1530002 	cmp	r3, r2
   15d38:	9a000002 	bls	15d48 <malloc+0xe4>
   15d3c:	eb00055f 	bl	172c0 <LeaveCritical>
   15d40:	e3a00000 	mov	r0, #0
   15d44:	e8bd8070 	pop	{r4, r5, r6, pc}
   15d48:	e3a03043 	mov	r3, #67	; 0x43
   15d4c:	e5c53000 	strb	r3, [r5]
   15d50:	e3a0304d 	mov	r3, #77	; 0x4d
   15d54:	e5c53001 	strb	r3, [r5, #1]
   15d58:	e3a0304c 	mov	r3, #76	; 0x4c
   15d5c:	e5c53002 	strb	r3, [r5, #2]
   15d60:	e3a03042 	mov	r3, #66	; 0x42
   15d64:	e5c53003 	strb	r3, [r5, #3]
   15d68:	e5856004 	str	r6, [r5, #4]
   15d6c:	eb000553 	bl	172c0 <LeaveCritical>
   15d70:	e3a03000 	mov	r3, #0
   15d74:	e5c53008 	strb	r3, [r5, #8]
   15d78:	e5c53009 	strb	r3, [r5, #9]
   15d7c:	e5c5300a 	strb	r3, [r5, #10]
   15d80:	e5c5300b 	strb	r3, [r5, #11]
   15d84:	e2855010 	add	r5, r5, #16
   15d88:	e315000f 	tst	r5, #15
   15d8c:	0a000007 	beq	15db0 <malloc+0x14c>
   15d90:	e30b0b5c 	movw	r0, #47964	; 0xbb5c
   15d94:	e3400001 	movt	r0, #1
   15d98:	e30b1b30 	movw	r1, #47920	; 0xbb30
   15d9c:	e3401001 	movt	r1, #1
   15da0:	e3a020b3 	mov	r2, #179	; 0xb3
   15da4:	eb00007e 	bl	15fa4 <assertion_failed>
   15da8:	e1a00005 	mov	r0, r5
   15dac:	e8bd8070 	pop	{r4, r5, r6, pc}
   15db0:	e1a00005 	mov	r0, r5
   15db4:	e8bd8070 	pop	{r4, r5, r6, pc}
   15db8:	e30c45fc 	movw	r4, #50684	; 0xc5fc
   15dbc:	e3404001 	movt	r4, #1
   15dc0:	e5945004 	ldr	r5, [r4, #4]
   15dc4:	e3550000 	cmp	r5, #0
   15dc8:	01a06003 	moveq	r6, r3
   15dcc:	0affffd0 	beq	15d14 <malloc+0xb0>
   15dd0:	eaffffc1 	b	15cdc <malloc+0x78>

00015dd4 <free>:
   15dd4:	e92d4038 	push	{r3, r4, r5, lr}
   15dd8:	e2505000 	subs	r5, r0, #0
   15ddc:	1a000005 	bne	15df8 <free+0x24>
   15de0:	e30b0b88 	movw	r0, #48008	; 0xbb88
   15de4:	e3400001 	movt	r0, #1
   15de8:	e30b1b30 	movw	r1, #47920	; 0xbb30
   15dec:	e3401001 	movt	r1, #1
   15df0:	e3a020ba 	mov	r2, #186	; 0xba
   15df4:	eb00006a 	bl	15fa4 <assertion_failed>
   15df8:	e5352010 	ldr	r2, [r5, #-16]!
   15dfc:	e3043d43 	movw	r3, #19779	; 0x4d43
   15e00:	e344324c 	movt	r3, #16972	; 0x424c
   15e04:	e1520003 	cmp	r2, r3
   15e08:	0a000005 	beq	15e24 <free+0x50>
   15e0c:	e30b0b38 	movw	r0, #47928	; 0xbb38
   15e10:	e3400001 	movt	r0, #1
   15e14:	e30b1b30 	movw	r1, #47920	; 0xbb30
   15e18:	e3401001 	movt	r1, #1
   15e1c:	e3a020bc 	mov	r2, #188	; 0xbc
   15e20:	eb00005f 	bl	15fa4 <assertion_failed>
   15e24:	e30c35fc 	movw	r3, #50684	; 0xc5fc
   15e28:	e3403001 	movt	r3, #1
   15e2c:	e5933000 	ldr	r3, [r3]
   15e30:	e3530000 	cmp	r3, #0
   15e34:	08bd8038 	popeq	{r3, r4, r5, pc}
   15e38:	e5952004 	ldr	r2, [r5, #4]
   15e3c:	e1530002 	cmp	r3, r2
   15e40:	0a000005 	beq	15e5c <free+0x88>
   15e44:	e30c45fc 	movw	r4, #50684	; 0xc5fc
   15e48:	e3404001 	movt	r4, #1
   15e4c:	ea00000a 	b	15e7c <free+0xa8>
   15e50:	e1530002 	cmp	r3, r2
   15e54:	1a000008 	bne	15e7c <free+0xa8>
   15e58:	ea000001 	b	15e64 <free+0x90>
   15e5c:	e30c45fc 	movw	r4, #50684	; 0xc5fc
   15e60:	e3404001 	movt	r4, #1
   15e64:	eb000506 	bl	17284 <EnterCritical>
   15e68:	e5943004 	ldr	r3, [r4, #4]
   15e6c:	e5853008 	str	r3, [r5, #8]
   15e70:	e5845004 	str	r5, [r4, #4]
   15e74:	eb000511 	bl	172c0 <LeaveCritical>
   15e78:	e8bd8038 	pop	{r3, r4, r5, pc}
   15e7c:	e5b43008 	ldr	r3, [r4, #8]!
   15e80:	e3530000 	cmp	r3, #0
   15e84:	1afffff1 	bne	15e50 <free+0x7c>
   15e88:	e8bd8038 	pop	{r3, r4, r5, pc}

00015e8c <palloc>:
   15e8c:	e92d4010 	push	{r4, lr}
   15e90:	e30c364c 	movw	r3, #50764	; 0xc64c
   15e94:	e3403001 	movt	r3, #1
   15e98:	e5933008 	ldr	r3, [r3, #8]
   15e9c:	e3530000 	cmp	r3, #0
   15ea0:	1a000005 	bne	15ebc <palloc+0x30>
   15ea4:	e30b0b94 	movw	r0, #48020	; 0xbb94
   15ea8:	e3400001 	movt	r0, #1
   15eac:	e30b1b30 	movw	r1, #47920	; 0xbb30
   15eb0:	e3401001 	movt	r1, #1
   15eb4:	e3a020d6 	mov	r2, #214	; 0xd6
   15eb8:	eb000039 	bl	15fa4 <assertion_failed>
   15ebc:	eb0004f0 	bl	17284 <EnterCritical>
   15ec0:	e30c364c 	movw	r3, #50764	; 0xc64c
   15ec4:	e3403001 	movt	r3, #1
   15ec8:	e5934010 	ldr	r4, [r3, #16]
   15ecc:	e3540000 	cmp	r4, #0
   15ed0:	0a000011 	beq	15f1c <palloc+0x90>
   15ed4:	e3043d43 	movw	r3, #19779	; 0x4d43
   15ed8:	e3453047 	movt	r3, #20551	; 0x5047
   15edc:	e5942000 	ldr	r2, [r4]
   15ee0:	e1520003 	cmp	r2, r3
   15ee4:	0a000005 	beq	15f00 <palloc+0x74>
   15ee8:	e30b0ba8 	movw	r0, #48040	; 0xbba8
   15eec:	e3400001 	movt	r0, #1
   15ef0:	e30b1b30 	movw	r1, #47920	; 0xbb30
   15ef4:	e3401001 	movt	r1, #1
   15ef8:	e3a020e4 	mov	r2, #228	; 0xe4
   15efc:	eb000028 	bl	15fa4 <assertion_failed>
   15f00:	e30c364c 	movw	r3, #50764	; 0xc64c
   15f04:	e3403001 	movt	r3, #1
   15f08:	e5942004 	ldr	r2, [r4, #4]
   15f0c:	e5832010 	str	r2, [r3, #16]
   15f10:	e3a03000 	mov	r3, #0
   15f14:	e5843000 	str	r3, [r4]
   15f18:	ea00000a 	b	15f48 <palloc+0xbc>
   15f1c:	e30c364c 	movw	r3, #50764	; 0xc64c
   15f20:	e3403001 	movt	r3, #1
   15f24:	e5934008 	ldr	r4, [r3, #8]
   15f28:	e2842a01 	add	r2, r4, #4096	; 0x1000
   15f2c:	e5832008 	str	r2, [r3, #8]
   15f30:	e593300c 	ldr	r3, [r3, #12]
   15f34:	e1520003 	cmp	r2, r3
   15f38:	9a000002 	bls	15f48 <palloc+0xbc>
   15f3c:	eb0004df 	bl	172c0 <LeaveCritical>
   15f40:	e3a00000 	mov	r0, #0
   15f44:	e8bd8010 	pop	{r4, pc}
   15f48:	eb0004dc 	bl	172c0 <LeaveCritical>
   15f4c:	e1a00004 	mov	r0, r4
   15f50:	e8bd8010 	pop	{r4, pc}

00015f54 <pfree>:
   15f54:	e92d4010 	push	{r4, lr}
   15f58:	e2504000 	subs	r4, r0, #0
   15f5c:	1a000005 	bne	15f78 <pfree+0x24>
   15f60:	e30b0bcc 	movw	r0, #48076	; 0xbbcc
   15f64:	e3400001 	movt	r0, #1
   15f68:	e30b1b30 	movw	r1, #47920	; 0xbb30
   15f6c:	e3401001 	movt	r1, #1
   15f70:	e3a020fd 	mov	r2, #253	; 0xfd
   15f74:	eb00000a 	bl	15fa4 <assertion_failed>
   15f78:	eb0004c1 	bl	17284 <EnterCritical>
   15f7c:	e3043d43 	movw	r3, #19779	; 0x4d43
   15f80:	e3453047 	movt	r3, #20551	; 0x5047
   15f84:	e5843000 	str	r3, [r4]
   15f88:	e30c364c 	movw	r3, #50764	; 0xc64c
   15f8c:	e3403001 	movt	r3, #1
   15f90:	e5932010 	ldr	r2, [r3, #16]
   15f94:	e5842004 	str	r2, [r4, #4]
   15f98:	e5834010 	str	r4, [r3, #16]
   15f9c:	eb0004c7 	bl	172c0 <LeaveCritical>
   15fa0:	e8bd8010 	pop	{r4, pc}

00015fa4 <assertion_failed>:
   15fa4:	e92d40f0 	push	{r4, r5, r6, r7, lr}
   15fa8:	e24dd01c 	sub	sp, sp, #28
   15fac:	e1a05000 	mov	r5, r0
   15fb0:	e1a07001 	mov	r7, r1
   15fb4:	e1a06002 	mov	r6, r2
   15fb8:	e1a0400d 	mov	r4, sp
   15fbc:	e28d000c 	add	r0, sp, #12
   15fc0:	ebffe5fa 	bl	f7b0 <String>
   15fc4:	e28d000c 	add	r0, sp, #12
   15fc8:	e30b1bd8 	movw	r1, #48088	; 0xbbd8
   15fcc:	e3401001 	movt	r1, #1
   15fd0:	e1a02007 	mov	r2, r7
   15fd4:	e1a03006 	mov	r3, r6
   15fd8:	ebffe884 	bl	101f0 <StringFormat>
   15fdc:	e28d000c 	add	r0, sp, #12
   15fe0:	ebffe622 	bl	f870 <StringGet>
   15fe4:	e1a01000 	mov	r1, r0
   15fe8:	e1a00004 	mov	r0, r4
   15fec:	eb000052 	bl	1613c <debug_stacktrace>
   15ff0:	eb000081 	bl	161fc <LoggerGet>
   15ff4:	e1a04000 	mov	r4, r0
   15ff8:	e28d000c 	add	r0, sp, #12
   15ffc:	ebffe61b 	bl	f870 <StringGet>
   16000:	e1a01000 	mov	r1, r0
   16004:	e58d5000 	str	r5, [sp]
   16008:	e1a00004 	mov	r0, r4
   1600c:	e3a02000 	mov	r2, #0
   16010:	e30b3be0 	movw	r3, #48096	; 0xbbe0
   16014:	e3403001 	movt	r3, #1
   16018:	eb000122 	bl	164a8 <LoggerWrite>
   1601c:	e28d000c 	add	r0, sp, #12
   16020:	ebffe602 	bl	f830 <_String>
   16024:	e28dd01c 	add	sp, sp, #28
   16028:	e8bd80f0 	pop	{r4, r5, r6, r7, pc}

0001602c <debug_hexdump>:
   1602c:	e92d41f0 	push	{r4, r5, r6, r7, r8, lr}
   16030:	e24dd048 	sub	sp, sp, #72	; 0x48
   16034:	e1a04000 	mov	r4, r0
   16038:	e1a05001 	mov	r5, r1
   1603c:	e2528000 	subs	r8, r2, #0
   16040:	e30b3bf8 	movw	r3, #48120	; 0xbbf8
   16044:	e3403001 	movt	r3, #1
   16048:	e3520000 	cmp	r2, #0
   1604c:	01a08003 	moveq	r8, r3
   16050:	eb000069 	bl	161fc <LoggerGet>
   16054:	e58d5000 	str	r5, [sp]
   16058:	e58d4004 	str	r4, [sp, #4]
   1605c:	e1a01008 	mov	r1, r8
   16060:	e3a02004 	mov	r2, #4
   16064:	e30b3c00 	movw	r3, #48128	; 0xbc00
   16068:	e3403001 	movt	r3, #1
   1606c:	eb00010d 	bl	164a8 <LoggerWrite>
   16070:	e3550000 	cmp	r5, #0
   16074:	0a00002e 	beq	16134 <debug_hexdump+0x108>
   16078:	e30b6c24 	movw	r6, #48164	; 0xbc24
   1607c:	e3406001 	movt	r6, #1
   16080:	e3a07004 	mov	r7, #4
   16084:	eb00005c 	bl	161fc <LoggerGet>
   16088:	e6ff3074 	uxth	r3, r4
   1608c:	e58d3000 	str	r3, [sp]
   16090:	e5d43000 	ldrb	r3, [r4]
   16094:	e58d3004 	str	r3, [sp, #4]
   16098:	e5d43001 	ldrb	r3, [r4, #1]
   1609c:	e58d3008 	str	r3, [sp, #8]
   160a0:	e5d43002 	ldrb	r3, [r4, #2]
   160a4:	e58d300c 	str	r3, [sp, #12]
   160a8:	e5d43003 	ldrb	r3, [r4, #3]
   160ac:	e58d3010 	str	r3, [sp, #16]
   160b0:	e5d43004 	ldrb	r3, [r4, #4]
   160b4:	e58d3014 	str	r3, [sp, #20]
   160b8:	e5d43005 	ldrb	r3, [r4, #5]
   160bc:	e58d3018 	str	r3, [sp, #24]
   160c0:	e5d43006 	ldrb	r3, [r4, #6]
   160c4:	e58d301c 	str	r3, [sp, #28]
   160c8:	e5d43007 	ldrb	r3, [r4, #7]
   160cc:	e58d3020 	str	r3, [sp, #32]
   160d0:	e5d43008 	ldrb	r3, [r4, #8]
   160d4:	e58d3024 	str	r3, [sp, #36]	; 0x24
   160d8:	e5d43009 	ldrb	r3, [r4, #9]
   160dc:	e58d3028 	str	r3, [sp, #40]	; 0x28
   160e0:	e5d4300a 	ldrb	r3, [r4, #10]
   160e4:	e58d302c 	str	r3, [sp, #44]	; 0x2c
   160e8:	e5d4300b 	ldrb	r3, [r4, #11]
   160ec:	e58d3030 	str	r3, [sp, #48]	; 0x30
   160f0:	e5d4300c 	ldrb	r3, [r4, #12]
   160f4:	e58d3034 	str	r3, [sp, #52]	; 0x34
   160f8:	e5d4300d 	ldrb	r3, [r4, #13]
   160fc:	e58d3038 	str	r3, [sp, #56]	; 0x38
   16100:	e5d4300e 	ldrb	r3, [r4, #14]
   16104:	e58d303c 	str	r3, [sp, #60]	; 0x3c
   16108:	e5d4300f 	ldrb	r3, [r4, #15]
   1610c:	e58d3040 	str	r3, [sp, #64]	; 0x40
   16110:	e1a01008 	mov	r1, r8
   16114:	e1a02007 	mov	r2, r7
   16118:	e1a03006 	mov	r3, r6
   1611c:	eb0000e1 	bl	164a8 <LoggerWrite>
   16120:	e2844010 	add	r4, r4, #16
   16124:	e355000f 	cmp	r5, #15
   16128:	9a000001 	bls	16134 <debug_hexdump+0x108>
   1612c:	e2555010 	subs	r5, r5, #16
   16130:	1affffd3 	bne	16084 <debug_hexdump+0x58>
   16134:	e28dd048 	add	sp, sp, #72	; 0x48
   16138:	e8bd81f0 	pop	{r4, r5, r6, r7, r8, pc}

0001613c <debug_stacktrace>:
   1613c:	e92d47f0 	push	{r4, r5, r6, r7, r8, r9, sl, lr}
   16140:	e24dd008 	sub	sp, sp, #8
   16144:	e2518000 	subs	r8, r1, #0
   16148:	e30b3bf8 	movw	r3, #48120	; 0xbbf8
   1614c:	e3403001 	movt	r3, #1
   16150:	e3510000 	cmp	r1, #0
   16154:	01a08003 	moveq	r8, r3
   16158:	e2404004 	sub	r4, r0, #4
   1615c:	e3a05000 	mov	r5, #0
   16160:	e3097a0c 	movw	r7, #39436	; 0x9a0c
   16164:	e3407001 	movt	r7, #1
   16168:	e30b9c7c 	movw	r9, #48252	; 0xbc7c
   1616c:	e3409001 	movt	r9, #1
   16170:	e3a0a004 	mov	sl, #4
   16174:	e2844004 	add	r4, r4, #4
   16178:	e5940000 	ldr	r0, [r4]
   1617c:	e3500902 	cmp	r0, #32768	; 0x8000
   16180:	3a000009 	bcc	161ac <debug_stacktrace+0x70>
   16184:	e1500007 	cmp	r0, r7
   16188:	2a000007 	bcs	161ac <debug_stacktrace+0x70>
   1618c:	eb00001a 	bl	161fc <LoggerGet>
   16190:	e58d5000 	str	r5, [sp]
   16194:	e5943000 	ldr	r3, [r4]
   16198:	e58d3004 	str	r3, [sp, #4]
   1619c:	e1a01008 	mov	r1, r8
   161a0:	e1a0200a 	mov	r2, sl
   161a4:	e1a03009 	mov	r3, r9
   161a8:	eb0000be 	bl	164a8 <LoggerWrite>
   161ac:	e2855001 	add	r5, r5, #1
   161b0:	e3550040 	cmp	r5, #64	; 0x40
   161b4:	1affffee 	bne	16174 <debug_stacktrace+0x38>
   161b8:	e28dd008 	add	sp, sp, #8
   161bc:	e8bd87f0 	pop	{r4, r5, r6, r7, r8, r9, sl, pc}

000161c0 <Logger>:
   161c0:	e5801000 	str	r1, [r0]
   161c4:	e5802004 	str	r2, [r0, #4]
   161c8:	e3a03000 	mov	r3, #0
   161cc:	e5803008 	str	r3, [r0, #8]
   161d0:	e30c3660 	movw	r3, #50784	; 0xc660
   161d4:	e3403001 	movt	r3, #1
   161d8:	e5830000 	str	r0, [r3]
   161dc:	e12fff1e 	bx	lr

000161e0 <_Logger>:
   161e0:	e30c2660 	movw	r2, #50784	; 0xc660
   161e4:	e3402001 	movt	r2, #1
   161e8:	e3a03000 	mov	r3, #0
   161ec:	e5823000 	str	r3, [r2]
   161f0:	e5803008 	str	r3, [r0, #8]
   161f4:	e5803004 	str	r3, [r0, #4]
   161f8:	e12fff1e 	bx	lr

000161fc <LoggerGet>:
   161fc:	e30c3660 	movw	r3, #50784	; 0xc660
   16200:	e3403001 	movt	r3, #1
   16204:	e5930000 	ldr	r0, [r3]
   16208:	e12fff1e 	bx	lr

0001620c <LoggerWrite2>:
   1620c:	e92d4038 	push	{r3, r4, r5, lr}
   16210:	e1a05000 	mov	r5, r0
   16214:	e1a04001 	mov	r4, r1
   16218:	e1a00001 	mov	r0, r1
   1621c:	eb0007cf 	bl	18160 <strlen>
   16220:	e1a02000 	mov	r2, r0
   16224:	e5950008 	ldr	r0, [r5, #8]
   16228:	e1a01004 	mov	r1, r4
   1622c:	eb000400 	bl	17234 <ScreenDeviceWrite>
   16230:	e8bd8038 	pop	{r3, r4, r5, pc}

00016234 <LoggerWriteV>:
   16234:	e590c000 	ldr	ip, [r0]
   16238:	e15c0002 	cmp	ip, r2
   1623c:	312fff1e 	bxcc	lr
   16240:	e92d41f0 	push	{r4, r5, r6, r7, r8, lr}
   16244:	e24dd010 	sub	sp, sp, #16
   16248:	e1a08003 	mov	r8, r3
   1624c:	e1a06002 	mov	r6, r2
   16250:	e1a05001 	mov	r5, r1
   16254:	e1a04000 	mov	r4, r0
   16258:	e3520000 	cmp	r2, #0
   1625c:	1a000006 	bne	1627c <LoggerWriteV+0x48>
   16260:	e30b1c90 	movw	r1, #48272	; 0xbc90
   16264:	e3401001 	movt	r1, #1
   16268:	ebffffe7 	bl	1620c <LoggerWrite2>
   1626c:	e5940004 	ldr	r0, [r4, #4]
   16270:	e3500000 	cmp	r0, #0
   16274:	1a000073 	bne	16448 <LoggerWriteV+0x214>
   16278:	ea00002e 	b	16338 <LoggerWriteV+0x104>
   1627c:	e5900004 	ldr	r0, [r0, #4]
   16280:	e3500000 	cmp	r0, #0
   16284:	1a000058 	bne	163ec <LoggerWriteV+0x1b8>
   16288:	ea000072 	b	16458 <LoggerWriteV+0x224>
   1628c:	e1a00007 	mov	r0, r7
   16290:	ebffe576 	bl	f870 <StringGet>
   16294:	e1a01000 	mov	r1, r0
   16298:	e1a00004 	mov	r0, r4
   1629c:	ebffffda 	bl	1620c <LoggerWrite2>
   162a0:	e1a00004 	mov	r0, r4
   162a4:	e30b1a4c 	movw	r1, #47692	; 0xba4c
   162a8:	e3401001 	movt	r1, #1
   162ac:	ebffffd6 	bl	1620c <LoggerWrite2>
   162b0:	e1a00007 	mov	r0, r7
   162b4:	ebffe55d 	bl	f830 <_String>
   162b8:	e1a00007 	mov	r0, r7
   162bc:	ebfffec4 	bl	15dd4 <free>
   162c0:	e1a00004 	mov	r0, r4
   162c4:	e1a01005 	mov	r1, r5
   162c8:	ebffffcf 	bl	1620c <LoggerWrite2>
   162cc:	e1a00004 	mov	r0, r4
   162d0:	e30b1c98 	movw	r1, #48280	; 0xbc98
   162d4:	e3401001 	movt	r1, #1
   162d8:	ebffffcb 	bl	1620c <LoggerWrite2>
   162dc:	e28d0004 	add	r0, sp, #4
   162e0:	ebffe532 	bl	f7b0 <String>
   162e4:	e28d0004 	add	r0, sp, #4
   162e8:	e1a01008 	mov	r1, r8
   162ec:	e59d2028 	ldr	r2, [sp, #40]	; 0x28
   162f0:	ebffe663 	bl	fc84 <StringFormatV>
   162f4:	e28d0004 	add	r0, sp, #4
   162f8:	ebffe55c 	bl	f870 <StringGet>
   162fc:	e1a01000 	mov	r1, r0
   16300:	e1a00004 	mov	r0, r4
   16304:	ebffffc0 	bl	1620c <LoggerWrite2>
   16308:	e3560000 	cmp	r6, #0
   1630c:	1a00001c 	bne	16384 <LoggerWriteV+0x150>
   16310:	e1a00004 	mov	r0, r4
   16314:	e30b1c9c 	movw	r1, #48284	; 0xbc9c
   16318:	e3401001 	movt	r1, #1
   1631c:	ebffffba 	bl	1620c <LoggerWrite2>
   16320:	e1a00004 	mov	r0, r4
   16324:	e30b1a5c 	movw	r1, #47708	; 0xba5c
   16328:	e3401001 	movt	r1, #1
   1632c:	ebffffb6 	bl	1620c <LoggerWrite2>
   16330:	f10c0080 	cpsid	i
   16334:	eafffffe 	b	16334 <LoggerWriteV+0x100>
   16338:	e1a00004 	mov	r0, r4
   1633c:	e1a01005 	mov	r1, r5
   16340:	ebffffb1 	bl	1620c <LoggerWrite2>
   16344:	e1a00004 	mov	r0, r4
   16348:	e30b1c98 	movw	r1, #48280	; 0xbc98
   1634c:	e3401001 	movt	r1, #1
   16350:	ebffffad 	bl	1620c <LoggerWrite2>
   16354:	e28d0004 	add	r0, sp, #4
   16358:	ebffe514 	bl	f7b0 <String>
   1635c:	e28d0004 	add	r0, sp, #4
   16360:	e1a01008 	mov	r1, r8
   16364:	e59d2028 	ldr	r2, [sp, #40]	; 0x28
   16368:	ebffe645 	bl	fc84 <StringFormatV>
   1636c:	e28d0004 	add	r0, sp, #4
   16370:	ebffe53e 	bl	f870 <StringGet>
   16374:	e1a01000 	mov	r1, r0
   16378:	e1a00004 	mov	r0, r4
   1637c:	ebffffa2 	bl	1620c <LoggerWrite2>
   16380:	eaffffe2 	b	16310 <LoggerWriteV+0xdc>
   16384:	e1a00004 	mov	r0, r4
   16388:	e30b1a5c 	movw	r1, #47708	; 0xba5c
   1638c:	e3401001 	movt	r1, #1
   16390:	ebffff9d 	bl	1620c <LoggerWrite2>
   16394:	e28d0004 	add	r0, sp, #4
   16398:	ebffe524 	bl	f830 <_String>
   1639c:	ea00003f 	b	164a0 <LoggerWriteV+0x26c>
   163a0:	e1a00004 	mov	r0, r4
   163a4:	e1a01005 	mov	r1, r5
   163a8:	ebffff97 	bl	1620c <LoggerWrite2>
   163ac:	e1a00004 	mov	r0, r4
   163b0:	e30b1c98 	movw	r1, #48280	; 0xbc98
   163b4:	e3401001 	movt	r1, #1
   163b8:	ebffff93 	bl	1620c <LoggerWrite2>
   163bc:	e28d0004 	add	r0, sp, #4
   163c0:	ebffe4fa 	bl	f7b0 <String>
   163c4:	e28d0004 	add	r0, sp, #4
   163c8:	e1a01008 	mov	r1, r8
   163cc:	e59d2028 	ldr	r2, [sp, #40]	; 0x28
   163d0:	ebffe62b 	bl	fc84 <StringFormatV>
   163d4:	e28d0004 	add	r0, sp, #4
   163d8:	ebffe524 	bl	f870 <StringGet>
   163dc:	e1a01000 	mov	r1, r0
   163e0:	e1a00004 	mov	r0, r4
   163e4:	ebffff88 	bl	1620c <LoggerWrite2>
   163e8:	eaffffe5 	b	16384 <LoggerWriteV+0x150>
   163ec:	eb0004d9 	bl	17758 <TimerGetTimeString>
   163f0:	e2507000 	subs	r7, r0, #0
   163f4:	1affffa4 	bne	1628c <LoggerWriteV+0x58>
   163f8:	eaffffe8 	b	163a0 <LoggerWriteV+0x16c>
   163fc:	e1a00004 	mov	r0, r4
   16400:	e1a01005 	mov	r1, r5
   16404:	ebffff80 	bl	1620c <LoggerWrite2>
   16408:	e1a00004 	mov	r0, r4
   1640c:	e30b1c98 	movw	r1, #48280	; 0xbc98
   16410:	e3401001 	movt	r1, #1
   16414:	ebffff7c 	bl	1620c <LoggerWrite2>
   16418:	e28d0004 	add	r0, sp, #4
   1641c:	ebffe4e3 	bl	f7b0 <String>
   16420:	e28d0004 	add	r0, sp, #4
   16424:	e1a01008 	mov	r1, r8
   16428:	e59d2028 	ldr	r2, [sp, #40]	; 0x28
   1642c:	ebffe614 	bl	fc84 <StringFormatV>
   16430:	e28d0004 	add	r0, sp, #4
   16434:	ebffe50d 	bl	f870 <StringGet>
   16438:	e1a01000 	mov	r1, r0
   1643c:	e1a00004 	mov	r0, r4
   16440:	ebffff71 	bl	1620c <LoggerWrite2>
   16444:	eaffffb1 	b	16310 <LoggerWriteV+0xdc>
   16448:	eb0004c2 	bl	17758 <TimerGetTimeString>
   1644c:	e2507000 	subs	r7, r0, #0
   16450:	1affff8d 	bne	1628c <LoggerWriteV+0x58>
   16454:	eaffffe8 	b	163fc <LoggerWriteV+0x1c8>
   16458:	e1a00004 	mov	r0, r4
   1645c:	ebffff6a 	bl	1620c <LoggerWrite2>
   16460:	e1a00004 	mov	r0, r4
   16464:	e30b1c98 	movw	r1, #48280	; 0xbc98
   16468:	e3401001 	movt	r1, #1
   1646c:	ebffff66 	bl	1620c <LoggerWrite2>
   16470:	e28d0004 	add	r0, sp, #4
   16474:	ebffe4cd 	bl	f7b0 <String>
   16478:	e28d0004 	add	r0, sp, #4
   1647c:	e1a01008 	mov	r1, r8
   16480:	e59d2028 	ldr	r2, [sp, #40]	; 0x28
   16484:	ebffe5fe 	bl	fc84 <StringFormatV>
   16488:	e28d0004 	add	r0, sp, #4
   1648c:	ebffe4f7 	bl	f870 <StringGet>
   16490:	e1a01000 	mov	r1, r0
   16494:	e1a00004 	mov	r0, r4
   16498:	ebffff5b 	bl	1620c <LoggerWrite2>
   1649c:	eaffffb8 	b	16384 <LoggerWriteV+0x150>
   164a0:	e28dd010 	add	sp, sp, #16
   164a4:	e8bd81f0 	pop	{r4, r5, r6, r7, r8, pc}

000164a8 <LoggerWrite>:
   164a8:	e52d3004 	push	{r3}		; (str r3, [sp, #-4]!)
   164ac:	e52de004 	push	{lr}		; (str lr, [sp, #-4]!)
   164b0:	e24dd010 	sub	sp, sp, #16
   164b4:	e28d3018 	add	r3, sp, #24
   164b8:	e58d300c 	str	r3, [sp, #12]
   164bc:	e58d3000 	str	r3, [sp]
   164c0:	e59d3014 	ldr	r3, [sp, #20]
   164c4:	ebffff5a 	bl	16234 <LoggerWriteV>
   164c8:	e28dd010 	add	sp, sp, #16
   164cc:	e49de004 	pop	{lr}		; (ldr lr, [sp], #4)
   164d0:	e28dd004 	add	sp, sp, #4
   164d4:	e12fff1e 	bx	lr

000164d8 <LoggerInitialize>:
   164d8:	e92d4008 	push	{r3, lr}
   164dc:	e5801008 	str	r1, [r0, #8]
   164e0:	e30b1ca4 	movw	r1, #48292	; 0xbca4
   164e4:	e3401001 	movt	r1, #1
   164e8:	e3a02003 	mov	r2, #3
   164ec:	e30b3cac 	movw	r3, #48300	; 0xbcac
   164f0:	e3403001 	movt	r3, #1
   164f4:	ebffffeb 	bl	164a8 <LoggerWrite>
   164f8:	e3a00001 	mov	r0, #1
   164fc:	e8bd8008 	pop	{r3, pc}

00016500 <ScreenDevice>:
   16500:	e92d4070 	push	{r4, r5, r6, lr}
   16504:	e1a04000 	mov	r4, r0
   16508:	e1a06001 	mov	r6, r1
   1650c:	e1a05002 	mov	r5, r2
   16510:	e280000c 	add	r0, r0, #12
   16514:	eb000ae7 	bl	190b8 <CharGenerator>
   16518:	e5846000 	str	r6, [r4]
   1651c:	e5845004 	str	r5, [r4, #4]
   16520:	e3a03000 	mov	r3, #0
   16524:	e5843008 	str	r3, [r4, #8]
   16528:	e5843010 	str	r3, [r4, #16]
   1652c:	e5843028 	str	r3, [r4, #40]	; 0x28
   16530:	e584302c 	str	r3, [r4, #44]	; 0x2c
   16534:	e5843030 	str	r3, [r4, #48]	; 0x30
   16538:	e3a02001 	mov	r2, #1
   1653c:	e5842034 	str	r2, [r4, #52]	; 0x34
   16540:	e5c42038 	strb	r2, [r4, #56]	; 0x38
   16544:	e584303c 	str	r3, [r4, #60]	; 0x3c
   16548:	e8bd8070 	pop	{r4, r5, r6, pc}

0001654c <_ScreenDevice>:
   1654c:	e92d4038 	push	{r3, r4, r5, lr}
   16550:	e1a04000 	mov	r4, r0
   16554:	e3a05000 	mov	r5, #0
   16558:	e5805010 	str	r5, [r0, #16]
   1655c:	e5900008 	ldr	r0, [r0, #8]
   16560:	eb0009e0 	bl	18ce8 <_BcmFrameBuffer>
   16564:	e5940008 	ldr	r0, [r4, #8]
   16568:	ebfffe19 	bl	15dd4 <free>
   1656c:	e5845008 	str	r5, [r4, #8]
   16570:	e284000c 	add	r0, r4, #12
   16574:	eb000adb 	bl	190e8 <_CharGenerator>
   16578:	e8bd8038 	pop	{r3, r4, r5, pc}

0001657c <ScreenDeviceGetWidth>:
   1657c:	e590001c 	ldr	r0, [r0, #28]
   16580:	e12fff1e 	bx	lr

00016584 <ScreenDeviceGetHeight>:
   16584:	e5900020 	ldr	r0, [r0, #32]
   16588:	e12fff1e 	bx	lr

0001658c <ScreenDeviceSetPixel>:
   1658c:	e590c01c 	ldr	ip, [r0, #28]
   16590:	e15c0001 	cmp	ip, r1
   16594:	912fff1e 	bxls	lr
   16598:	e590c020 	ldr	ip, [r0, #32]
   1659c:	e15c0002 	cmp	ip, r2
   165a0:	8590c018 	ldrhi	ip, [r0, #24]
   165a4:	85900010 	ldrhi	r0, [r0, #16]
   165a8:	8022029c 	mlahi	r2, ip, r2, r0
   165ac:	87c23001 	strbhi	r3, [r2, r1]
   165b0:	e12fff1e 	bx	lr

000165b4 <ScreenDeviceGetPixel>:
   165b4:	e590301c 	ldr	r3, [r0, #28]
   165b8:	e1530001 	cmp	r3, r1
   165bc:	9a000007 	bls	165e0 <ScreenDeviceGetPixel+0x2c>
   165c0:	e5903020 	ldr	r3, [r0, #32]
   165c4:	e1530002 	cmp	r3, r2
   165c8:	9a000006 	bls	165e8 <ScreenDeviceGetPixel+0x34>
   165cc:	e590c018 	ldr	ip, [r0, #24]
   165d0:	e5903010 	ldr	r3, [r0, #16]
   165d4:	e022329c 	mla	r2, ip, r2, r3
   165d8:	e7d20001 	ldrb	r0, [r2, r1]
   165dc:	e12fff1e 	bx	lr
   165e0:	e3a00000 	mov	r0, #0
   165e4:	e12fff1e 	bx	lr
   165e8:	e3a00000 	mov	r0, #0
   165ec:	e12fff1e 	bx	lr

000165f0 <ScreenDeviceCarriageReturn>:
   165f0:	e3a03000 	mov	r3, #0
   165f4:	e580302c 	str	r3, [r0, #44]	; 0x2c
   165f8:	e12fff1e 	bx	lr

000165fc <ScreenDeviceCursorHome>:
   165fc:	e3a03000 	mov	r3, #0
   16600:	e580302c 	str	r3, [r0, #44]	; 0x2c
   16604:	e5803030 	str	r3, [r0, #48]	; 0x30
   16608:	e12fff1e 	bx	lr

0001660c <ScreenDeviceCursorLeft>:
   1660c:	e92d4070 	push	{r4, r5, r6, lr}
   16610:	e1a04000 	mov	r4, r0
   16614:	e590302c 	ldr	r3, [r0, #44]	; 0x2c
   16618:	e3530000 	cmp	r3, #0
   1661c:	0a000005 	beq	16638 <ScreenDeviceCursorLeft+0x2c>
   16620:	e280000c 	add	r0, r0, #12
   16624:	eb000ab0 	bl	190ec <CharGeneratorGetCharWidth>
   16628:	e594302c 	ldr	r3, [r4, #44]	; 0x2c
   1662c:	e0600003 	rsb	r0, r0, r3
   16630:	e584002c 	str	r0, [r4, #44]	; 0x2c
   16634:	e8bd8070 	pop	{r4, r5, r6, pc}
   16638:	e5903030 	ldr	r3, [r0, #48]	; 0x30
   1663c:	e3530000 	cmp	r3, #0
   16640:	08bd8070 	popeq	{r4, r5, r6, pc}
   16644:	e590501c 	ldr	r5, [r0, #28]
   16648:	e280600c 	add	r6, r0, #12
   1664c:	e1a00006 	mov	r0, r6
   16650:	eb000aa5 	bl	190ec <CharGeneratorGetCharWidth>
   16654:	e0600005 	rsb	r0, r0, r5
   16658:	e584002c 	str	r0, [r4, #44]	; 0x2c
   1665c:	e1a00006 	mov	r0, r6
   16660:	eb000aac 	bl	19118 <CharGeneratorGetCharHeight>
   16664:	e5943030 	ldr	r3, [r4, #48]	; 0x30
   16668:	e0600003 	rsb	r0, r0, r3
   1666c:	e5840030 	str	r0, [r4, #48]	; 0x30
   16670:	e8bd8070 	pop	{r4, r5, r6, pc}

00016674 <ScreenDeviceCursorMove>:
   16674:	e92d40f8 	push	{r3, r4, r5, r6, r7, lr}
   16678:	e1a06000 	mov	r6, r0
   1667c:	e1a05001 	mov	r5, r1
   16680:	e1a04002 	mov	r4, r2
   16684:	e280700c 	add	r7, r0, #12
   16688:	e1a00007 	mov	r0, r7
   1668c:	eb000a96 	bl	190ec <CharGeneratorGetCharWidth>
   16690:	e2444001 	sub	r4, r4, #1
   16694:	e0040094 	mul	r4, r4, r0
   16698:	e1a00007 	mov	r0, r7
   1669c:	eb000a9d 	bl	19118 <CharGeneratorGetCharHeight>
   166a0:	e596301c 	ldr	r3, [r6, #28]
   166a4:	e1540003 	cmp	r4, r3
   166a8:	28bd80f8 	popcs	{r3, r4, r5, r6, r7, pc}
   166ac:	e2455001 	sub	r5, r5, #1
   166b0:	e0050095 	mul	r5, r5, r0
   166b4:	e5963024 	ldr	r3, [r6, #36]	; 0x24
   166b8:	e1550003 	cmp	r5, r3
   166bc:	3586402c 	strcc	r4, [r6, #44]	; 0x2c
   166c0:	35865030 	strcc	r5, [r6, #48]	; 0x30
   166c4:	e8bd80f8 	pop	{r3, r4, r5, r6, r7, pc}

000166c8 <ScreenDeviceCursorUp>:
   166c8:	e92d4070 	push	{r4, r5, r6, lr}
   166cc:	e1a04000 	mov	r4, r0
   166d0:	e5906030 	ldr	r6, [r0, #48]	; 0x30
   166d4:	e280500c 	add	r5, r0, #12
   166d8:	e1a00005 	mov	r0, r5
   166dc:	eb000a8d 	bl	19118 <CharGeneratorGetCharHeight>
   166e0:	e1560000 	cmp	r6, r0
   166e4:	38bd8070 	popcc	{r4, r5, r6, pc}
   166e8:	e1a00005 	mov	r0, r5
   166ec:	eb000a89 	bl	19118 <CharGeneratorGetCharHeight>
   166f0:	e5943030 	ldr	r3, [r4, #48]	; 0x30
   166f4:	e0600003 	rsb	r0, r0, r3
   166f8:	e5840030 	str	r0, [r4, #48]	; 0x30
   166fc:	e8bd8070 	pop	{r4, r5, r6, pc}

00016700 <ScreenDeviceDeleteChars>:
   16700:	e12fff1e 	bx	lr

00016704 <ScreenDeviceDeleteLines>:
   16704:	e12fff1e 	bx	lr

00016708 <ScreenDeviceInsertLines>:
   16708:	e12fff1e 	bx	lr

0001670c <ScreenDeviceInsertMode>:
   1670c:	e580103c 	str	r1, [r0, #60]	; 0x3c
   16710:	e12fff1e 	bx	lr

00016714 <ScreenDeviceReverseScroll>:
   16714:	e12fff1e 	bx	lr

00016718 <ScreenDeviceSetCursorMode>:
   16718:	e5801034 	str	r1, [r0, #52]	; 0x34
   1671c:	e12fff1e 	bx	lr

00016720 <ScreenDeviceSetStandoutMode>:
   16720:	e351001b 	cmp	r1, #27
   16724:	979ff101 	ldrls	pc, [pc, r1, lsl #2]
   16728:	ea000023 	b	167bc <ScreenDeviceSetStandoutMode+0x9c>
   1672c:	0001679c 	muleq	r1, ip, r7
   16730:	000167a8 	andeq	r6, r1, r8, lsr #15
   16734:	000167b4 			; <UNDEFINED> instruction: 0x000167b4
   16738:	000167bc 			; <UNDEFINED> instruction: 0x000167bc
   1673c:	000167bc 			; <UNDEFINED> instruction: 0x000167bc
   16740:	000167bc 			; <UNDEFINED> instruction: 0x000167bc
   16744:	000167bc 			; <UNDEFINED> instruction: 0x000167bc
   16748:	000167bc 			; <UNDEFINED> instruction: 0x000167bc
   1674c:	000167bc 			; <UNDEFINED> instruction: 0x000167bc
   16750:	000167bc 			; <UNDEFINED> instruction: 0x000167bc
   16754:	000167bc 			; <UNDEFINED> instruction: 0x000167bc
   16758:	000167bc 			; <UNDEFINED> instruction: 0x000167bc
   1675c:	000167bc 			; <UNDEFINED> instruction: 0x000167bc
   16760:	000167bc 			; <UNDEFINED> instruction: 0x000167bc
   16764:	000167bc 			; <UNDEFINED> instruction: 0x000167bc
   16768:	000167bc 			; <UNDEFINED> instruction: 0x000167bc
   1676c:	000167bc 			; <UNDEFINED> instruction: 0x000167bc
   16770:	000167bc 			; <UNDEFINED> instruction: 0x000167bc
   16774:	000167bc 			; <UNDEFINED> instruction: 0x000167bc
   16778:	000167bc 			; <UNDEFINED> instruction: 0x000167bc
   1677c:	000167bc 			; <UNDEFINED> instruction: 0x000167bc
   16780:	000167bc 			; <UNDEFINED> instruction: 0x000167bc
   16784:	000167bc 			; <UNDEFINED> instruction: 0x000167bc
   16788:	000167bc 			; <UNDEFINED> instruction: 0x000167bc
   1678c:	000167bc 			; <UNDEFINED> instruction: 0x000167bc
   16790:	000167bc 			; <UNDEFINED> instruction: 0x000167bc
   16794:	000167bc 			; <UNDEFINED> instruction: 0x000167bc
   16798:	0001679c 	muleq	r1, ip, r7
   1679c:	e3a03001 	mov	r3, #1
   167a0:	e5c03038 	strb	r3, [r0, #56]	; 0x38
   167a4:	e12fff1e 	bx	lr
   167a8:	e3a03002 	mov	r3, #2
   167ac:	e5c03038 	strb	r3, [r0, #56]	; 0x38
   167b0:	e12fff1e 	bx	lr
   167b4:	e3a03003 	mov	r3, #3
   167b8:	e5c03038 	strb	r3, [r0, #56]	; 0x38
   167bc:	e12fff1e 	bx	lr

000167c0 <ScreenDeviceScroll>:
   167c0:	e92d43f8 	push	{r3, r4, r5, r6, r7, r8, r9, lr}
   167c4:	e1a05000 	mov	r5, r0
   167c8:	e280000c 	add	r0, r0, #12
   167cc:	eb000a51 	bl	19118 <CharGeneratorGetCharHeight>
   167d0:	e1a08000 	mov	r8, r0
   167d4:	e5954024 	ldr	r4, [r5, #36]	; 0x24
   167d8:	e5956018 	ldr	r6, [r5, #24]
   167dc:	e5957010 	ldr	r7, [r5, #16]
   167e0:	e0604004 	rsb	r4, r0, r4
   167e4:	e0040496 	mul	r4, r6, r4
   167e8:	e0267096 	mla	r6, r6, r0, r7
   167ec:	e3c490ff 	bic	r9, r4, #255	; 0xff
   167f0:	e1a00007 	mov	r0, r7
   167f4:	e1a02009 	mov	r2, r9
   167f8:	e1a01006 	mov	r1, r6
   167fc:	eb0006d2 	bl	1834c <memcpyblk>
   16800:	e6ef2074 	uxtb	r2, r4
   16804:	e0861009 	add	r1, r6, r9
   16808:	e0870009 	add	r0, r7, r9
   1680c:	eb00062c 	bl	180c4 <memcpy>
   16810:	e5953018 	ldr	r3, [r5, #24]
   16814:	e1a00124 	lsr	r0, r4, #2
   16818:	e0020893 	mul	r2, r3, r8
   1681c:	e1b02122 	lsrs	r2, r2, #2
   16820:	08bd83f8 	popeq	{r3, r4, r5, r6, r7, r8, r9, pc}
   16824:	e0870100 	add	r0, r7, r0, lsl #2
   16828:	e1a02102 	lsl	r2, r2, #2
   1682c:	e3a01000 	mov	r1, #0
   16830:	e8bd43f8 	pop	{r3, r4, r5, r6, r7, r8, r9, lr}
   16834:	ea00061a 	b	180a4 <memset>

00016838 <ScreenDeviceCursorDown>:
   16838:	e92d4038 	push	{r3, r4, r5, lr}
   1683c:	e1a04000 	mov	r4, r0
   16840:	e280500c 	add	r5, r0, #12
   16844:	e1a00005 	mov	r0, r5
   16848:	eb000a32 	bl	19118 <CharGeneratorGetCharHeight>
   1684c:	e5943030 	ldr	r3, [r4, #48]	; 0x30
   16850:	e0800003 	add	r0, r0, r3
   16854:	e5840030 	str	r0, [r4, #48]	; 0x30
   16858:	e5942024 	ldr	r2, [r4, #36]	; 0x24
   1685c:	e1500002 	cmp	r0, r2
   16860:	38bd8038 	popcc	{r3, r4, r5, pc}
   16864:	e1a00004 	mov	r0, r4
   16868:	ebffffd4 	bl	167c0 <ScreenDeviceScroll>
   1686c:	e1a00005 	mov	r0, r5
   16870:	eb000a28 	bl	19118 <CharGeneratorGetCharHeight>
   16874:	e5943030 	ldr	r3, [r4, #48]	; 0x30
   16878:	e0600003 	rsb	r0, r0, r3
   1687c:	e5840030 	str	r0, [r4, #48]	; 0x30
   16880:	e8bd8038 	pop	{r3, r4, r5, pc}

00016884 <ScreenDeviceNewLine>:
   16884:	e92d4008 	push	{r3, lr}
   16888:	e3a02000 	mov	r2, #0
   1688c:	e580202c 	str	r2, [r0, #44]	; 0x2c
   16890:	ebffffe8 	bl	16838 <ScreenDeviceCursorDown>
   16894:	e8bd8008 	pop	{r3, pc}

00016898 <ScreenDeviceCursorRight>:
   16898:	e92d4010 	push	{r4, lr}
   1689c:	e1a04000 	mov	r4, r0
   168a0:	e280000c 	add	r0, r0, #12
   168a4:	eb000a10 	bl	190ec <CharGeneratorGetCharWidth>
   168a8:	e594302c 	ldr	r3, [r4, #44]	; 0x2c
   168ac:	e0800003 	add	r0, r0, r3
   168b0:	e584002c 	str	r0, [r4, #44]	; 0x2c
   168b4:	e594301c 	ldr	r3, [r4, #28]
   168b8:	e1500003 	cmp	r0, r3
   168bc:	38bd8010 	popcc	{r4, pc}
   168c0:	e1a00004 	mov	r0, r4
   168c4:	ebffffee 	bl	16884 <ScreenDeviceNewLine>
   168c8:	e8bd8010 	pop	{r4, pc}

000168cc <ScreenDeviceTabulator>:
   168cc:	e92d4010 	push	{r4, lr}
   168d0:	e1a04000 	mov	r4, r0
   168d4:	e280000c 	add	r0, r0, #12
   168d8:	eb000a03 	bl	190ec <CharGeneratorGetCharWidth>
   168dc:	e1a00180 	lsl	r0, r0, #3
   168e0:	e594202c 	ldr	r2, [r4, #44]	; 0x2c
   168e4:	e0802002 	add	r2, r0, r2
   168e8:	e732f012 	udiv	r2, r2, r0
   168ec:	e0030290 	mul	r3, r0, r2
   168f0:	e584302c 	str	r3, [r4, #44]	; 0x2c
   168f4:	e594201c 	ldr	r2, [r4, #28]
   168f8:	e1530002 	cmp	r3, r2
   168fc:	38bd8010 	popcc	{r4, pc}
   16900:	e1a00004 	mov	r0, r4
   16904:	ebffffde 	bl	16884 <ScreenDeviceNewLine>
   16908:	e8bd8010 	pop	{r4, pc}

0001690c <ScreenDeviceDisplayChar2>:
   1690c:	e92d4ff0 	push	{r4, r5, r6, r7, r8, r9, sl, fp, lr}
   16910:	e24dd00c 	sub	sp, sp, #12
   16914:	e1a09000 	mov	r9, r0
   16918:	e58d1000 	str	r1, [sp]
   1691c:	e1a0b002 	mov	fp, r2
   16920:	e58d3004 	str	r3, [sp, #4]
   16924:	e5dda030 	ldrb	sl, [sp, #48]	; 0x30
   16928:	e3a07000 	mov	r7, #0
   1692c:	e280500c 	add	r5, r0, #12
   16930:	ea000016 	b	16990 <ScreenDeviceDisplayChar2+0x84>
   16934:	e084600b 	add	r6, r4, fp
   16938:	e1a00005 	mov	r0, r5
   1693c:	e59d1000 	ldr	r1, [sp]
   16940:	e1a02004 	mov	r2, r4
   16944:	e1a03007 	mov	r3, r7
   16948:	eb000a0c 	bl	19180 <CharGeneratorGetPixel>
   1694c:	e3500000 	cmp	r0, #0
   16950:	e1a00009 	mov	r0, r9
   16954:	e1a01006 	mov	r1, r6
   16958:	e1a02008 	mov	r2, r8
   1695c:	11a0300a 	movne	r3, sl
   16960:	03a03000 	moveq	r3, #0
   16964:	ebffff08 	bl	1658c <ScreenDeviceSetPixel>
   16968:	e2844001 	add	r4, r4, #1
   1696c:	ea000002 	b	1697c <ScreenDeviceDisplayChar2+0x70>
   16970:	e3a04000 	mov	r4, #0
   16974:	e59d3004 	ldr	r3, [sp, #4]
   16978:	e0878003 	add	r8, r7, r3
   1697c:	e1a00005 	mov	r0, r5
   16980:	eb0009d9 	bl	190ec <CharGeneratorGetCharWidth>
   16984:	e1540000 	cmp	r4, r0
   16988:	3affffe9 	bcc	16934 <ScreenDeviceDisplayChar2+0x28>
   1698c:	e2877001 	add	r7, r7, #1
   16990:	e1a00005 	mov	r0, r5
   16994:	eb0009df 	bl	19118 <CharGeneratorGetCharHeight>
   16998:	e1570000 	cmp	r7, r0
   1699c:	3afffff3 	bcc	16970 <ScreenDeviceDisplayChar2+0x64>
   169a0:	e28dd00c 	add	sp, sp, #12
   169a4:	e8bd8ff0 	pop	{r4, r5, r6, r7, r8, r9, sl, fp, pc}

000169a8 <ScreenDeviceRotor>:
   169a8:	e92d40f0 	push	{r4, r5, r6, r7, lr}
   169ac:	e24dd00c 	sub	sp, sp, #12
   169b0:	e1a05000 	mov	r5, r0
   169b4:	e1a04001 	mov	r4, r1
   169b8:	e1a06002 	mov	r6, r2
   169bc:	e590701c 	ldr	r7, [r0, #28]
   169c0:	e280000c 	add	r0, r0, #12
   169c4:	eb0009c8 	bl	190ec <CharGeneratorGetCharWidth>
   169c8:	e30b3cbc 	movw	r3, #48316	; 0xbcbc
   169cc:	e3403001 	movt	r3, #1
   169d0:	e2066003 	and	r6, r6, #3
   169d4:	e19310d6 	ldrsb	r1, [r3, r6]
   169d8:	e2044003 	and	r4, r4, #3
   169dc:	e0220094 	mla	r2, r4, r0, r0
   169e0:	e3a03002 	mov	r3, #2
   169e4:	e58d3000 	str	r3, [sp]
   169e8:	e1a00005 	mov	r0, r5
   169ec:	e0622007 	rsb	r2, r2, r7
   169f0:	e3a03000 	mov	r3, #0
   169f4:	ebffffc4 	bl	1690c <ScreenDeviceDisplayChar2>
   169f8:	e28dd00c 	add	sp, sp, #12
   169fc:	e8bd80f0 	pop	{r4, r5, r6, r7, pc}

00016a00 <ScreenDeviceDisplayChar>:
   16a00:	e2413020 	sub	r3, r1, #32
   16a04:	e6ef3073 	uxtb	r3, r3
   16a08:	e353005e 	cmp	r3, #94	; 0x5e
   16a0c:	812fff1e 	bxhi	lr
   16a10:	e92d4010 	push	{r4, lr}
   16a14:	e24dd008 	sub	sp, sp, #8
   16a18:	e1a04000 	mov	r4, r0
   16a1c:	e5d03038 	ldrb	r3, [r0, #56]	; 0x38
   16a20:	e58d3000 	str	r3, [sp]
   16a24:	e594202c 	ldr	r2, [r4, #44]	; 0x2c
   16a28:	e5943030 	ldr	r3, [r4, #48]	; 0x30
   16a2c:	ebffffb6 	bl	1690c <ScreenDeviceDisplayChar2>
   16a30:	e1a00004 	mov	r0, r4
   16a34:	ebffff97 	bl	16898 <ScreenDeviceCursorRight>
   16a38:	e28dd008 	add	sp, sp, #8
   16a3c:	e8bd8010 	pop	{r4, pc}

00016a40 <ScreenDeviceEraseChar>:
   16a40:	e92d4ff8 	push	{r3, r4, r5, r6, r7, r8, r9, sl, fp, lr}
   16a44:	e1a08000 	mov	r8, r0
   16a48:	e1a09001 	mov	r9, r1
   16a4c:	e1a0b002 	mov	fp, r2
   16a50:	e3a0a000 	mov	sl, #0
   16a54:	e280500c 	add	r5, r0, #12
   16a58:	e1a0600a 	mov	r6, sl
   16a5c:	ea00000d 	b	16a98 <ScreenDeviceEraseChar+0x58>
   16a60:	e1a00008 	mov	r0, r8
   16a64:	e0841009 	add	r1, r4, r9
   16a68:	e1a02007 	mov	r2, r7
   16a6c:	e1a03006 	mov	r3, r6
   16a70:	ebfffec5 	bl	1658c <ScreenDeviceSetPixel>
   16a74:	e2844001 	add	r4, r4, #1
   16a78:	ea000001 	b	16a84 <ScreenDeviceEraseChar+0x44>
   16a7c:	e1a04006 	mov	r4, r6
   16a80:	e08a700b 	add	r7, sl, fp
   16a84:	e1a00005 	mov	r0, r5
   16a88:	eb000997 	bl	190ec <CharGeneratorGetCharWidth>
   16a8c:	e1540000 	cmp	r4, r0
   16a90:	3afffff2 	bcc	16a60 <ScreenDeviceEraseChar+0x20>
   16a94:	e28aa001 	add	sl, sl, #1
   16a98:	e1a00005 	mov	r0, r5
   16a9c:	eb00099d 	bl	19118 <CharGeneratorGetCharHeight>
   16aa0:	e15a0000 	cmp	sl, r0
   16aa4:	3afffff4 	bcc	16a7c <ScreenDeviceEraseChar+0x3c>
   16aa8:	e8bd8ff8 	pop	{r3, r4, r5, r6, r7, r8, r9, sl, fp, pc}

00016aac <ScreenDeviceClearLineEnd>:
   16aac:	e92d4070 	push	{r4, r5, r6, lr}
   16ab0:	e590402c 	ldr	r4, [r0, #44]	; 0x2c
   16ab4:	e590301c 	ldr	r3, [r0, #28]
   16ab8:	e1540003 	cmp	r4, r3
   16abc:	28bd8070 	popcs	{r4, r5, r6, pc}
   16ac0:	e1a05000 	mov	r5, r0
   16ac4:	e280600c 	add	r6, r0, #12
   16ac8:	e1a00005 	mov	r0, r5
   16acc:	e1a01004 	mov	r1, r4
   16ad0:	e5952030 	ldr	r2, [r5, #48]	; 0x30
   16ad4:	ebffffd9 	bl	16a40 <ScreenDeviceEraseChar>
   16ad8:	e1a00006 	mov	r0, r6
   16adc:	eb000982 	bl	190ec <CharGeneratorGetCharWidth>
   16ae0:	e0844000 	add	r4, r4, r0
   16ae4:	e595301c 	ldr	r3, [r5, #28]
   16ae8:	e1530004 	cmp	r3, r4
   16aec:	8afffff5 	bhi	16ac8 <ScreenDeviceClearLineEnd+0x1c>
   16af0:	e8bd8070 	pop	{r4, r5, r6, pc}

00016af4 <ScreenDeviceClearDisplayEnd>:
   16af4:	e92d4038 	push	{r3, r4, r5, lr}
   16af8:	e1a04000 	mov	r4, r0
   16afc:	ebffffea 	bl	16aac <ScreenDeviceClearLineEnd>
   16b00:	e284000c 	add	r0, r4, #12
   16b04:	e5945030 	ldr	r5, [r4, #48]	; 0x30
   16b08:	eb000982 	bl	19118 <CharGeneratorGetCharHeight>
   16b0c:	e5943018 	ldr	r3, [r4, #24]
   16b10:	e0800005 	add	r0, r0, r5
   16b14:	e5942014 	ldr	r2, [r4, #20]
   16b18:	e5941010 	ldr	r1, [r4, #16]
   16b1c:	e0000093 	mul	r0, r3, r0
   16b20:	e0522000 	subs	r2, r2, r0
   16b24:	08bd8038 	popeq	{r3, r4, r5, pc}
   16b28:	e0810000 	add	r0, r1, r0
   16b2c:	e3a01000 	mov	r1, #0
   16b30:	e8bd4038 	pop	{r3, r4, r5, lr}
   16b34:	ea00055a 	b	180a4 <memset>

00016b38 <ScreenDeviceEraseChars>:
   16b38:	e3510000 	cmp	r1, #0
   16b3c:	012fff1e 	bxeq	lr
   16b40:	e92d40f8 	push	{r3, r4, r5, r6, r7, lr}
   16b44:	e1a06001 	mov	r6, r1
   16b48:	e1a05000 	mov	r5, r0
   16b4c:	e590402c 	ldr	r4, [r0, #44]	; 0x2c
   16b50:	e280700c 	add	r7, r0, #12
   16b54:	e1a00007 	mov	r0, r7
   16b58:	eb000963 	bl	190ec <CharGeneratorGetCharWidth>
   16b5c:	e0204096 	mla	r0, r6, r0, r4
   16b60:	e595301c 	ldr	r3, [r5, #28]
   16b64:	e1500003 	cmp	r0, r3
   16b68:	31a06000 	movcc	r6, r0
   16b6c:	21a06003 	movcs	r6, r3
   16b70:	e595402c 	ldr	r4, [r5, #44]	; 0x2c
   16b74:	e1540006 	cmp	r4, r6
   16b78:	28bd80f8 	popcs	{r3, r4, r5, r6, r7, pc}
   16b7c:	e1a00005 	mov	r0, r5
   16b80:	e1a01004 	mov	r1, r4
   16b84:	e5952030 	ldr	r2, [r5, #48]	; 0x30
   16b88:	ebffffac 	bl	16a40 <ScreenDeviceEraseChar>
   16b8c:	e1a00007 	mov	r0, r7
   16b90:	eb000955 	bl	190ec <CharGeneratorGetCharWidth>
   16b94:	e0844000 	add	r4, r4, r0
   16b98:	e1540006 	cmp	r4, r6
   16b9c:	3afffff6 	bcc	16b7c <ScreenDeviceEraseChars+0x44>
   16ba0:	e8bd80f8 	pop	{r3, r4, r5, r6, r7, pc}

00016ba4 <ScreenDeviceWrite2>:
   16ba4:	e92d4010 	push	{r4, lr}
   16ba8:	e1a04000 	mov	r4, r0
   16bac:	e5903028 	ldr	r3, [r0, #40]	; 0x28
   16bb0:	e3530007 	cmp	r3, #7
   16bb4:	979ff103 	ldrls	pc, [pc, r3, lsl #2]
   16bb8:	ea00012d 	b	17074 <ScreenDeviceWrite2+0x4d0>
   16bbc:	00016bdc 	ldrdeq	r6, [r1], -ip
   16bc0:	00016c74 	andeq	r6, r1, r4, ror ip
   16bc4:	00016ca8 	andeq	r6, r1, r8, lsr #25
   16bc8:	00016db8 			; <UNDEFINED> instruction: 0x00016db8
   16bcc:	00016f78 	andeq	r6, r1, r8, ror pc
   16bd0:	00016f54 	andeq	r6, r1, r4, asr pc
   16bd4:	00016f9c 	muleq	r1, ip, pc	; <UNPREDICTABLE>
   16bd8:	00016ffc 	strdeq	r6, [r1], -ip
   16bdc:	e2413008 	sub	r3, r1, #8
   16be0:	e3530013 	cmp	r3, #19
   16be4:	979ff103 	ldrls	pc, [pc, r3, lsl #2]
   16be8:	ea00001f 	b	16c6c <ScreenDeviceWrite2+0xc8>
   16bec:	00016c3c 	andeq	r6, r1, ip, lsr ip
   16bf0:	00016c44 	andeq	r6, r1, r4, asr #24
   16bf4:	00016c4c 	andeq	r6, r1, ip, asr #24
   16bf8:	00016c6c 	andeq	r6, r1, ip, ror #24
   16bfc:	00016c6c 	andeq	r6, r1, ip, ror #24
   16c00:	00016c54 	andeq	r6, r1, r4, asr ip
   16c04:	00016c6c 	andeq	r6, r1, ip, ror #24
   16c08:	00016c6c 	andeq	r6, r1, ip, ror #24
   16c0c:	00016c6c 	andeq	r6, r1, ip, ror #24
   16c10:	00016c6c 	andeq	r6, r1, ip, ror #24
   16c14:	00016c6c 	andeq	r6, r1, ip, ror #24
   16c18:	00016c6c 	andeq	r6, r1, ip, ror #24
   16c1c:	00016c6c 	andeq	r6, r1, ip, ror #24
   16c20:	00016c6c 	andeq	r6, r1, ip, ror #24
   16c24:	00016c6c 	andeq	r6, r1, ip, ror #24
   16c28:	00016c6c 	andeq	r6, r1, ip, ror #24
   16c2c:	00016c6c 	andeq	r6, r1, ip, ror #24
   16c30:	00016c6c 	andeq	r6, r1, ip, ror #24
   16c34:	00016c6c 	andeq	r6, r1, ip, ror #24
   16c38:	00016c60 	andeq	r6, r1, r0, ror #24
   16c3c:	ebfffe72 	bl	1660c <ScreenDeviceCursorLeft>
   16c40:	e8bd8010 	pop	{r4, pc}
   16c44:	ebffff20 	bl	168cc <ScreenDeviceTabulator>
   16c48:	e8bd8010 	pop	{r4, pc}
   16c4c:	ebffff0c 	bl	16884 <ScreenDeviceNewLine>
   16c50:	e8bd8010 	pop	{r4, pc}
   16c54:	e3a03000 	mov	r3, #0
   16c58:	e580302c 	str	r3, [r0, #44]	; 0x2c
   16c5c:	e8bd8010 	pop	{r4, pc}
   16c60:	e3a03001 	mov	r3, #1
   16c64:	e5803028 	str	r3, [r0, #40]	; 0x28
   16c68:	e8bd8010 	pop	{r4, pc}
   16c6c:	ebffff63 	bl	16a00 <ScreenDeviceDisplayChar>
   16c70:	e8bd8010 	pop	{r4, pc}
   16c74:	e351004d 	cmp	r1, #77	; 0x4d
   16c78:	0a000004 	beq	16c90 <ScreenDeviceWrite2+0xec>
   16c7c:	e351005b 	cmp	r1, #91	; 0x5b
   16c80:	03a03002 	moveq	r3, #2
   16c84:	05803028 	streq	r3, [r0, #40]	; 0x28
   16c88:	08bd8010 	popeq	{r4, pc}
   16c8c:	ea000002 	b	16c9c <ScreenDeviceWrite2+0xf8>
   16c90:	e3a03000 	mov	r3, #0
   16c94:	e5803028 	str	r3, [r0, #40]	; 0x28
   16c98:	e8bd8010 	pop	{r4, pc}
   16c9c:	e3a03000 	mov	r3, #0
   16ca0:	e5803028 	str	r3, [r0, #40]	; 0x28
   16ca4:	e8bd8010 	pop	{r4, pc}
   16ca8:	e241303f 	sub	r3, r1, #63	; 0x3f
   16cac:	e3530011 	cmp	r3, #17
   16cb0:	979ff103 	ldrls	pc, [pc, r3, lsl #2]
   16cb4:	ea000036 	b	16d94 <ScreenDeviceWrite2+0x1f0>
   16cb8:	00016d00 	andeq	r6, r1, r0, lsl #26
   16cbc:	00016d94 	muleq	r1, r4, sp
   16cc0:	00016d0c 	andeq	r6, r1, ip, lsl #26
   16cc4:	00016d1c 	andeq	r6, r1, ip, lsl sp
   16cc8:	00016d2c 	andeq	r6, r1, ip, lsr #26
   16ccc:	00016d94 	muleq	r1, r4, sp
   16cd0:	00016d94 	muleq	r1, r4, sp
   16cd4:	00016d94 	muleq	r1, r4, sp
   16cd8:	00016d94 	muleq	r1, r4, sp
   16cdc:	00016d3c 	andeq	r6, r1, ip, lsr sp
   16ce0:	00016d94 	muleq	r1, r4, sp
   16ce4:	00016d50 	andeq	r6, r1, r0, asr sp
   16ce8:	00016d60 	andeq	r6, r1, r0, ror #26
   16cec:	00016d70 	andeq	r6, r1, r0, ror sp
   16cf0:	00016d7c 	andeq	r6, r1, ip, ror sp
   16cf4:	00016d94 	muleq	r1, r4, sp
   16cf8:	00016d94 	muleq	r1, r4, sp
   16cfc:	00016d88 	andeq	r6, r1, r8, lsl #27
   16d00:	e3a03004 	mov	r3, #4
   16d04:	e5803028 	str	r3, [r0, #40]	; 0x28
   16d08:	e8bd8010 	pop	{r4, pc}
   16d0c:	ebfffe6d 	bl	166c8 <ScreenDeviceCursorUp>
   16d10:	e3a03000 	mov	r3, #0
   16d14:	e5843028 	str	r3, [r4, #40]	; 0x28
   16d18:	e8bd8010 	pop	{r4, pc}
   16d1c:	ebfffec5 	bl	16838 <ScreenDeviceCursorDown>
   16d20:	e3a03000 	mov	r3, #0
   16d24:	e5843028 	str	r3, [r4, #40]	; 0x28
   16d28:	e8bd8010 	pop	{r4, pc}
   16d2c:	ebfffed9 	bl	16898 <ScreenDeviceCursorRight>
   16d30:	e3a03000 	mov	r3, #0
   16d34:	e5843028 	str	r3, [r4, #40]	; 0x28
   16d38:	e8bd8010 	pop	{r4, pc}
   16d3c:	e3a03000 	mov	r3, #0
   16d40:	e580302c 	str	r3, [r0, #44]	; 0x2c
   16d44:	e5803030 	str	r3, [r0, #48]	; 0x30
   16d48:	e5803028 	str	r3, [r0, #40]	; 0x28
   16d4c:	e8bd8010 	pop	{r4, pc}
   16d50:	ebffff67 	bl	16af4 <ScreenDeviceClearDisplayEnd>
   16d54:	e3a03000 	mov	r3, #0
   16d58:	e5843028 	str	r3, [r4, #40]	; 0x28
   16d5c:	e8bd8010 	pop	{r4, pc}
   16d60:	ebffff51 	bl	16aac <ScreenDeviceClearLineEnd>
   16d64:	e3a03000 	mov	r3, #0
   16d68:	e5843028 	str	r3, [r4, #40]	; 0x28
   16d6c:	e8bd8010 	pop	{r4, pc}
   16d70:	e3a03000 	mov	r3, #0
   16d74:	e5803028 	str	r3, [r0, #40]	; 0x28
   16d78:	e8bd8010 	pop	{r4, pc}
   16d7c:	e3a03000 	mov	r3, #0
   16d80:	e5803028 	str	r3, [r0, #40]	; 0x28
   16d84:	e8bd8010 	pop	{r4, pc}
   16d88:	e3a03000 	mov	r3, #0
   16d8c:	e5803028 	str	r3, [r0, #40]	; 0x28
   16d90:	e8bd8010 	pop	{r4, pc}
   16d94:	e2413030 	sub	r3, r1, #48	; 0x30
   16d98:	e6ef3073 	uxtb	r3, r3
   16d9c:	e3530009 	cmp	r3, #9
   16da0:	92411030 	subls	r1, r1, #48	; 0x30
   16da4:	95801040 	strls	r1, [r0, #64]	; 0x40
   16da8:	93a03003 	movls	r3, #3
   16dac:	83a03000 	movhi	r3, #0
   16db0:	e5803028 	str	r3, [r0, #40]	; 0x28
   16db4:	e8bd8010 	pop	{r4, pc}
   16db8:	e241303b 	sub	r3, r1, #59	; 0x3b
   16dbc:	e3530032 	cmp	r3, #50	; 0x32
   16dc0:	979ff103 	ldrls	pc, [pc, r3, lsl #2]
   16dc4:	ea000052 	b	16f14 <ScreenDeviceWrite2+0x370>
   16dc8:	00016e94 	muleq	r1, r4, lr
   16dcc:	00016f14 	andeq	r6, r1, r4, lsl pc
   16dd0:	00016f14 	andeq	r6, r1, r4, lsl pc
   16dd4:	00016f14 	andeq	r6, r1, r4, lsl pc
   16dd8:	00016f14 	andeq	r6, r1, r4, lsl pc
   16ddc:	00016f14 	andeq	r6, r1, r4, lsl pc
   16de0:	00016f14 	andeq	r6, r1, r4, lsl pc
   16de4:	00016f14 	andeq	r6, r1, r4, lsl pc
   16de8:	00016f14 	andeq	r6, r1, r4, lsl pc
   16dec:	00016f14 	andeq	r6, r1, r4, lsl pc
   16df0:	00016f14 	andeq	r6, r1, r4, lsl pc
   16df4:	00016f14 	andeq	r6, r1, r4, lsl pc
   16df8:	00016f14 	andeq	r6, r1, r4, lsl pc
   16dfc:	00016f14 	andeq	r6, r1, r4, lsl pc
   16e00:	00016f14 	andeq	r6, r1, r4, lsl pc
   16e04:	00016f14 	andeq	r6, r1, r4, lsl pc
   16e08:	00016f14 	andeq	r6, r1, r4, lsl pc
   16e0c:	00016ea0 	andeq	r6, r1, r0, lsr #29
   16e10:	00016eac 	andeq	r6, r1, ip, lsr #29
   16e14:	00016f14 	andeq	r6, r1, r4, lsl pc
   16e18:	00016f14 	andeq	r6, r1, r4, lsl pc
   16e1c:	00016eb8 			; <UNDEFINED> instruction: 0x00016eb8
   16e20:	00016f14 	andeq	r6, r1, r4, lsl pc
   16e24:	00016f14 	andeq	r6, r1, r4, lsl pc
   16e28:	00016f14 	andeq	r6, r1, r4, lsl pc
   16e2c:	00016f14 	andeq	r6, r1, r4, lsl pc
   16e30:	00016f14 	andeq	r6, r1, r4, lsl pc
   16e34:	00016f14 	andeq	r6, r1, r4, lsl pc
   16e38:	00016f14 	andeq	r6, r1, r4, lsl pc
   16e3c:	00016ec4 	andeq	r6, r1, r4, asr #29
   16e40:	00016f14 	andeq	r6, r1, r4, lsl pc
   16e44:	00016f14 	andeq	r6, r1, r4, lsl pc
   16e48:	00016f14 	andeq	r6, r1, r4, lsl pc
   16e4c:	00016f14 	andeq	r6, r1, r4, lsl pc
   16e50:	00016f14 	andeq	r6, r1, r4, lsl pc
   16e54:	00016f14 	andeq	r6, r1, r4, lsl pc
   16e58:	00016f14 	andeq	r6, r1, r4, lsl pc
   16e5c:	00016f14 	andeq	r6, r1, r4, lsl pc
   16e60:	00016f14 	andeq	r6, r1, r4, lsl pc
   16e64:	00016f14 	andeq	r6, r1, r4, lsl pc
   16e68:	00016f14 	andeq	r6, r1, r4, lsl pc
   16e6c:	00016f14 	andeq	r6, r1, r4, lsl pc
   16e70:	00016f14 	andeq	r6, r1, r4, lsl pc
   16e74:	00016f14 	andeq	r6, r1, r4, lsl pc
   16e78:	00016f14 	andeq	r6, r1, r4, lsl pc
   16e7c:	00016ed8 	ldrdeq	r6, [r1], -r8
   16e80:	00016f14 	andeq	r6, r1, r4, lsl pc
   16e84:	00016f14 	andeq	r6, r1, r4, lsl pc
   16e88:	00016f14 	andeq	r6, r1, r4, lsl pc
   16e8c:	00016ed8 	ldrdeq	r6, [r1], -r8
   16e90:	00016f00 	andeq	r6, r1, r0, lsl #30
   16e94:	e3a03005 	mov	r3, #5
   16e98:	e5803028 	str	r3, [r0, #40]	; 0x28
   16e9c:	e8bd8010 	pop	{r4, pc}
   16ea0:	e3a03000 	mov	r3, #0
   16ea4:	e5803028 	str	r3, [r0, #40]	; 0x28
   16ea8:	e8bd8010 	pop	{r4, pc}
   16eac:	e3a03000 	mov	r3, #0
   16eb0:	e5803028 	str	r3, [r0, #40]	; 0x28
   16eb4:	e8bd8010 	pop	{r4, pc}
   16eb8:	e3a03000 	mov	r3, #0
   16ebc:	e5803028 	str	r3, [r0, #40]	; 0x28
   16ec0:	e8bd8010 	pop	{r4, pc}
   16ec4:	e5941040 	ldr	r1, [r4, #64]	; 0x40
   16ec8:	ebffff1a 	bl	16b38 <ScreenDeviceEraseChars>
   16ecc:	e3a03000 	mov	r3, #0
   16ed0:	e5843028 	str	r3, [r4, #40]	; 0x28
   16ed4:	e8bd8010 	pop	{r4, pc}
   16ed8:	e5903040 	ldr	r3, [r0, #64]	; 0x40
   16edc:	e3530004 	cmp	r3, #4
   16ee0:	1a000003 	bne	16ef4 <ScreenDeviceWrite2+0x350>
   16ee4:	e3510068 	cmp	r1, #104	; 0x68
   16ee8:	13a01000 	movne	r1, #0
   16eec:	03a01001 	moveq	r1, #1
   16ef0:	e580103c 	str	r1, [r0, #60]	; 0x3c
   16ef4:	e3a03000 	mov	r3, #0
   16ef8:	e5843028 	str	r3, [r4, #40]	; 0x28
   16efc:	e8bd8010 	pop	{r4, pc}
   16f00:	e5941040 	ldr	r1, [r4, #64]	; 0x40
   16f04:	ebfffe05 	bl	16720 <ScreenDeviceSetStandoutMode>
   16f08:	e3a03000 	mov	r3, #0
   16f0c:	e5843028 	str	r3, [r4, #40]	; 0x28
   16f10:	e8bd8010 	pop	{r4, pc}
   16f14:	e2413030 	sub	r3, r1, #48	; 0x30
   16f18:	e6ef3073 	uxtb	r3, r3
   16f1c:	e3530009 	cmp	r3, #9
   16f20:	83a03000 	movhi	r3, #0
   16f24:	85803028 	strhi	r3, [r0, #40]	; 0x28
   16f28:	88bd8010 	pophi	{r4, pc}
   16f2c:	e5902040 	ldr	r2, [r0, #64]	; 0x40
   16f30:	e1a03182 	lsl	r3, r2, #3
   16f34:	e0833082 	add	r3, r3, r2, lsl #1
   16f38:	e2433030 	sub	r3, r3, #48	; 0x30
   16f3c:	e0831001 	add	r1, r3, r1
   16f40:	e5801040 	str	r1, [r0, #64]	; 0x40
   16f44:	e3510063 	cmp	r1, #99	; 0x63
   16f48:	83a03000 	movhi	r3, #0
   16f4c:	85803028 	strhi	r3, [r0, #40]	; 0x28
   16f50:	e8bd8010 	pop	{r4, pc}
   16f54:	e2413030 	sub	r3, r1, #48	; 0x30
   16f58:	e6ef3073 	uxtb	r3, r3
   16f5c:	e3530009 	cmp	r3, #9
   16f60:	92411030 	subls	r1, r1, #48	; 0x30
   16f64:	95801044 	strls	r1, [r0, #68]	; 0x44
   16f68:	93a03006 	movls	r3, #6
   16f6c:	83a03000 	movhi	r3, #0
   16f70:	e5803028 	str	r3, [r0, #40]	; 0x28
   16f74:	e8bd8010 	pop	{r4, pc}
   16f78:	e2413030 	sub	r3, r1, #48	; 0x30
   16f7c:	e6ef3073 	uxtb	r3, r3
   16f80:	e3530009 	cmp	r3, #9
   16f84:	92411030 	subls	r1, r1, #48	; 0x30
   16f88:	95801040 	strls	r1, [r0, #64]	; 0x40
   16f8c:	93a03007 	movls	r3, #7
   16f90:	83a03000 	movhi	r3, #0
   16f94:	e5803028 	str	r3, [r0, #40]	; 0x28
   16f98:	e8bd8010 	pop	{r4, pc}
   16f9c:	e3510048 	cmp	r1, #72	; 0x48
   16fa0:	1a000005 	bne	16fbc <ScreenDeviceWrite2+0x418>
   16fa4:	e5941040 	ldr	r1, [r4, #64]	; 0x40
   16fa8:	e5942044 	ldr	r2, [r4, #68]	; 0x44
   16fac:	ebfffdb0 	bl	16674 <ScreenDeviceCursorMove>
   16fb0:	e3a03000 	mov	r3, #0
   16fb4:	e5843028 	str	r3, [r4, #40]	; 0x28
   16fb8:	e8bd8010 	pop	{r4, pc}
   16fbc:	e2413030 	sub	r3, r1, #48	; 0x30
   16fc0:	e6ef3073 	uxtb	r3, r3
   16fc4:	e3530009 	cmp	r3, #9
   16fc8:	83a03000 	movhi	r3, #0
   16fcc:	85803028 	strhi	r3, [r0, #40]	; 0x28
   16fd0:	88bd8010 	pophi	{r4, pc}
   16fd4:	e5902044 	ldr	r2, [r0, #68]	; 0x44
   16fd8:	e1a03182 	lsl	r3, r2, #3
   16fdc:	e0833082 	add	r3, r3, r2, lsl #1
   16fe0:	e2433030 	sub	r3, r3, #48	; 0x30
   16fe4:	e0831001 	add	r1, r3, r1
   16fe8:	e5801044 	str	r1, [r0, #68]	; 0x44
   16fec:	e35100c7 	cmp	r1, #199	; 0xc7
   16ff0:	83a03000 	movhi	r3, #0
   16ff4:	85803028 	strhi	r3, [r0, #40]	; 0x28
   16ff8:	e8bd8010 	pop	{r4, pc}
   16ffc:	e3510068 	cmp	r1, #104	; 0x68
   17000:	0a000001 	beq	1700c <ScreenDeviceWrite2+0x468>
   17004:	e351006c 	cmp	r1, #108	; 0x6c
   17008:	1a000009 	bne	17034 <ScreenDeviceWrite2+0x490>
   1700c:	e5943040 	ldr	r3, [r4, #64]	; 0x40
   17010:	e3530019 	cmp	r3, #25
   17014:	1a000003 	bne	17028 <ScreenDeviceWrite2+0x484>
   17018:	e3510068 	cmp	r1, #104	; 0x68
   1701c:	13a01000 	movne	r1, #0
   17020:	03a01001 	moveq	r1, #1
   17024:	e5841034 	str	r1, [r4, #52]	; 0x34
   17028:	e3a03000 	mov	r3, #0
   1702c:	e5843028 	str	r3, [r4, #40]	; 0x28
   17030:	e8bd8010 	pop	{r4, pc}
   17034:	e2413030 	sub	r3, r1, #48	; 0x30
   17038:	e6ef3073 	uxtb	r3, r3
   1703c:	e3530009 	cmp	r3, #9
   17040:	83a03000 	movhi	r3, #0
   17044:	85803028 	strhi	r3, [r0, #40]	; 0x28
   17048:	88bd8010 	pophi	{r4, pc}
   1704c:	e5902040 	ldr	r2, [r0, #64]	; 0x40
   17050:	e1a03182 	lsl	r3, r2, #3
   17054:	e0833082 	add	r3, r3, r2, lsl #1
   17058:	e2433030 	sub	r3, r3, #48	; 0x30
   1705c:	e0831001 	add	r1, r3, r1
   17060:	e5801040 	str	r1, [r0, #64]	; 0x40
   17064:	e3510063 	cmp	r1, #99	; 0x63
   17068:	83a03000 	movhi	r3, #0
   1706c:	85803028 	strhi	r3, [r0, #40]	; 0x28
   17070:	e8bd8010 	pop	{r4, pc}
   17074:	e3a03000 	mov	r3, #0
   17078:	e5803028 	str	r3, [r0, #40]	; 0x28
   1707c:	e8bd8010 	pop	{r4, pc}

00017080 <ScreenDeviceInvertCursor>:
   17080:	e5903034 	ldr	r3, [r0, #52]	; 0x34
   17084:	e3530000 	cmp	r3, #0
   17088:	012fff1e 	bxeq	lr
   1708c:	e92d47f0 	push	{r4, r5, r6, r7, r8, r9, sl, lr}
   17090:	e1a06000 	mov	r6, r0
   17094:	e280900c 	add	r9, r0, #12
   17098:	e1a00009 	mov	r0, r9
   1709c:	eb00082a 	bl	1914c <CharGeneratorGetUnderline>
   170a0:	e1a08000 	mov	r8, r0
   170a4:	e3a0a000 	mov	sl, #0
   170a8:	ea000016 	b	17108 <ScreenDeviceInvertCursor+0x88>
   170ac:	e596502c 	ldr	r5, [r6, #44]	; 0x2c
   170b0:	e0875005 	add	r5, r7, r5
   170b4:	e5964030 	ldr	r4, [r6, #48]	; 0x30
   170b8:	e0884004 	add	r4, r8, r4
   170bc:	e1a00006 	mov	r0, r6
   170c0:	e1a01005 	mov	r1, r5
   170c4:	e1a02004 	mov	r2, r4
   170c8:	ebfffd39 	bl	165b4 <ScreenDeviceGetPixel>
   170cc:	e3500000 	cmp	r0, #0
   170d0:	e1a00006 	mov	r0, r6
   170d4:	e1a01005 	mov	r1, r5
   170d8:	e1a02004 	mov	r2, r4
   170dc:	05d63038 	ldrbeq	r3, [r6, #56]	; 0x38
   170e0:	11a0300a 	movne	r3, sl
   170e4:	ebfffd28 	bl	1658c <ScreenDeviceSetPixel>
   170e8:	e2877001 	add	r7, r7, #1
   170ec:	ea000000 	b	170f4 <ScreenDeviceInvertCursor+0x74>
   170f0:	e1a0700a 	mov	r7, sl
   170f4:	e1a00009 	mov	r0, r9
   170f8:	eb0007fb 	bl	190ec <CharGeneratorGetCharWidth>
   170fc:	e1570000 	cmp	r7, r0
   17100:	3affffe9 	bcc	170ac <ScreenDeviceInvertCursor+0x2c>
   17104:	e2888001 	add	r8, r8, #1
   17108:	e1a00009 	mov	r0, r9
   1710c:	eb000801 	bl	19118 <CharGeneratorGetCharHeight>
   17110:	e1580000 	cmp	r8, r0
   17114:	3afffff5 	bcc	170f0 <ScreenDeviceInvertCursor+0x70>
   17118:	e8bd87f0 	pop	{r4, r5, r6, r7, r8, r9, sl, pc}

0001711c <ScreenDeviceInitialize>:
   1711c:	e92d4070 	push	{r4, r5, r6, lr}
   17120:	e1a04000 	mov	r4, r0
   17124:	e3a00008 	mov	r0, #8
   17128:	ebfffacd 	bl	15c64 <malloc>
   1712c:	e5840008 	str	r0, [r4, #8]
   17130:	e5941000 	ldr	r1, [r4]
   17134:	e5942004 	ldr	r2, [r4, #4]
   17138:	e3a03008 	mov	r3, #8
   1713c:	eb000696 	bl	18b9c <BcmFrameBuffer>
   17140:	e5940008 	ldr	r0, [r4, #8]
   17144:	e3a01001 	mov	r1, #1
   17148:	e30f2fdf 	movw	r2, #65503	; 0xffdf
   1714c:	eb0006f5 	bl	18d28 <BcmFrameBufferSetPalette>
   17150:	e5940008 	ldr	r0, [r4, #8]
   17154:	e3a01002 	mov	r1, #2
   17158:	e3a02b3e 	mov	r2, #63488	; 0xf800
   1715c:	eb0006f1 	bl	18d28 <BcmFrameBufferSetPalette>
   17160:	e5940008 	ldr	r0, [r4, #8]
   17164:	e3a01003 	mov	r1, #3
   17168:	e3a0201f 	mov	r2, #31
   1716c:	eb0006ed 	bl	18d28 <BcmFrameBufferSetPalette>
   17170:	e5940008 	ldr	r0, [r4, #8]
   17174:	eb0006fd 	bl	18d70 <BcmFrameBufferInitialize>
   17178:	e3500000 	cmp	r0, #0
   1717c:	08bd8070 	popeq	{r4, r5, r6, pc}
   17180:	e5940008 	ldr	r0, [r4, #8]
   17184:	eb000737 	bl	18e68 <BcmFrameBufferGetDepth>
   17188:	e3500008 	cmp	r0, #8
   1718c:	1a000024 	bne	17224 <ScreenDeviceInitialize+0x108>
   17190:	e5940008 	ldr	r0, [r4, #8]
   17194:	eb00073f 	bl	18e98 <BcmFrameBufferGetBuffer>
   17198:	e5840010 	str	r0, [r4, #16]
   1719c:	e5940008 	ldr	r0, [r4, #8]
   171a0:	eb000749 	bl	18ecc <BcmFrameBufferGetSize>
   171a4:	e5840014 	str	r0, [r4, #20]
   171a8:	e5940008 	ldr	r0, [r4, #8]
   171ac:	eb000709 	bl	18dd8 <BcmFrameBufferGetWidth>
   171b0:	e584001c 	str	r0, [r4, #28]
   171b4:	e5940008 	ldr	r0, [r4, #8]
   171b8:	eb000712 	bl	18e08 <BcmFrameBufferGetHeight>
   171bc:	e5840020 	str	r0, [r4, #32]
   171c0:	e5940008 	ldr	r0, [r4, #8]
   171c4:	eb00071b 	bl	18e38 <BcmFrameBufferGetPitch>
   171c8:	e3100003 	tst	r0, #3
   171cc:	1a000016 	bne	1722c <ScreenDeviceInitialize+0x110>
   171d0:	e5940008 	ldr	r0, [r4, #8]
   171d4:	eb000717 	bl	18e38 <BcmFrameBufferGetPitch>
   171d8:	e5840018 	str	r0, [r4, #24]
   171dc:	e5945020 	ldr	r5, [r4, #32]
   171e0:	e284600c 	add	r6, r4, #12
   171e4:	e1a00006 	mov	r0, r6
   171e8:	eb0007ca 	bl	19118 <CharGeneratorGetCharHeight>
   171ec:	e735f015 	udiv	r5, r5, r0
   171f0:	e1a00006 	mov	r0, r6
   171f4:	eb0007c7 	bl	19118 <CharGeneratorGetCharHeight>
   171f8:	e0000590 	mul	r0, r0, r5
   171fc:	e5840024 	str	r0, [r4, #36]	; 0x24
   17200:	e3a03000 	mov	r3, #0
   17204:	e584302c 	str	r3, [r4, #44]	; 0x2c
   17208:	e5843030 	str	r3, [r4, #48]	; 0x30
   1720c:	e1a00004 	mov	r0, r4
   17210:	ebfffe37 	bl	16af4 <ScreenDeviceClearDisplayEnd>
   17214:	e1a00004 	mov	r0, r4
   17218:	ebffff98 	bl	17080 <ScreenDeviceInvertCursor>
   1721c:	e3a00001 	mov	r0, #1
   17220:	e8bd8070 	pop	{r4, r5, r6, pc}
   17224:	e3a00000 	mov	r0, #0
   17228:	e8bd8070 	pop	{r4, r5, r6, pc}
   1722c:	e3a00000 	mov	r0, #0
   17230:	e8bd8070 	pop	{r4, r5, r6, pc}

00017234 <ScreenDeviceWrite>:
   17234:	e92d40f8 	push	{r3, r4, r5, r6, r7, lr}
   17238:	e1a06000 	mov	r6, r0
   1723c:	e1a05001 	mov	r5, r1
   17240:	e1a07002 	mov	r7, r2
   17244:	ebffff8d 	bl	17080 <ScreenDeviceInvertCursor>
   17248:	e3570000 	cmp	r7, #0
   1724c:	0a000006 	beq	1726c <ScreenDeviceWrite+0x38>
   17250:	e1a04007 	mov	r4, r7
   17254:	e1a00006 	mov	r0, r6
   17258:	e0d510d1 	ldrsb	r1, [r5], #1
   1725c:	ebfffe50 	bl	16ba4 <ScreenDeviceWrite2>
   17260:	e2544001 	subs	r4, r4, #1
   17264:	1afffffa 	bne	17254 <ScreenDeviceWrite+0x20>
   17268:	ea000000 	b	17270 <ScreenDeviceWrite+0x3c>
   1726c:	e3a07000 	mov	r7, #0
   17270:	e1a00006 	mov	r0, r6
   17274:	ebffff81 	bl	17080 <ScreenDeviceInvertCursor>
   17278:	f57ff05f 	dmb	sy
   1727c:	e1a00007 	mov	r0, r7
   17280:	e8bd80f8 	pop	{r3, r4, r5, r6, r7, pc}

00017284 <EnterCritical>:
   17284:	e10f2000 	mrs	r2, CPSR
   17288:	f10c0080 	cpsid	i
   1728c:	e30c3664 	movw	r3, #50788	; 0xc664
   17290:	e3403001 	movt	r3, #1
   17294:	e5931000 	ldr	r1, [r3]
   17298:	e2810001 	add	r0, r1, #1
   1729c:	e5830000 	str	r0, [r3]
   172a0:	e3510000 	cmp	r1, #0
   172a4:	02222080 	eoreq	r2, r2, #128	; 0x80
   172a8:	07e023d2 	ubfxeq	r2, r2, #7, #1
   172ac:	030c3664 	movweq	r3, #50788	; 0xc664
   172b0:	03403001 	movteq	r3, #1
   172b4:	05832004 	streq	r2, [r3, #4]
   172b8:	f57ff05f 	dmb	sy
   172bc:	e12fff1e 	bx	lr

000172c0 <LeaveCritical>:
   172c0:	e92d4008 	push	{r3, lr}
   172c4:	f57ff05f 	dmb	sy
   172c8:	e30c3664 	movw	r3, #50788	; 0xc664
   172cc:	e3403001 	movt	r3, #1
   172d0:	e5933000 	ldr	r3, [r3]
   172d4:	e3530000 	cmp	r3, #0
   172d8:	1a000005 	bne	172f4 <LeaveCritical+0x34>
   172dc:	e30b0298 	movw	r0, #45720	; 0xb298
   172e0:	e3400001 	movt	r0, #1
   172e4:	e30b12b0 	movw	r1, #45744	; 0xb2b0
   172e8:	e3401001 	movt	r1, #1
   172ec:	e3a0202e 	mov	r2, #46	; 0x2e
   172f0:	ebfffb2b 	bl	15fa4 <assertion_failed>
   172f4:	e30c2664 	movw	r2, #50788	; 0xc664
   172f8:	e3402001 	movt	r2, #1
   172fc:	e5923000 	ldr	r3, [r2]
   17300:	e2433001 	sub	r3, r3, #1
   17304:	e5823000 	str	r3, [r2]
   17308:	e3530000 	cmp	r3, #0
   1730c:	18bd8008 	popne	{r3, pc}
   17310:	e5923004 	ldr	r3, [r2, #4]
   17314:	e3530000 	cmp	r3, #0
   17318:	08bd8008 	popeq	{r3, pc}
   1731c:	f1080080 	cpsie	i
   17320:	e8bd8008 	pop	{r3, pc}

00017324 <InvalidateDataCache>:
   17324:	e3a02000 	mov	r2, #0
   17328:	e1a03302 	lsl	r3, r2, #6
   1732c:	ee073f56 	mcr	15, 0, r3, cr7, cr6, {2}
   17330:	e3831101 	orr	r1, r3, #1073741824	; 0x40000000
   17334:	ee071f56 	mcr	15, 0, r1, cr7, cr6, {2}
   17338:	e3831102 	orr	r1, r3, #-2147483648	; 0x80000000
   1733c:	ee071f56 	mcr	15, 0, r1, cr7, cr6, {2}
   17340:	e3833103 	orr	r3, r3, #-1073741824	; 0xc0000000
   17344:	ee073f56 	mcr	15, 0, r3, cr7, cr6, {2}
   17348:	e2822001 	add	r2, r2, #1
   1734c:	e3520080 	cmp	r2, #128	; 0x80
   17350:	1afffff4 	bne	17328 <InvalidateDataCache+0x4>
   17354:	e3a02000 	mov	r2, #0
   17358:	e1a03302 	lsl	r3, r2, #6
   1735c:	e3831002 	orr	r1, r3, #2
   17360:	ee071f56 	mcr	15, 0, r1, cr7, cr6, {2}
   17364:	e3831221 	orr	r1, r3, #268435458	; 0x10000002
   17368:	ee071f56 	mcr	15, 0, r1, cr7, cr6, {2}
   1736c:	e3831222 	orr	r1, r3, #536870914	; 0x20000002
   17370:	ee071f56 	mcr	15, 0, r1, cr7, cr6, {2}
   17374:	e3831223 	orr	r1, r3, #805306370	; 0x30000002
   17378:	ee071f56 	mcr	15, 0, r1, cr7, cr6, {2}
   1737c:	e3831109 	orr	r1, r3, #1073741826	; 0x40000002
   17380:	ee071f56 	mcr	15, 0, r1, cr7, cr6, {2}
   17384:	e3831225 	orr	r1, r3, #1342177282	; 0x50000002
   17388:	ee071f56 	mcr	15, 0, r1, cr7, cr6, {2}
   1738c:	e3831226 	orr	r1, r3, #1610612738	; 0x60000002
   17390:	ee071f56 	mcr	15, 0, r1, cr7, cr6, {2}
   17394:	e3831227 	orr	r1, r3, #1879048194	; 0x70000002
   17398:	ee071f56 	mcr	15, 0, r1, cr7, cr6, {2}
   1739c:	e383110a 	orr	r1, r3, #-2147483646	; 0x80000002
   173a0:	ee071f56 	mcr	15, 0, r1, cr7, cr6, {2}
   173a4:	e3831229 	orr	r1, r3, #-1879048190	; 0x90000002
   173a8:	ee071f56 	mcr	15, 0, r1, cr7, cr6, {2}
   173ac:	e383122a 	orr	r1, r3, #-1610612734	; 0xa0000002
   173b0:	ee071f56 	mcr	15, 0, r1, cr7, cr6, {2}
   173b4:	e383122b 	orr	r1, r3, #-1342177278	; 0xb0000002
   173b8:	ee071f56 	mcr	15, 0, r1, cr7, cr6, {2}
   173bc:	e383110b 	orr	r1, r3, #-1073741822	; 0xc0000002
   173c0:	ee071f56 	mcr	15, 0, r1, cr7, cr6, {2}
   173c4:	e383122d 	orr	r1, r3, #-805306366	; 0xd0000002
   173c8:	ee071f56 	mcr	15, 0, r1, cr7, cr6, {2}
   173cc:	e383122e 	orr	r1, r3, #-536870910	; 0xe0000002
   173d0:	ee071f56 	mcr	15, 0, r1, cr7, cr6, {2}
   173d4:	e383322f 	orr	r3, r3, #-268435454	; 0xf0000002
   173d8:	ee073f56 	mcr	15, 0, r3, cr7, cr6, {2}
   173dc:	e2822001 	add	r2, r2, #1
   173e0:	e3520c02 	cmp	r2, #512	; 0x200
   173e4:	1affffdb 	bne	17358 <InvalidateDataCache+0x34>
   173e8:	e12fff1e 	bx	lr

000173ec <CleanDataCache>:
   173ec:	e3a02000 	mov	r2, #0
   173f0:	e1a03302 	lsl	r3, r2, #6
   173f4:	ee073f5a 	mcr	15, 0, r3, cr7, cr10, {2}
   173f8:	e3831101 	orr	r1, r3, #1073741824	; 0x40000000
   173fc:	ee071f5a 	mcr	15, 0, r1, cr7, cr10, {2}
   17400:	e3831102 	orr	r1, r3, #-2147483648	; 0x80000000
   17404:	ee071f5a 	mcr	15, 0, r1, cr7, cr10, {2}
   17408:	e3833103 	orr	r3, r3, #-1073741824	; 0xc0000000
   1740c:	ee073f5a 	mcr	15, 0, r3, cr7, cr10, {2}
   17410:	e2822001 	add	r2, r2, #1
   17414:	e3520080 	cmp	r2, #128	; 0x80
   17418:	1afffff4 	bne	173f0 <CleanDataCache+0x4>
   1741c:	e3a02000 	mov	r2, #0
   17420:	e1a03302 	lsl	r3, r2, #6
   17424:	e3831002 	orr	r1, r3, #2
   17428:	ee071f5a 	mcr	15, 0, r1, cr7, cr10, {2}
   1742c:	e3831221 	orr	r1, r3, #268435458	; 0x10000002
   17430:	ee071f5a 	mcr	15, 0, r1, cr7, cr10, {2}
   17434:	e3831222 	orr	r1, r3, #536870914	; 0x20000002
   17438:	ee071f5a 	mcr	15, 0, r1, cr7, cr10, {2}
   1743c:	e3831223 	orr	r1, r3, #805306370	; 0x30000002
   17440:	ee071f5a 	mcr	15, 0, r1, cr7, cr10, {2}
   17444:	e3831109 	orr	r1, r3, #1073741826	; 0x40000002
   17448:	ee071f5a 	mcr	15, 0, r1, cr7, cr10, {2}
   1744c:	e3831225 	orr	r1, r3, #1342177282	; 0x50000002
   17450:	ee071f5a 	mcr	15, 0, r1, cr7, cr10, {2}
   17454:	e3831226 	orr	r1, r3, #1610612738	; 0x60000002
   17458:	ee071f5a 	mcr	15, 0, r1, cr7, cr10, {2}
   1745c:	e3831227 	orr	r1, r3, #1879048194	; 0x70000002
   17460:	ee071f5a 	mcr	15, 0, r1, cr7, cr10, {2}
   17464:	e383110a 	orr	r1, r3, #-2147483646	; 0x80000002
   17468:	ee071f5a 	mcr	15, 0, r1, cr7, cr10, {2}
   1746c:	e3831229 	orr	r1, r3, #-1879048190	; 0x90000002
   17470:	ee071f5a 	mcr	15, 0, r1, cr7, cr10, {2}
   17474:	e383122a 	orr	r1, r3, #-1610612734	; 0xa0000002
   17478:	ee071f5a 	mcr	15, 0, r1, cr7, cr10, {2}
   1747c:	e383122b 	orr	r1, r3, #-1342177278	; 0xb0000002
   17480:	ee071f5a 	mcr	15, 0, r1, cr7, cr10, {2}
   17484:	e383110b 	orr	r1, r3, #-1073741822	; 0xc0000002
   17488:	ee071f5a 	mcr	15, 0, r1, cr7, cr10, {2}
   1748c:	e383122d 	orr	r1, r3, #-805306366	; 0xd0000002
   17490:	ee071f5a 	mcr	15, 0, r1, cr7, cr10, {2}
   17494:	e383122e 	orr	r1, r3, #-536870910	; 0xe0000002
   17498:	ee071f5a 	mcr	15, 0, r1, cr7, cr10, {2}
   1749c:	e383322f 	orr	r3, r3, #-268435454	; 0xf0000002
   174a0:	ee073f5a 	mcr	15, 0, r3, cr7, cr10, {2}
   174a4:	e2822001 	add	r2, r2, #1
   174a8:	e3520c02 	cmp	r2, #512	; 0x200
   174ac:	1affffdb 	bne	17420 <CleanDataCache+0x34>
   174b0:	e12fff1e 	bx	lr

000174b4 <InvalidateDataCacheRange>:
   174b4:	ee070f36 	mcr	15, 0, r0, cr7, cr6, {1}
   174b8:	e2813040 	add	r3, r1, #64	; 0x40
   174bc:	e353003f 	cmp	r3, #63	; 0x3f
   174c0:	912fff1e 	bxls	lr
   174c4:	e2800040 	add	r0, r0, #64	; 0x40
   174c8:	e3c1103f 	bic	r1, r1, #63	; 0x3f
   174cc:	e0801001 	add	r1, r0, r1
   174d0:	ee070f36 	mcr	15, 0, r0, cr7, cr6, {1}
   174d4:	e1500001 	cmp	r0, r1
   174d8:	e2800040 	add	r0, r0, #64	; 0x40
   174dc:	1afffffb 	bne	174d0 <InvalidateDataCacheRange+0x1c>
   174e0:	e12fff1e 	bx	lr

000174e4 <CleanDataCacheRange>:
   174e4:	ee070f3a 	mcr	15, 0, r0, cr7, cr10, {1}
   174e8:	e2813040 	add	r3, r1, #64	; 0x40
   174ec:	e353003f 	cmp	r3, #63	; 0x3f
   174f0:	912fff1e 	bxls	lr
   174f4:	e2800040 	add	r0, r0, #64	; 0x40
   174f8:	e3c1103f 	bic	r1, r1, #63	; 0x3f
   174fc:	e0801001 	add	r1, r0, r1
   17500:	ee070f3a 	mcr	15, 0, r0, cr7, cr10, {1}
   17504:	e1500001 	cmp	r0, r1
   17508:	e2800040 	add	r0, r0, #64	; 0x40
   1750c:	1afffffb 	bne	17500 <CleanDataCacheRange+0x1c>
   17510:	e12fff1e 	bx	lr

00017514 <CleanAndInvalidateDataCacheRange>:
   17514:	ee070f3e 	mcr	15, 0, r0, cr7, cr14, {1}
   17518:	e2813040 	add	r3, r1, #64	; 0x40
   1751c:	e353003f 	cmp	r3, #63	; 0x3f
   17520:	912fff1e 	bxls	lr
   17524:	e2800040 	add	r0, r0, #64	; 0x40
   17528:	e3c1103f 	bic	r1, r1, #63	; 0x3f
   1752c:	e0801001 	add	r1, r0, r1
   17530:	ee070f3e 	mcr	15, 0, r0, cr7, cr14, {1}
   17534:	e1500001 	cmp	r0, r1
   17538:	e2800040 	add	r0, r0, #64	; 0x40
   1753c:	1afffffb 	bne	17530 <CleanAndInvalidateDataCacheRange+0x1c>
   17540:	e12fff1e 	bx	lr

00017544 <halt>:
   17544:	f10c0080 	cpsid	i
   17548:	eafffffe 	b	17548 <halt+0x4>

0001754c <reboot>:
   1754c:	e92d4008 	push	{r3, lr}
   17550:	f57ff05f 	dmb	sy
   17554:	e3a00024 	mov	r0, #36	; 0x24
   17558:	e3430f10 	movt	r0, #16144	; 0x3f10
   1755c:	e3a01001 	mov	r1, #1
   17560:	e3451a00 	movt	r1, #23040	; 0x5a00
   17564:	eb0008ae 	bl	19824 <write32>
   17568:	e3a0001c 	mov	r0, #28
   1756c:	e3430f10 	movt	r0, #16144	; 0x3f10
   17570:	e3a01020 	mov	r1, #32
   17574:	e3451a00 	movt	r1, #23040	; 0x5a00
   17578:	eb0008a9 	bl	19824 <write32>
   1757c:	eafffffe 	b	1757c <reboot+0x30>

00017580 <sysinit>:
   17580:	e92d4010 	push	{r4, lr}
   17584:	ebffff66 	bl	17324 <InvalidateDataCache>
   17588:	e308403c 	movw	r4, #32828	; 0x803c
   1758c:	e3404000 	movt	r4, #0
   17590:	e3a0009c 	mov	r0, #156	; 0x9c
   17594:	e3440000 	movt	r0, #16384	; 0x4000
   17598:	e1a01004 	mov	r1, r4
   1759c:	eb0008a0 	bl	19824 <write32>
   175a0:	e3a000ac 	mov	r0, #172	; 0xac
   175a4:	e3440000 	movt	r0, #16384	; 0x4000
   175a8:	e1a01004 	mov	r1, r4
   175ac:	eb00089c 	bl	19824 <write32>
   175b0:	e3a000bc 	mov	r0, #188	; 0xbc
   175b4:	e3440000 	movt	r0, #16384	; 0x4000
   175b8:	e1a01004 	mov	r1, r4
   175bc:	eb000898 	bl	19824 <write32>
   175c0:	e30c2634 	movw	r2, #50740	; 0xc634
   175c4:	e3402001 	movt	r2, #1
   175c8:	e30d30bc 	movw	r3, #53436	; 0xd0bc
   175cc:	e3403001 	movt	r3, #1
   175d0:	e1520003 	cmp	r2, r3
   175d4:	2a000006 	bcs	175f4 <sysinit+0x74>
   175d8:	e1a03002 	mov	r3, r2
   175dc:	e3a01000 	mov	r1, #0
   175e0:	e30d20bc 	movw	r2, #53436	; 0xd0bc
   175e4:	e3402001 	movt	r2, #1
   175e8:	e4c31001 	strb	r1, [r3], #1
   175ec:	e1530002 	cmp	r3, r2
   175f0:	1afffffc 	bne	175e8 <sysinit+0x68>
   175f4:	ebffc3c3 	bl	8508 <main>
   175f8:	e3500001 	cmp	r0, #1
   175fc:	1a000000 	bne	17604 <sysinit+0x84>
   17600:	ebffffd1 	bl	1754c <reboot>
   17604:	f10c0080 	cpsid	i
   17608:	eafffffe 	b	17608 <sysinit+0x88>

0001760c <Timer>:
   1760c:	e92d4038 	push	{r3, r4, r5, lr}
   17610:	e1a05001 	mov	r5, r1
   17614:	e2504000 	subs	r4, r0, #0
   17618:	1a000005 	bne	17634 <Timer+0x28>
   1761c:	e3090ce4 	movw	r0, #40164	; 0x9ce4
   17620:	e3400001 	movt	r0, #1
   17624:	e30b1cc4 	movw	r1, #48324	; 0xbcc4
   17628:	e3401001 	movt	r1, #1
   1762c:	e3a02027 	mov	r2, #39	; 0x27
   17630:	ebfffa5b 	bl	15fa4 <assertion_failed>
   17634:	e5845000 	str	r5, [r4]
   17638:	e3a03000 	mov	r3, #0
   1763c:	e5843004 	str	r3, [r4, #4]
   17640:	e5843008 	str	r3, [r4, #8]
   17644:	e3053730 	movw	r3, #22320	; 0x5730
   17648:	e3403005 	movt	r3, #5
   1764c:	e584314c 	str	r3, [r4, #332]	; 0x14c
   17650:	e300315e 	movw	r3, #350	; 0x15e
   17654:	e5843150 	str	r3, [r4, #336]	; 0x150
   17658:	e30c366c 	movw	r3, #50796	; 0xc66c
   1765c:	e3403001 	movt	r3, #1
   17660:	e5933000 	ldr	r3, [r3]
   17664:	e3530000 	cmp	r3, #0
   17668:	0a000005 	beq	17684 <Timer+0x78>
   1766c:	e30a09e0 	movw	r0, #43488	; 0xa9e0
   17670:	e3400001 	movt	r0, #1
   17674:	e30b1cc4 	movw	r1, #48324	; 0xbcc4
   17678:	e3401001 	movt	r1, #1
   1767c:	e3a02033 	mov	r2, #51	; 0x33
   17680:	ebfffa47 	bl	15fa4 <assertion_failed>
   17684:	e30c366c 	movw	r3, #50796	; 0xc66c
   17688:	e3403001 	movt	r3, #1
   1768c:	e5834000 	str	r4, [r3]
   17690:	e3a03000 	mov	r3, #0
   17694:	e1a01003 	mov	r1, r3
   17698:	e0842203 	add	r2, r4, r3, lsl #4
   1769c:	e582100c 	str	r1, [r2, #12]
   176a0:	e2833001 	add	r3, r3, #1
   176a4:	e3530014 	cmp	r3, #20
   176a8:	1afffffa 	bne	17698 <Timer+0x8c>
   176ac:	e8bd8038 	pop	{r3, r4, r5, pc}

000176b0 <_Timer>:
   176b0:	e30c366c 	movw	r3, #50796	; 0xc66c
   176b4:	e3403001 	movt	r3, #1
   176b8:	e3a02000 	mov	r2, #0
   176bc:	e5832000 	str	r2, [r3]
   176c0:	e12fff1e 	bx	lr

000176c4 <TimerGetClockTicks>:
   176c4:	e92d4008 	push	{r3, lr}
   176c8:	e3500000 	cmp	r0, #0
   176cc:	1a000005 	bne	176e8 <TimerGetClockTicks+0x24>
   176d0:	e3090ce4 	movw	r0, #40164	; 0x9ce4
   176d4:	e3400001 	movt	r0, #1
   176d8:	e30b1cc4 	movw	r1, #48324	; 0xbcc4
   176dc:	e3401001 	movt	r1, #1
   176e0:	e3a02057 	mov	r2, #87	; 0x57
   176e4:	ebfffa2e 	bl	15fa4 <assertion_failed>
   176e8:	f57ff05f 	dmb	sy
   176ec:	e3030004 	movw	r0, #12292	; 0x3004
   176f0:	e3430f00 	movt	r0, #16128	; 0x3f00
   176f4:	eb000848 	bl	1981c <read32>
   176f8:	f57ff05f 	dmb	sy
   176fc:	e8bd8008 	pop	{r3, pc}

00017700 <TimerGetTicks>:
   17700:	e92d4010 	push	{r4, lr}
   17704:	e2504000 	subs	r4, r0, #0
   17708:	1a000005 	bne	17724 <TimerGetTicks+0x24>
   1770c:	e3090ce4 	movw	r0, #40164	; 0x9ce4
   17710:	e3400001 	movt	r0, #1
   17714:	e30b1cc4 	movw	r1, #48324	; 0xbcc4
   17718:	e3401001 	movt	r1, #1
   1771c:	e3a02064 	mov	r2, #100	; 0x64
   17720:	ebfffa1f 	bl	15fa4 <assertion_failed>
   17724:	e5940004 	ldr	r0, [r4, #4]
   17728:	e8bd8010 	pop	{r4, pc}

0001772c <TimerGetTime>:
   1772c:	e92d4010 	push	{r4, lr}
   17730:	e2504000 	subs	r4, r0, #0
   17734:	1a000005 	bne	17750 <TimerGetTime+0x24>
   17738:	e3090ce4 	movw	r0, #40164	; 0x9ce4
   1773c:	e3400001 	movt	r0, #1
   17740:	e30b1cc4 	movw	r1, #48324	; 0xbcc4
   17744:	e3401001 	movt	r1, #1
   17748:	e3a0206b 	mov	r2, #107	; 0x6b
   1774c:	ebfffa14 	bl	15fa4 <assertion_failed>
   17750:	e5940008 	ldr	r0, [r4, #8]
   17754:	e8bd8010 	pop	{r4, pc}

00017758 <TimerGetTimeString>:
   17758:	e92d41f0 	push	{r4, r5, r6, r7, r8, lr}
   1775c:	e24dd008 	sub	sp, sp, #8
   17760:	e2504000 	subs	r4, r0, #0
   17764:	1a000005 	bne	17780 <TimerGetTimeString+0x28>
   17768:	e3090ce4 	movw	r0, #40164	; 0x9ce4
   1776c:	e3400001 	movt	r0, #1
   17770:	e30b1cc4 	movw	r1, #48324	; 0xbcc4
   17774:	e3401001 	movt	r1, #1
   17778:	e3a02072 	mov	r2, #114	; 0x72
   1777c:	ebfffa08 	bl	15fa4 <assertion_failed>
   17780:	ebfffebf 	bl	17284 <EnterCritical>
   17784:	e5945008 	ldr	r5, [r4, #8]
   17788:	e5944004 	ldr	r4, [r4, #4]
   1778c:	ebfffecb 	bl	172c0 <LeaveCritical>
   17790:	e3540000 	cmp	r4, #0
   17794:	03a00000 	moveq	r0, #0
   17798:	0a000029 	beq	17844 <TimerGetTimeString+0xec>
   1779c:	e3082889 	movw	r2, #34953	; 0x8889
   177a0:	e3482888 	movt	r2, #34952	; 0x8888
   177a4:	e0810295 	umull	r0, r1, r5, r2
   177a8:	e1a062a1 	lsr	r6, r1, #5
   177ac:	e1a03306 	lsl	r3, r6, #6
   177b0:	e0436106 	sub	r6, r3, r6, lsl #2
   177b4:	e0666005 	rsb	r6, r6, r5
   177b8:	e1a012a1 	lsr	r1, r1, #5
   177bc:	e0832291 	umull	r2, r3, r1, r2
   177c0:	e1a052a3 	lsr	r5, r3, #5
   177c4:	e1a02305 	lsl	r2, r5, #6
   177c8:	e0425105 	sub	r5, r2, r5, lsl #2
   177cc:	e0655001 	rsb	r5, r5, r1
   177d0:	e1a072a3 	lsr	r7, r3, #5
   177d4:	e308051f 	movw	r0, #34079	; 0x851f
   177d8:	e34501eb 	movt	r0, #20971	; 0x51eb
   177dc:	e0810094 	umull	r0, r1, r4, r0
   177e0:	e1a082a1 	lsr	r8, r1, #5
   177e4:	e3a03064 	mov	r3, #100	; 0x64
   177e8:	e0684893 	mls	r8, r3, r8, r4
   177ec:	e3a0000c 	mov	r0, #12
   177f0:	ebfff91b 	bl	15c64 <malloc>
   177f4:	e2504000 	subs	r4, r0, #0
   177f8:	1a000005 	bne	17814 <TimerGetTimeString+0xbc>
   177fc:	e30a05dc 	movw	r0, #42460	; 0xa5dc
   17800:	e3400001 	movt	r0, #1
   17804:	e30b1cc4 	movw	r1, #48324	; 0xbcc4
   17808:	e3401001 	movt	r1, #1
   1780c:	e3a0208c 	mov	r2, #140	; 0x8c
   17810:	ebfff9e3 	bl	15fa4 <assertion_failed>
   17814:	e1a00004 	mov	r0, r4
   17818:	ebffdfe4 	bl	f7b0 <String>
   1781c:	e58d6000 	str	r6, [sp]
   17820:	e58d8004 	str	r8, [sp, #4]
   17824:	e1a00004 	mov	r0, r4
   17828:	e30b1ccc 	movw	r1, #48332	; 0xbccc
   1782c:	e3401001 	movt	r1, #1
   17830:	e1a02007 	mov	r2, r7
   17834:	e1a03005 	mov	r3, r5
   17838:	ebffe26c 	bl	101f0 <StringFormat>
   1783c:	e1a00004 	mov	r0, r4
   17840:	eaffffff 	b	17844 <TimerGetTimeString+0xec>
   17844:	e28dd008 	add	sp, sp, #8
   17848:	e8bd81f0 	pop	{r4, r5, r6, r7, r8, pc}

0001784c <TimerStartKernelTimer>:
   1784c:	e92d41f0 	push	{r4, r5, r6, r7, r8, lr}
   17850:	e1a07001 	mov	r7, r1
   17854:	e1a08002 	mov	r8, r2
   17858:	e1a06003 	mov	r6, r3
   1785c:	e2505000 	subs	r5, r0, #0
   17860:	1a000005 	bne	1787c <TimerStartKernelTimer+0x30>
   17864:	e3090ce4 	movw	r0, #40164	; 0x9ce4
   17868:	e3400001 	movt	r0, #1
   1786c:	e30b1cc4 	movw	r1, #48324	; 0xbcc4
   17870:	e3401001 	movt	r1, #1
   17874:	e3a02096 	mov	r2, #150	; 0x96
   17878:	ebfff9c9 	bl	15fa4 <assertion_failed>
   1787c:	ebfffe80 	bl	17284 <EnterCritical>
   17880:	e595300c 	ldr	r3, [r5, #12]
   17884:	e3530000 	cmp	r3, #0
   17888:	0a000023 	beq	1791c <TimerStartKernelTimer+0xd0>
   1788c:	e3a04001 	mov	r4, #1
   17890:	e085c204 	add	ip, r5, r4, lsl #4
   17894:	e59cc00c 	ldr	ip, [ip, #12]
   17898:	e35c0000 	cmp	ip, #0
   1789c:	0a00001f 	beq	17920 <TimerStartKernelTimer+0xd4>
   178a0:	e2844001 	add	r4, r4, #1
   178a4:	e3540014 	cmp	r4, #20
   178a8:	1afffff8 	bne	17890 <TimerStartKernelTimer+0x44>
   178ac:	ea000010 	b	178f4 <TimerStartKernelTimer+0xa8>
   178b0:	e30b0ce4 	movw	r0, #48356	; 0xbce4
   178b4:	e3400001 	movt	r0, #1
   178b8:	e30b1cc4 	movw	r1, #48324	; 0xbcc4
   178bc:	e3401001 	movt	r1, #1
   178c0:	e3a020ac 	mov	r2, #172	; 0xac
   178c4:	ebfff9b6 	bl	15fa4 <assertion_failed>
   178c8:	e0850204 	add	r0, r5, r4, lsl #4
   178cc:	e580800c 	str	r8, [r0, #12]
   178d0:	e5952004 	ldr	r2, [r5, #4]
   178d4:	e0871002 	add	r1, r7, r2
   178d8:	e5801010 	str	r1, [r0, #16]
   178dc:	e5806014 	str	r6, [r0, #20]
   178e0:	e59d3018 	ldr	r3, [sp, #24]
   178e4:	e5803018 	str	r3, [r0, #24]
   178e8:	ebfffe74 	bl	172c0 <LeaveCritical>
   178ec:	e2840001 	add	r0, r4, #1
   178f0:	e8bd81f0 	pop	{r4, r5, r6, r7, r8, pc}
   178f4:	ebfffe71 	bl	172c0 <LeaveCritical>
   178f8:	ebfffa3f 	bl	161fc <LoggerGet>
   178fc:	e30b1cf4 	movw	r1, #48372	; 0xbcf4
   17900:	e3401001 	movt	r1, #1
   17904:	e3a02000 	mov	r2, #0
   17908:	e30b3cfc 	movw	r3, #48380	; 0xbcfc
   1790c:	e3403001 	movt	r3, #1
   17910:	ebfffae4 	bl	164a8 <LoggerWrite>
   17914:	e3a00000 	mov	r0, #0
   17918:	e8bd81f0 	pop	{r4, r5, r6, r7, r8, pc}
   1791c:	e3a04000 	mov	r4, #0
   17920:	e3580000 	cmp	r8, #0
   17924:	1affffe7 	bne	178c8 <TimerStartKernelTimer+0x7c>
   17928:	eaffffe0 	b	178b0 <TimerStartKernelTimer+0x64>

0001792c <TimerCancelKernelTimer>:
   1792c:	e92d4038 	push	{r3, r4, r5, lr}
   17930:	e1a04001 	mov	r4, r1
   17934:	e2505000 	subs	r5, r0, #0
   17938:	1a000005 	bne	17954 <TimerCancelKernelTimer+0x28>
   1793c:	e3090ce4 	movw	r0, #40164	; 0x9ce4
   17940:	e3400001 	movt	r0, #1
   17944:	e30b1cc4 	movw	r1, #48324	; 0xbcc4
   17948:	e3401001 	movt	r1, #1
   1794c:	e3a020b9 	mov	r2, #185	; 0xb9
   17950:	ebfff993 	bl	15fa4 <assertion_failed>
   17954:	e2444001 	sub	r4, r4, #1
   17958:	e3540013 	cmp	r4, #19
   1795c:	9a000005 	bls	17978 <TimerCancelKernelTimer+0x4c>
   17960:	e30b0d24 	movw	r0, #48420	; 0xbd24
   17964:	e3400001 	movt	r0, #1
   17968:	e30b1cc4 	movw	r1, #48324	; 0xbcc4
   1796c:	e3401001 	movt	r1, #1
   17970:	e3a020bb 	mov	r2, #187	; 0xbb
   17974:	ebfff98a 	bl	15fa4 <assertion_failed>
   17978:	e0854204 	add	r4, r5, r4, lsl #4
   1797c:	e3a03000 	mov	r3, #0
   17980:	e584300c 	str	r3, [r4, #12]
   17984:	e8bd8038 	pop	{r3, r4, r5, pc}

00017988 <TimerMsDelay>:
   17988:	e92d4038 	push	{r3, r4, r5, lr}
   1798c:	e1a04001 	mov	r4, r1
   17990:	e2505000 	subs	r5, r0, #0
   17994:	1a000005 	bne	179b0 <TimerMsDelay+0x28>
   17998:	e3090ce4 	movw	r0, #40164	; 0x9ce4
   1799c:	e3400001 	movt	r0, #1
   179a0:	e30b1cc4 	movw	r1, #48324	; 0xbcc4
   179a4:	e3401001 	movt	r1, #1
   179a8:	e3a020c1 	mov	r2, #193	; 0xc1
   179ac:	ebfff97c 	bl	15fa4 <assertion_failed>
   179b0:	e3540000 	cmp	r4, #0
   179b4:	08bd8038 	popeq	{r3, r4, r5, pc}
   179b8:	e595014c 	ldr	r0, [r5, #332]	; 0x14c
   179bc:	e0000490 	mul	r0, r0, r4
   179c0:	eb000622 	bl	19250 <DelayLoop>
   179c4:	e8bd8038 	pop	{r3, r4, r5, pc}

000179c8 <TimerusDelay>:
   179c8:	e92d4038 	push	{r3, r4, r5, lr}
   179cc:	e1a04001 	mov	r4, r1
   179d0:	e2505000 	subs	r5, r0, #0
   179d4:	1a000005 	bne	179f0 <TimerusDelay+0x28>
   179d8:	e3090ce4 	movw	r0, #40164	; 0x9ce4
   179dc:	e3400001 	movt	r0, #1
   179e0:	e30b1cc4 	movw	r1, #48324	; 0xbcc4
   179e4:	e3401001 	movt	r1, #1
   179e8:	e3a020cd 	mov	r2, #205	; 0xcd
   179ec:	ebfff96c 	bl	15fa4 <assertion_failed>
   179f0:	e3540000 	cmp	r4, #0
   179f4:	08bd8038 	popeq	{r3, r4, r5, pc}
   179f8:	e5950150 	ldr	r0, [r5, #336]	; 0x150
   179fc:	e0000490 	mul	r0, r0, r4
   17a00:	eb000612 	bl	19250 <DelayLoop>
   17a04:	e8bd8038 	pop	{r3, r4, r5, pc}

00017a08 <TimerGet>:
   17a08:	e92d4008 	push	{r3, lr}
   17a0c:	e30c366c 	movw	r3, #50796	; 0xc66c
   17a10:	e3403001 	movt	r3, #1
   17a14:	e5933000 	ldr	r3, [r3]
   17a18:	e3530000 	cmp	r3, #0
   17a1c:	1a000005 	bne	17a38 <TimerGet+0x30>
   17a20:	e30a0a34 	movw	r0, #43572	; 0xaa34
   17a24:	e3400001 	movt	r0, #1
   17a28:	e30b1cc4 	movw	r1, #48324	; 0xbcc4
   17a2c:	e3401001 	movt	r1, #1
   17a30:	e3a020d9 	mov	r2, #217	; 0xd9
   17a34:	ebfff95a 	bl	15fa4 <assertion_failed>
   17a38:	e30c366c 	movw	r3, #50796	; 0xc66c
   17a3c:	e3403001 	movt	r3, #1
   17a40:	e5930000 	ldr	r0, [r3]
   17a44:	e8bd8008 	pop	{r3, pc}

00017a48 <TimerSimpleusDelay>:
   17a48:	e3500000 	cmp	r0, #0
   17a4c:	012fff1e 	bxeq	lr
   17a50:	e92d4070 	push	{r4, r5, r6, lr}
   17a54:	e1a04000 	mov	r4, r0
   17a58:	f57ff05f 	dmb	sy
   17a5c:	e3030004 	movw	r0, #12292	; 0x3004
   17a60:	e3430f00 	movt	r0, #16128	; 0x3f00
   17a64:	eb00076c 	bl	1981c <read32>
   17a68:	e1a06000 	mov	r6, r0
   17a6c:	e3035004 	movw	r5, #12292	; 0x3004
   17a70:	e3435f00 	movt	r5, #16128	; 0x3f00
   17a74:	e1a00005 	mov	r0, r5
   17a78:	eb000767 	bl	1981c <read32>
   17a7c:	e0660000 	rsb	r0, r6, r0
   17a80:	e1540000 	cmp	r4, r0
   17a84:	8afffffa 	bhi	17a74 <TimerSimpleusDelay+0x2c>
   17a88:	f57ff05f 	dmb	sy
   17a8c:	e8bd8070 	pop	{r4, r5, r6, pc}

00017a90 <TimerSimpleMsDelay>:
   17a90:	e3500000 	cmp	r0, #0
   17a94:	012fff1e 	bxeq	lr
   17a98:	e92d4008 	push	{r3, lr}
   17a9c:	e3a03ffa 	mov	r3, #1000	; 0x3e8
   17aa0:	e0000093 	mul	r0, r3, r0
   17aa4:	ebffffe7 	bl	17a48 <TimerSimpleusDelay>
   17aa8:	e8bd8008 	pop	{r3, pc}

00017aac <TimerPollKernelTimers>:
   17aac:	e92d4070 	push	{r4, r5, r6, lr}
   17ab0:	e2505000 	subs	r5, r0, #0
   17ab4:	1a000005 	bne	17ad0 <TimerPollKernelTimers+0x24>
   17ab8:	e3090ce4 	movw	r0, #40164	; 0x9ce4
   17abc:	e3400001 	movt	r0, #1
   17ac0:	e30b1cc4 	movw	r1, #48324	; 0xbcc4
   17ac4:	e3401001 	movt	r1, #1
   17ac8:	e3a020f9 	mov	r2, #249	; 0xf9
   17acc:	ebfff934 	bl	15fa4 <assertion_failed>
   17ad0:	ebfffdeb 	bl	17284 <EnterCritical>
   17ad4:	e3a04000 	mov	r4, #0
   17ad8:	e1a06004 	mov	r6, r4
   17adc:	e0853204 	add	r3, r5, r4, lsl #4
   17ae0:	e593c00c 	ldr	ip, [r3, #12]
   17ae4:	e35c0000 	cmp	ip, #0
   17ae8:	0a00000a 	beq	17b18 <TimerPollKernelTimers+0x6c>
   17aec:	e5933010 	ldr	r3, [r3, #16]
   17af0:	e5952004 	ldr	r2, [r5, #4]
   17af4:	e0623003 	rsb	r3, r2, r3
   17af8:	e3530000 	cmp	r3, #0
   17afc:	ca000005 	bgt	17b18 <TimerPollKernelTimers+0x6c>
   17b00:	e0853204 	add	r3, r5, r4, lsl #4
   17b04:	e583600c 	str	r6, [r3, #12]
   17b08:	e5931014 	ldr	r1, [r3, #20]
   17b0c:	e5932018 	ldr	r2, [r3, #24]
   17b10:	e2840001 	add	r0, r4, #1
   17b14:	e12fff3c 	blx	ip
   17b18:	e2844001 	add	r4, r4, #1
   17b1c:	e3540014 	cmp	r4, #20
   17b20:	1affffed 	bne	17adc <TimerPollKernelTimers+0x30>
   17b24:	ebfffde5 	bl	172c0 <LeaveCritical>
   17b28:	e8bd8070 	pop	{r4, r5, r6, pc}

00017b2c <TimerInterruptHandler>:
   17b2c:	e92d4070 	push	{r4, r5, r6, lr}
   17b30:	e2504000 	subs	r4, r0, #0
   17b34:	1a000005 	bne	17b50 <TimerInterruptHandler+0x24>
   17b38:	e3090ce4 	movw	r0, #40164	; 0x9ce4
   17b3c:	e3400001 	movt	r0, #1
   17b40:	e30b1cc4 	movw	r1, #48324	; 0xbcc4
   17b44:	e3401001 	movt	r1, #1
   17b48:	e3002113 	movw	r2, #275	; 0x113
   17b4c:	ebfff914 	bl	15fa4 <assertion_failed>
   17b50:	f57ff05f 	dmb	sy
   17b54:	e3a00a03 	mov	r0, #12288	; 0x3000
   17b58:	e3430f00 	movt	r0, #16128	; 0x3f00
   17b5c:	eb00072e 	bl	1981c <read32>
   17b60:	e3100008 	tst	r0, #8
   17b64:	1a000005 	bne	17b80 <TimerInterruptHandler+0x54>
   17b68:	e30b0d4c 	movw	r0, #48460	; 0xbd4c
   17b6c:	e3400001 	movt	r0, #1
   17b70:	e30b1cc4 	movw	r1, #48324	; 0xbcc4
   17b74:	e3401001 	movt	r1, #1
   17b78:	e3002117 	movw	r2, #279	; 0x117
   17b7c:	ebfff908 	bl	15fa4 <assertion_failed>
   17b80:	e3036018 	movw	r6, #12312	; 0x3018
   17b84:	e3436f00 	movt	r6, #16128	; 0x3f00
   17b88:	e1a00006 	mov	r0, r6
   17b8c:	eb000722 	bl	1981c <read32>
   17b90:	e2805c27 	add	r5, r0, #9984	; 0x2700
   17b94:	e2855010 	add	r5, r5, #16
   17b98:	e1a00006 	mov	r0, r6
   17b9c:	e1a01005 	mov	r1, r5
   17ba0:	eb00071f 	bl	19824 <write32>
   17ba4:	e3030004 	movw	r0, #12292	; 0x3004
   17ba8:	e3430f00 	movt	r0, #16128	; 0x3f00
   17bac:	eb00071a 	bl	1981c <read32>
   17bb0:	e1550000 	cmp	r5, r0
   17bb4:	2a000007 	bcs	17bd8 <TimerInterruptHandler+0xac>
   17bb8:	e3030004 	movw	r0, #12292	; 0x3004
   17bbc:	e3430f00 	movt	r0, #16128	; 0x3f00
   17bc0:	eb000715 	bl	1981c <read32>
   17bc4:	e2801c27 	add	r1, r0, #9984	; 0x2700
   17bc8:	e2811010 	add	r1, r1, #16
   17bcc:	e3030018 	movw	r0, #12312	; 0x3018
   17bd0:	e3430f00 	movt	r0, #16128	; 0x3f00
   17bd4:	eb000712 	bl	19824 <write32>
   17bd8:	e3a00a03 	mov	r0, #12288	; 0x3000
   17bdc:	e3430f00 	movt	r0, #16128	; 0x3f00
   17be0:	e3a01008 	mov	r1, #8
   17be4:	eb00070e 	bl	19824 <write32>
   17be8:	f57ff05f 	dmb	sy
   17bec:	e5943004 	ldr	r3, [r4, #4]
   17bf0:	e2833001 	add	r3, r3, #1
   17bf4:	e5843004 	str	r3, [r4, #4]
   17bf8:	e308051f 	movw	r0, #34079	; 0x851f
   17bfc:	e34501eb 	movt	r0, #20971	; 0x51eb
   17c00:	e0810093 	umull	r0, r1, r3, r0
   17c04:	e1a022a1 	lsr	r2, r1, #5
   17c08:	e3a01064 	mov	r1, #100	; 0x64
   17c0c:	e0633291 	mls	r3, r1, r2, r3
   17c10:	e3530000 	cmp	r3, #0
   17c14:	05943008 	ldreq	r3, [r4, #8]
   17c18:	02833001 	addeq	r3, r3, #1
   17c1c:	05843008 	streq	r3, [r4, #8]
   17c20:	e1a00004 	mov	r0, r4
   17c24:	ebffffa0 	bl	17aac <TimerPollKernelTimers>
   17c28:	e8bd8070 	pop	{r4, r5, r6, pc}

00017c2c <TimerTuneMsDelay>:
   17c2c:	e92d4038 	push	{r3, r4, r5, lr}
   17c30:	e2504000 	subs	r4, r0, #0
   17c34:	1a000005 	bne	17c50 <TimerTuneMsDelay+0x24>
   17c38:	e3090ce4 	movw	r0, #40164	; 0x9ce4
   17c3c:	e3400001 	movt	r0, #1
   17c40:	e30b1cc4 	movw	r1, #48324	; 0xbcc4
   17c44:	e3401001 	movt	r1, #1
   17c48:	e300212f 	movw	r2, #303	; 0x12f
   17c4c:	ebfff8d4 	bl	15fa4 <assertion_failed>
   17c50:	e1a00004 	mov	r0, r4
   17c54:	ebfffea9 	bl	17700 <TimerGetTicks>
   17c58:	e1a05000 	mov	r5, r0
   17c5c:	e1a00004 	mov	r0, r4
   17c60:	e3a01ffa 	mov	r1, #1000	; 0x3e8
   17c64:	ebffff47 	bl	17988 <TimerMsDelay>
   17c68:	e1a00004 	mov	r0, r4
   17c6c:	ebfffea3 	bl	17700 <TimerGetTicks>
   17c70:	e0650000 	rsb	r0, r5, r0
   17c74:	e3023710 	movw	r3, #10000	; 0x2710
   17c78:	e730f013 	udiv	r0, r3, r0
   17c7c:	e594314c 	ldr	r3, [r4, #332]	; 0x14c
   17c80:	e0000093 	mul	r0, r3, r0
   17c84:	e308351f 	movw	r3, #34079	; 0x851f
   17c88:	e34531eb 	movt	r3, #20971	; 0x51eb
   17c8c:	e0810390 	umull	r0, r1, r0, r3
   17c90:	e1a022a1 	lsr	r2, r1, #5
   17c94:	e584214c 	str	r2, [r4, #332]	; 0x14c
   17c98:	e2822f7d 	add	r2, r2, #500	; 0x1f4
   17c9c:	e3043dd3 	movw	r3, #19923	; 0x4dd3
   17ca0:	e3413062 	movt	r3, #4194	; 0x1062
   17ca4:	e0832392 	umull	r2, r3, r2, r3
   17ca8:	e1a03323 	lsr	r3, r3, #6
   17cac:	e5843150 	str	r3, [r4, #336]	; 0x150
   17cb0:	e8bd8038 	pop	{r3, r4, r5, pc}

00017cb4 <TimerInitialize>:
   17cb4:	e92d4038 	push	{r3, r4, r5, lr}
   17cb8:	e2504000 	subs	r4, r0, #0
   17cbc:	1a000005 	bne	17cd8 <TimerInitialize+0x24>
   17cc0:	e3090ce4 	movw	r0, #40164	; 0x9ce4
   17cc4:	e3400001 	movt	r0, #1
   17cc8:	e30b1cc4 	movw	r1, #48324	; 0xbcc4
   17ccc:	e3401001 	movt	r1, #1
   17cd0:	e3a02043 	mov	r2, #67	; 0x43
   17cd4:	ebfff8b2 	bl	15fa4 <assertion_failed>
   17cd8:	e5943000 	ldr	r3, [r4]
   17cdc:	e3530000 	cmp	r3, #0
   17ce0:	1a000005 	bne	17cfc <TimerInitialize+0x48>
   17ce4:	e30b0d70 	movw	r0, #48496	; 0xbd70
   17ce8:	e3400001 	movt	r0, #1
   17cec:	e30b1cc4 	movw	r1, #48324	; 0xbcc4
   17cf0:	e3401001 	movt	r1, #1
   17cf4:	e3a02045 	mov	r2, #69	; 0x45
   17cf8:	ebfff8a9 	bl	15fa4 <assertion_failed>
   17cfc:	e5940000 	ldr	r0, [r4]
   17d00:	e3a01003 	mov	r1, #3
   17d04:	e3072b2c 	movw	r2, #31532	; 0x7b2c
   17d08:	e3402001 	movt	r2, #1
   17d0c:	e1a03004 	mov	r3, r4
   17d10:	eb000602 	bl	19520 <InterruptSystemConnectIRQ>
   17d14:	f57ff05f 	dmb	sy
   17d18:	e3035004 	movw	r5, #12292	; 0x3004
   17d1c:	e3435f00 	movt	r5, #16128	; 0x3f00
   17d20:	e1a00005 	mov	r0, r5
   17d24:	e3a01df2 	mov	r1, #15488	; 0x3c80
   17d28:	e34f1e36 	movt	r1, #65078	; 0xfe36
   17d2c:	eb0006bc 	bl	19824 <write32>
   17d30:	e1a00005 	mov	r0, r5
   17d34:	eb0006b8 	bl	1981c <read32>
   17d38:	e2801c27 	add	r1, r0, #9984	; 0x2700
   17d3c:	e2811010 	add	r1, r1, #16
   17d40:	e3030018 	movw	r0, #12312	; 0x3018
   17d44:	e3430f00 	movt	r0, #16128	; 0x3f00
   17d48:	eb0006b5 	bl	19824 <write32>
   17d4c:	e1a00004 	mov	r0, r4
   17d50:	ebffffb5 	bl	17c2c <TimerTuneMsDelay>
   17d54:	f57ff05f 	dmb	sy
   17d58:	e3a00001 	mov	r0, #1
   17d5c:	e8bd8038 	pop	{r3, r4, r5, pc}

00017d60 <MsDelay>:
   17d60:	e92d4010 	push	{r4, lr}
   17d64:	e1a04000 	mov	r4, r0
   17d68:	ebffff26 	bl	17a08 <TimerGet>
   17d6c:	e1a01004 	mov	r1, r4
   17d70:	ebffff04 	bl	17988 <TimerMsDelay>
   17d74:	e8bd8010 	pop	{r4, pc}

00017d78 <usDelay>:
   17d78:	e92d4010 	push	{r4, lr}
   17d7c:	e1a04000 	mov	r4, r0
   17d80:	ebffff20 	bl	17a08 <TimerGet>
   17d84:	e1a01004 	mov	r1, r4
   17d88:	ebffff0e 	bl	179c8 <TimerusDelay>
   17d8c:	e8bd8010 	pop	{r4, pc}

00017d90 <StartKernelTimer>:
   17d90:	e92d40f0 	push	{r4, r5, r6, r7, lr}
   17d94:	e24dd00c 	sub	sp, sp, #12
   17d98:	e1a06000 	mov	r6, r0
   17d9c:	e1a05001 	mov	r5, r1
   17da0:	e1a04002 	mov	r4, r2
   17da4:	e1a07003 	mov	r7, r3
   17da8:	ebffff16 	bl	17a08 <TimerGet>
   17dac:	e58d7000 	str	r7, [sp]
   17db0:	e1a01006 	mov	r1, r6
   17db4:	e1a02005 	mov	r2, r5
   17db8:	e1a03004 	mov	r3, r4
   17dbc:	ebfffea2 	bl	1784c <TimerStartKernelTimer>
   17dc0:	e28dd00c 	add	sp, sp, #12
   17dc4:	e8bd80f0 	pop	{r4, r5, r6, r7, pc}

00017dc8 <CancelKernelTimer>:
   17dc8:	e92d4010 	push	{r4, lr}
   17dcc:	e1a04000 	mov	r4, r0
   17dd0:	ebffff0c 	bl	17a08 <TimerGet>
   17dd4:	e1a01004 	mov	r1, r4
   17dd8:	ebfffed3 	bl	1792c <TimerCancelKernelTimer>
   17ddc:	e8bd8010 	pop	{r4, pc}

00017de0 <ConnectInterrupt>:
   17de0:	e92d4070 	push	{r4, r5, r6, lr}
   17de4:	e1a06000 	mov	r6, r0
   17de8:	e1a05001 	mov	r5, r1
   17dec:	e1a04002 	mov	r4, r2
   17df0:	eb00062b 	bl	196a4 <InterruptSystemGet>
   17df4:	e1a01006 	mov	r1, r6
   17df8:	e1a02005 	mov	r2, r5
   17dfc:	e1a03004 	mov	r3, r4
   17e00:	eb0005c6 	bl	19520 <InterruptSystemConnectIRQ>
   17e04:	e8bd8070 	pop	{r4, r5, r6, pc}

00017e08 <SetPowerStateOn>:
   17e08:	e92d4010 	push	{r4, lr}
   17e0c:	e24dd020 	sub	sp, sp, #32
   17e10:	e1a04000 	mov	r4, r0
   17e14:	e28d001c 	add	r0, sp, #28
   17e18:	eb000437 	bl	18efc <BcmPropertyTags>
   17e1c:	e58d4014 	str	r4, [sp, #20]
   17e20:	e3a03003 	mov	r3, #3
   17e24:	e58d3018 	str	r3, [sp, #24]
   17e28:	e3a03008 	mov	r3, #8
   17e2c:	e58d3000 	str	r3, [sp]
   17e30:	e28d001c 	add	r0, sp, #28
   17e34:	e3081001 	movw	r1, #32769	; 0x8001
   17e38:	e3401002 	movt	r1, #2
   17e3c:	e08d2003 	add	r2, sp, r3
   17e40:	e3a03014 	mov	r3, #20
   17e44:	eb000445 	bl	18f60 <BcmPropertyTagsGetTag>
   17e48:	e3500000 	cmp	r0, #0
   17e4c:	0a000003 	beq	17e60 <SetPowerStateOn+0x58>
   17e50:	e59d3018 	ldr	r3, [sp, #24]
   17e54:	e2033003 	and	r3, r3, #3
   17e58:	e3530001 	cmp	r3, #1
   17e5c:	0a000003 	beq	17e70 <SetPowerStateOn+0x68>
   17e60:	e28d001c 	add	r0, sp, #28
   17e64:	eb000431 	bl	18f30 <_BcmPropertyTags>
   17e68:	e3a00000 	mov	r0, #0
   17e6c:	ea000002 	b	17e7c <SetPowerStateOn+0x74>
   17e70:	e28d001c 	add	r0, sp, #28
   17e74:	eb00042d 	bl	18f30 <_BcmPropertyTags>
   17e78:	e3a00001 	mov	r0, #1
   17e7c:	e28dd020 	add	sp, sp, #32
   17e80:	e8bd8010 	pop	{r4, pc}

00017e84 <GetMACAddress>:
   17e84:	e92d4030 	push	{r4, r5, lr}
   17e88:	e24dd024 	sub	sp, sp, #36	; 0x24
   17e8c:	e1a05000 	mov	r5, r0
   17e90:	e28d001c 	add	r0, sp, #28
   17e94:	eb000418 	bl	18efc <BcmPropertyTags>
   17e98:	e3a03000 	mov	r3, #0
   17e9c:	e58d3000 	str	r3, [sp]
   17ea0:	e28d001c 	add	r0, sp, #28
   17ea4:	e3a01003 	mov	r1, #3
   17ea8:	e3401001 	movt	r1, #1
   17eac:	e28d2008 	add	r2, sp, #8
   17eb0:	e3a03014 	mov	r3, #20
   17eb4:	eb000429 	bl	18f60 <BcmPropertyTagsGetTag>
   17eb8:	e2504000 	subs	r4, r0, #0
   17ebc:	1a000002 	bne	17ecc <GetMACAddress+0x48>
   17ec0:	e28d001c 	add	r0, sp, #28
   17ec4:	eb000419 	bl	18f30 <_BcmPropertyTags>
   17ec8:	ea000006 	b	17ee8 <GetMACAddress+0x64>
   17ecc:	e1a00005 	mov	r0, r5
   17ed0:	e28d1014 	add	r1, sp, #20
   17ed4:	e3a02006 	mov	r2, #6
   17ed8:	eb000079 	bl	180c4 <memcpy>
   17edc:	e28d001c 	add	r0, sp, #28
   17ee0:	eb000412 	bl	18f30 <_BcmPropertyTags>
   17ee4:	e3a04001 	mov	r4, #1
   17ee8:	e1a00004 	mov	r0, r4
   17eec:	e28dd024 	add	sp, sp, #36	; 0x24
   17ef0:	e8bd8030 	pop	{r4, r5, pc}

00017ef4 <LogWrite>:
   17ef4:	e92d000c 	push	{r2, r3}
   17ef8:	e92d4030 	push	{r4, r5, lr}
   17efc:	e24dd014 	sub	sp, sp, #20
   17f00:	e1a05000 	mov	r5, r0
   17f04:	e1a04001 	mov	r4, r1
   17f08:	e28d3024 	add	r3, sp, #36	; 0x24
   17f0c:	e58d300c 	str	r3, [sp, #12]
   17f10:	ebfff8b9 	bl	161fc <LoggerGet>
   17f14:	e59d300c 	ldr	r3, [sp, #12]
   17f18:	e58d3000 	str	r3, [sp]
   17f1c:	e1a01005 	mov	r1, r5
   17f20:	e1a02004 	mov	r2, r4
   17f24:	e59d3020 	ldr	r3, [sp, #32]
   17f28:	ebfff8c1 	bl	16234 <LoggerWriteV>
   17f2c:	e28dd014 	add	sp, sp, #20
   17f30:	e8bd4030 	pop	{r4, r5, lr}
   17f34:	e28dd008 	add	sp, sp, #8
   17f38:	e12fff1e 	bx	lr

00017f3c <uspi_assertion_failed>:
   17f3c:	e92d4008 	push	{r3, lr}
   17f40:	ebfff817 	bl	15fa4 <assertion_failed>
   17f44:	e8bd8008 	pop	{r3, pc}

00017f48 <DebugHexdump>:
   17f48:	e92d4008 	push	{r3, lr}
   17f4c:	ebfff836 	bl	1602c <debug_hexdump>
   17f50:	e8bd8008 	pop	{r3, pc}

00017f54 <USPiEnvInitialize>:
   17f54:	e92d4070 	push	{r4, r5, r6, lr}
   17f58:	e30c4670 	movw	r4, #50800	; 0xc670
   17f5c:	e3404001 	movt	r4, #1
   17f60:	e1a00004 	mov	r0, r4
   17f64:	e3a01001 	mov	r1, #1
   17f68:	eb000169 	bl	18514 <MemorySystem>
   17f6c:	e2844010 	add	r4, r4, #16
   17f70:	e1a00004 	mov	r0, r4
   17f74:	e3a01000 	mov	r1, #0
   17f78:	e1a02001 	mov	r2, r1
   17f7c:	ebfff95f 	bl	16500 <ScreenDevice>
   17f80:	e1a00004 	mov	r0, r4
   17f84:	ebfffc64 	bl	1711c <ScreenDeviceInitialize>
   17f88:	e2504000 	subs	r4, r0, #0
   17f8c:	1a000002 	bne	17f9c <USPiEnvInitialize+0x48>
   17f90:	e59f00c0 	ldr	r0, [pc, #192]	; 18058 <USPiEnvInitialize+0x104>
   17f94:	ebfff96c 	bl	1654c <_ScreenDevice>
   17f98:	ea00002c 	b	18050 <USPiEnvInitialize+0xfc>
   17f9c:	e30c4670 	movw	r4, #50800	; 0xc670
   17fa0:	e3404001 	movt	r4, #1
   17fa4:	e2845064 	add	r5, r4, #100	; 0x64
   17fa8:	e1a00005 	mov	r0, r5
   17fac:	eb00024b 	bl	188e0 <ExceptionHandler2>
   17fb0:	e1a00005 	mov	r0, r5
   17fb4:	eb0004e1 	bl	19340 <InterruptSystem>
   17fb8:	e2846fa9 	add	r6, r4, #676	; 0x2a4
   17fbc:	e1a00006 	mov	r0, r6
   17fc0:	e1a01005 	mov	r1, r5
   17fc4:	ebfffd90 	bl	1760c <Timer>
   17fc8:	e2845058 	add	r5, r4, #88	; 0x58
   17fcc:	e1a00005 	mov	r0, r5
   17fd0:	e3a01004 	mov	r1, #4
   17fd4:	e1a02006 	mov	r2, r6
   17fd8:	ebfff878 	bl	161c0 <Logger>
   17fdc:	e1a00005 	mov	r0, r5
   17fe0:	e2841010 	add	r1, r4, #16
   17fe4:	ebfff93b 	bl	164d8 <LoggerInitialize>
   17fe8:	e3500000 	cmp	r0, #0
   17fec:	0a000008 	beq	18014 <USPiEnvInitialize+0xc0>
   17ff0:	e2840064 	add	r0, r4, #100	; 0x64
   17ff4:	eb0004ed 	bl	193b0 <InterruptSystemInitialize>
   17ff8:	e3500000 	cmp	r0, #0
   17ffc:	0a000004 	beq	18014 <USPiEnvInitialize+0xc0>
   18000:	e1a00006 	mov	r0, r6
   18004:	ebffff2a 	bl	17cb4 <TimerInitialize>
   18008:	e3500000 	cmp	r0, #0
   1800c:	13a04001 	movne	r4, #1
   18010:	1a00000e 	bne	18050 <USPiEnvInitialize+0xfc>
   18014:	e30c4670 	movw	r4, #50800	; 0xc670
   18018:	e3404001 	movt	r4, #1
   1801c:	e2840058 	add	r0, r4, #88	; 0x58
   18020:	ebfff86e 	bl	161e0 <_Logger>
   18024:	e2840fa9 	add	r0, r4, #676	; 0x2a4
   18028:	ebfffda0 	bl	176b0 <_Timer>
   1802c:	e2845064 	add	r5, r4, #100	; 0x64
   18030:	e1a00005 	mov	r0, r5
   18034:	eb0004d8 	bl	1939c <_InterruptSystem>
   18038:	e1a00005 	mov	r0, r5
   1803c:	eb000258 	bl	189a4 <_ExceptionHandler>
   18040:	e2840010 	add	r0, r4, #16
   18044:	ebfff940 	bl	1654c <_ScreenDevice>
   18048:	e3a04000 	mov	r4, #0
   1804c:	eaffffff 	b	18050 <USPiEnvInitialize+0xfc>
   18050:	e1a00004 	mov	r0, r4
   18054:	e8bd8070 	pop	{r4, r5, r6, pc}
   18058:	0001c680 	andeq	ip, r1, r0, lsl #13

0001805c <USPiEnvClose>:
   1805c:	e92d4038 	push	{r3, r4, r5, lr}
   18060:	e30c4670 	movw	r4, #50800	; 0xc670
   18064:	e3404001 	movt	r4, #1
   18068:	e2840058 	add	r0, r4, #88	; 0x58
   1806c:	ebfff85b 	bl	161e0 <_Logger>
   18070:	e2840fa9 	add	r0, r4, #676	; 0x2a4
   18074:	ebfffd8d 	bl	176b0 <_Timer>
   18078:	e2845064 	add	r5, r4, #100	; 0x64
   1807c:	e1a00005 	mov	r0, r5
   18080:	eb0004c5 	bl	1939c <_InterruptSystem>
   18084:	e1a00005 	mov	r0, r5
   18088:	eb000245 	bl	189a4 <_ExceptionHandler>
   1808c:	e2840010 	add	r0, r4, #16
   18090:	ebfff92d 	bl	1654c <_ScreenDevice>
   18094:	e8bd8038 	pop	{r3, r4, r5, pc}

00018098 <USPiEnvGetScreen>:
   18098:	e59f0000 	ldr	r0, [pc]	; 180a0 <USPiEnvGetScreen+0x8>
   1809c:	e12fff1e 	bx	lr
   180a0:	0001c680 	andeq	ip, r1, r0, lsl #13

000180a4 <memset>:
   180a4:	e3520000 	cmp	r2, #0
   180a8:	012fff1e 	bxeq	lr
   180ac:	e0802002 	add	r2, r0, r2
   180b0:	e1a03000 	mov	r3, r0
   180b4:	e4c31001 	strb	r1, [r3], #1
   180b8:	e1530002 	cmp	r3, r2
   180bc:	1afffffc 	bne	180b4 <memset+0x10>
   180c0:	e12fff1e 	bx	lr

000180c4 <memcpy>:
   180c4:	e3520000 	cmp	r2, #0
   180c8:	012fff1e 	bxeq	lr
   180cc:	e2403001 	sub	r3, r0, #1
   180d0:	e0812002 	add	r2, r1, r2
   180d4:	e4d1c001 	ldrb	ip, [r1], #1
   180d8:	e5e3c001 	strb	ip, [r3, #1]!
   180dc:	e1510002 	cmp	r1, r2
   180e0:	1afffffb 	bne	180d4 <memcpy+0x10>
   180e4:	e12fff1e 	bx	lr

000180e8 <memcmp>:
   180e8:	e3520000 	cmp	r2, #0
   180ec:	0a000011 	beq	18138 <memcmp+0x50>
   180f0:	e5d0c000 	ldrb	ip, [r0]
   180f4:	e5d13000 	ldrb	r3, [r1]
   180f8:	e15c0003 	cmp	ip, r3
   180fc:	8a00000f 	bhi	18140 <memcmp+0x58>
   18100:	3a000010 	bcc	18148 <memcmp+0x60>
   18104:	e52de004 	push	{lr}		; (str lr, [sp, #-4]!)
   18108:	e2803001 	add	r3, r0, #1
   1810c:	e0800002 	add	r0, r0, r2
   18110:	ea000004 	b	18128 <memcmp+0x40>
   18114:	e4d3e001 	ldrb	lr, [r3], #1
   18118:	e5f1c001 	ldrb	ip, [r1, #1]!
   1811c:	e15e000c 	cmp	lr, ip
   18120:	8a00000a 	bhi	18150 <memcmp+0x68>
   18124:	3a00000b 	bcc	18158 <memcmp+0x70>
   18128:	e1530000 	cmp	r3, r0
   1812c:	1afffff8 	bne	18114 <memcmp+0x2c>
   18130:	e3a00000 	mov	r0, #0
   18134:	e49df004 	pop	{pc}		; (ldr pc, [sp], #4)
   18138:	e3a00000 	mov	r0, #0
   1813c:	e12fff1e 	bx	lr
   18140:	e3a00001 	mov	r0, #1
   18144:	e12fff1e 	bx	lr
   18148:	e3e00000 	mvn	r0, #0
   1814c:	e12fff1e 	bx	lr
   18150:	e3a00001 	mov	r0, #1
   18154:	e49df004 	pop	{pc}		; (ldr pc, [sp], #4)
   18158:	e3e00000 	mvn	r0, #0
   1815c:	e49df004 	pop	{pc}		; (ldr pc, [sp], #4)

00018160 <strlen>:
   18160:	e1a01000 	mov	r1, r0
   18164:	e2803001 	add	r3, r0, #1
   18168:	e1d020d0 	ldrsb	r2, [r0]
   1816c:	e3520000 	cmp	r2, #0
   18170:	0a000004 	beq	18188 <strlen+0x28>
   18174:	e0610003 	rsb	r0, r1, r3
   18178:	e0d320d1 	ldrsb	r2, [r3], #1
   1817c:	e3520000 	cmp	r2, #0
   18180:	1afffffb 	bne	18174 <strlen+0x14>
   18184:	e12fff1e 	bx	lr
   18188:	e3a00000 	mov	r0, #0
   1818c:	e12fff1e 	bx	lr

00018190 <strcmp>:
   18190:	e52de004 	push	{lr}		; (str lr, [sp, #-4]!)
   18194:	e5d03000 	ldrb	r3, [r0]
   18198:	e3530000 	cmp	r3, #0
   1819c:	0a000015 	beq	181f8 <strcmp+0x68>
   181a0:	e5d12000 	ldrb	r2, [r1]
   181a4:	e3520000 	cmp	r2, #0
   181a8:	0a000012 	beq	181f8 <strcmp+0x68>
   181ac:	e6afc073 	sxtb	ip, r3
   181b0:	e6afe072 	sxtb	lr, r2
   181b4:	e15c000e 	cmp	ip, lr
   181b8:	ca000018 	bgt	18220 <strcmp+0x90>
   181bc:	ba000019 	blt	18228 <strcmp+0x98>
   181c0:	e281c001 	add	ip, r1, #1
   181c4:	ea000004 	b	181dc <strcmp+0x4c>
   181c8:	e6af1073 	sxtb	r1, r3
   181cc:	e6afe072 	sxtb	lr, r2
   181d0:	e151000e 	cmp	r1, lr
   181d4:	ca000015 	bgt	18230 <strcmp+0xa0>
   181d8:	ba000016 	blt	18238 <strcmp+0xa8>
   181dc:	e1a0100c 	mov	r1, ip
   181e0:	e5f03001 	ldrb	r3, [r0, #1]!
   181e4:	e3530000 	cmp	r3, #0
   181e8:	0a000002 	beq	181f8 <strcmp+0x68>
   181ec:	e4dc2001 	ldrb	r2, [ip], #1
   181f0:	e3520000 	cmp	r2, #0
   181f4:	1afffff3 	bne	181c8 <strcmp+0x38>
   181f8:	e5d10000 	ldrb	r0, [r1]
   181fc:	e6af1070 	sxtb	r1, r0
   18200:	e6af2073 	sxtb	r2, r3
   18204:	e1510002 	cmp	r1, r2
   18208:	ba00000c 	blt	18240 <strcmp+0xb0>
   1820c:	e1a00001 	mov	r0, r1
   18210:	e1510002 	cmp	r1, r2
   18214:	d3a00000 	movle	r0, #0
   18218:	c3e00000 	mvngt	r0, #0
   1821c:	e49df004 	pop	{pc}		; (ldr pc, [sp], #4)
   18220:	e3a00001 	mov	r0, #1
   18224:	e49df004 	pop	{pc}		; (ldr pc, [sp], #4)
   18228:	e3e00000 	mvn	r0, #0
   1822c:	e49df004 	pop	{pc}		; (ldr pc, [sp], #4)
   18230:	e3a00001 	mov	r0, #1
   18234:	e49df004 	pop	{pc}		; (ldr pc, [sp], #4)
   18238:	e3e00000 	mvn	r0, #0
   1823c:	e49df004 	pop	{pc}		; (ldr pc, [sp], #4)
   18240:	e3a00001 	mov	r0, #1
   18244:	e49df004 	pop	{pc}		; (ldr pc, [sp], #4)

00018248 <strcpy>:
   18248:	e5d13000 	ldrb	r3, [r1]
   1824c:	e3530000 	cmp	r3, #0
   18250:	0a000005 	beq	1826c <strcpy+0x24>
   18254:	e1a02000 	mov	r2, r0
   18258:	e4c23001 	strb	r3, [r2], #1
   1825c:	e5f13001 	ldrb	r3, [r1, #1]!
   18260:	e3530000 	cmp	r3, #0
   18264:	1afffffb 	bne	18258 <strcpy+0x10>
   18268:	ea000000 	b	18270 <strcpy+0x28>
   1826c:	e1a02000 	mov	r2, r0
   18270:	e3a03000 	mov	r3, #0
   18274:	e5c23000 	strb	r3, [r2]
   18278:	e12fff1e 	bx	lr

0001827c <strncpy>:
   1827c:	e3520000 	cmp	r2, #0
   18280:	012fff1e 	bxeq	lr
   18284:	e52de004 	push	{lr}		; (str lr, [sp, #-4]!)
   18288:	e5d13000 	ldrb	r3, [r1]
   1828c:	e3530000 	cmp	r3, #0
   18290:	0a00000a 	beq	182c0 <strncpy+0x44>
   18294:	e281c001 	add	ip, r1, #1
   18298:	e0811002 	add	r1, r1, r2
   1829c:	e1a0e000 	mov	lr, r0
   182a0:	ea000002 	b	182b0 <strncpy+0x34>
   182a4:	e4dc3001 	ldrb	r3, [ip], #1
   182a8:	e3530000 	cmp	r3, #0
   182ac:	0a000004 	beq	182c4 <strncpy+0x48>
   182b0:	e4ce3001 	strb	r3, [lr], #1
   182b4:	e15c0001 	cmp	ip, r1
   182b8:	1afffff9 	bne	182a4 <strncpy+0x28>
   182bc:	e49df004 	pop	{pc}		; (ldr pc, [sp], #4)
   182c0:	e1a0e000 	mov	lr, r0
   182c4:	e3a03000 	mov	r3, #0
   182c8:	e5ce3000 	strb	r3, [lr]
   182cc:	e49df004 	pop	{pc}		; (ldr pc, [sp], #4)

000182d0 <strcat>:
   182d0:	e1d030d0 	ldrsb	r3, [r0]
   182d4:	e3530000 	cmp	r3, #0
   182d8:	0a000004 	beq	182f0 <strcat+0x20>
   182dc:	e1a03000 	mov	r3, r0
   182e0:	e1f320d1 	ldrsb	r2, [r3, #1]!
   182e4:	e3520000 	cmp	r2, #0
   182e8:	1afffffc 	bne	182e0 <strcat+0x10>
   182ec:	ea000000 	b	182f4 <strcat+0x24>
   182f0:	e1a03000 	mov	r3, r0
   182f4:	e5d12000 	ldrb	r2, [r1]
   182f8:	e3520000 	cmp	r2, #0
   182fc:	0a000003 	beq	18310 <strcat+0x40>
   18300:	e4c32001 	strb	r2, [r3], #1
   18304:	e5f12001 	ldrb	r2, [r1, #1]!
   18308:	e3520000 	cmp	r2, #0
   1830c:	1afffffb 	bne	18300 <strcat+0x30>
   18310:	e3a02000 	mov	r2, #0
   18314:	e5c32000 	strb	r2, [r3]
   18318:	e12fff1e 	bx	lr

0001831c <char2int>:
   1831c:	e12fff1e 	bx	lr

00018320 <le2be16>:
   18320:	e1a03420 	lsr	r3, r0, #8
   18324:	e1830400 	orr	r0, r3, r0, lsl #8
   18328:	e6ff0070 	uxth	r0, r0
   1832c:	e12fff1e 	bx	lr

00018330 <le2be32>:
   18330:	e1a03c00 	lsl	r3, r0, #24
   18334:	e1833c20 	orr	r3, r3, r0, lsr #24
   18338:	e2002cff 	and	r2, r0, #65280	; 0xff00
   1833c:	e1833402 	orr	r3, r3, r2, lsl #8
   18340:	e20008ff 	and	r0, r0, #16711680	; 0xff0000
   18344:	e1830420 	orr	r0, r3, r0, lsr #8
   18348:	e12fff1e 	bx	lr

0001834c <memcpyblk>:
   1834c:	e92d0079 	push	{r0, r3, r4, r5, r6}
   18350:	e8b10078 	ldm	r1!, {r3, r4, r5, r6}
   18354:	e2522010 	subs	r2, r2, #16
   18358:	e8a00078 	stmia	r0!, {r3, r4, r5, r6}
   1835c:	f5d1f040 	pld	[r1, #64]	; 0x40
   18360:	1afffffa 	bne	18350 <memcpyblk+0x4>
   18364:	e8bd0079 	pop	{r0, r3, r4, r5, r6}
   18368:	e12fff1e 	bx	lr

0001836c <_MemorySystem>:
   1836c:	e92d4038 	push	{r3, r4, r5, lr}
   18370:	e2504000 	subs	r4, r0, #0
   18374:	1a000005 	bne	18390 <_MemorySystem+0x24>
   18378:	e3090ce4 	movw	r0, #40164	; 0x9ce4
   1837c:	e3400001 	movt	r0, #1
   18380:	e30b1d90 	movw	r1, #48528	; 0xbd90
   18384:	e3401001 	movt	r1, #1
   18388:	e3a02058 	mov	r2, #88	; 0x58
   1838c:	ebfff704 	bl	15fa4 <assertion_failed>
   18390:	e5943000 	ldr	r3, [r4]
   18394:	e3530000 	cmp	r3, #0
   18398:	0a000005 	beq	183b4 <_MemorySystem+0x48>
   1839c:	ee113f10 	mrc	15, 0, r3, cr1, cr0, {0}
   183a0:	e3c33b06 	bic	r3, r3, #6144	; 0x1800
   183a4:	e3c33005 	bic	r3, r3, #5
   183a8:	ee013f10 	mcr	15, 0, r3, cr1, cr0, {0}
   183ac:	e3a03000 	mov	r3, #0
   183b0:	ee083f17 	mcr	15, 0, r3, cr8, cr7, {0}
   183b4:	e594000c 	ldr	r0, [r4, #12]
   183b8:	eb00012b 	bl	1886c <_PageTable>
   183bc:	e594000c 	ldr	r0, [r4, #12]
   183c0:	ebfff683 	bl	15dd4 <free>
   183c4:	e3a05000 	mov	r5, #0
   183c8:	e584500c 	str	r5, [r4, #12]
   183cc:	e5940008 	ldr	r0, [r4, #8]
   183d0:	eb000125 	bl	1886c <_PageTable>
   183d4:	e5940008 	ldr	r0, [r4, #8]
   183d8:	ebfff67d 	bl	15dd4 <free>
   183dc:	e5845008 	str	r5, [r4, #8]
   183e0:	e8bd8038 	pop	{r3, r4, r5, pc}

000183e4 <MemorySystemGetMemSize>:
   183e4:	e92d4010 	push	{r4, lr}
   183e8:	e2504000 	subs	r4, r0, #0
   183ec:	1a000005 	bne	18408 <MemorySystemGetMemSize+0x24>
   183f0:	e3090ce4 	movw	r0, #40164	; 0x9ce4
   183f4:	e3400001 	movt	r0, #1
   183f8:	e30b1d90 	movw	r1, #48528	; 0xbd90
   183fc:	e3401001 	movt	r1, #1
   18400:	e3a02071 	mov	r2, #113	; 0x71
   18404:	ebfff6e6 	bl	15fa4 <assertion_failed>
   18408:	e5940004 	ldr	r0, [r4, #4]
   1840c:	e8bd8010 	pop	{r4, pc}

00018410 <MemorySystemEnableMMU>:
   18410:	e92d4010 	push	{r4, lr}
   18414:	e2504000 	subs	r4, r0, #0
   18418:	1a000005 	bne	18434 <MemorySystemEnableMMU+0x24>
   1841c:	e3090ce4 	movw	r0, #40164	; 0x9ce4
   18420:	e3400001 	movt	r0, #1
   18424:	e30b1d90 	movw	r1, #48528	; 0xbd90
   18428:	e3401001 	movt	r1, #1
   1842c:	e3a02078 	mov	r2, #120	; 0x78
   18430:	ebfff6db 	bl	15fa4 <assertion_failed>
   18434:	e5943000 	ldr	r3, [r4]
   18438:	e3530000 	cmp	r3, #0
   1843c:	1a000005 	bne	18458 <MemorySystemEnableMMU+0x48>
   18440:	e30b0d9c 	movw	r0, #48540	; 0xbd9c
   18444:	e3400001 	movt	r0, #1
   18448:	e30b1d90 	movw	r1, #48528	; 0xbd90
   1844c:	e3401001 	movt	r1, #1
   18450:	e3a0207a 	mov	r2, #122	; 0x7a
   18454:	ebfff6d2 	bl	15fa4 <assertion_failed>
   18458:	ee113f30 	mrc	15, 0, r3, cr1, cr0, {1}
   1845c:	e3833040 	orr	r3, r3, #64	; 0x40
   18460:	ee013f30 	mcr	15, 0, r3, cr1, cr0, {1}
   18464:	ee103f70 	mrc	15, 0, r3, cr0, cr0, {3}
   18468:	e3130001 	tst	r3, #1
   1846c:	0a000005 	beq	18488 <MemorySystemEnableMMU+0x78>
   18470:	e30b0db0 	movw	r0, #48560	; 0xbdb0
   18474:	e3400001 	movt	r0, #1
   18478:	e30b1d90 	movw	r1, #48528	; 0xbd90
   1847c:	e3401001 	movt	r1, #1
   18480:	e3a02087 	mov	r2, #135	; 0x87
   18484:	ebfff6c6 	bl	15fa4 <assertion_failed>
   18488:	e3a03002 	mov	r3, #2
   1848c:	ee023f50 	mcr	15, 0, r3, cr2, cr0, {2}
   18490:	e5943008 	ldr	r3, [r4, #8]
   18494:	e3530000 	cmp	r3, #0
   18498:	1a000005 	bne	184b4 <MemorySystemEnableMMU+0xa4>
   1849c:	e30b0ddc 	movw	r0, #48604	; 0xbddc
   184a0:	e3400001 	movt	r0, #1
   184a4:	e30b1d90 	movw	r1, #48528	; 0xbd90
   184a8:	e3401001 	movt	r1, #1
   184ac:	e3a0208d 	mov	r2, #141	; 0x8d
   184b0:	ebfff6bb 	bl	15fa4 <assertion_failed>
   184b4:	e5940008 	ldr	r0, [r4, #8]
   184b8:	eb0000fc 	bl	188b0 <PageTableGetBaseAddress>
   184bc:	ee020f10 	mcr	15, 0, r0, cr2, cr0, {0}
   184c0:	e594300c 	ldr	r3, [r4, #12]
   184c4:	e3530000 	cmp	r3, #0
   184c8:	1a000005 	bne	184e4 <MemorySystemEnableMMU+0xd4>
   184cc:	e30b0e00 	movw	r0, #48640	; 0xbe00
   184d0:	e3400001 	movt	r0, #1
   184d4:	e30b1d90 	movw	r1, #48528	; 0xbd90
   184d8:	e3401001 	movt	r1, #1
   184dc:	e3a02091 	mov	r2, #145	; 0x91
   184e0:	ebfff6af 	bl	15fa4 <assertion_failed>
   184e4:	e594000c 	ldr	r0, [r4, #12]
   184e8:	eb0000f0 	bl	188b0 <PageTableGetBaseAddress>
   184ec:	ee020f30 	mcr	15, 0, r0, cr2, cr0, {1}
   184f0:	e3a03005 	mov	r3, #5
   184f4:	ee033f10 	mcr	15, 0, r3, cr3, cr0, {0}
   184f8:	ebfffb89 	bl	17324 <InvalidateDataCache>
   184fc:	f57ff06f 	isb	sy
   18500:	ee113f10 	mrc	15, 0, r3, cr1, cr0, {0}
   18504:	e3833b06 	orr	r3, r3, #6144	; 0x1800
   18508:	e3833005 	orr	r3, r3, #5
   1850c:	ee013f10 	mcr	15, 0, r3, cr1, cr0, {0}
   18510:	e8bd8010 	pop	{r4, pc}

00018514 <MemorySystem>:
   18514:	e92d4030 	push	{r4, r5, lr}
   18518:	e24dd024 	sub	sp, sp, #36	; 0x24
   1851c:	e1a05001 	mov	r5, r1
   18520:	e2504000 	subs	r4, r0, #0
   18524:	1a000005 	bne	18540 <MemorySystem+0x2c>
   18528:	e3090ce4 	movw	r0, #40164	; 0x9ce4
   1852c:	e3400001 	movt	r0, #1
   18530:	e30b1d90 	movw	r1, #48528	; 0xbd90
   18534:	e3401001 	movt	r1, #1
   18538:	e3a02031 	mov	r2, #49	; 0x31
   1853c:	ebfff698 	bl	15fa4 <assertion_failed>
   18540:	e5845000 	str	r5, [r4]
   18544:	e3a05000 	mov	r5, #0
   18548:	e5845004 	str	r5, [r4, #4]
   1854c:	e5845008 	str	r5, [r4, #8]
   18550:	e584500c 	str	r5, [r4, #12]
   18554:	e28d001c 	add	r0, sp, #28
   18558:	eb000267 	bl	18efc <BcmPropertyTags>
   1855c:	e58d5000 	str	r5, [sp]
   18560:	e28d001c 	add	r0, sp, #28
   18564:	e3a01005 	mov	r1, #5
   18568:	e3401001 	movt	r1, #1
   1856c:	e28d2008 	add	r2, sp, #8
   18570:	e3a03014 	mov	r3, #20
   18574:	eb000279 	bl	18f60 <BcmPropertyTagsGetTag>
   18578:	e1500005 	cmp	r0, r5
   1857c:	01a03005 	moveq	r3, r5
   18580:	058d3014 	streq	r3, [sp, #20]
   18584:	03a03303 	moveq	r3, #201326592	; 0xc000000
   18588:	058d3018 	streq	r3, [sp, #24]
   1858c:	e59d3014 	ldr	r3, [sp, #20]
   18590:	e3530000 	cmp	r3, #0
   18594:	0a000005 	beq	185b0 <MemorySystem+0x9c>
   18598:	e30b0e1c 	movw	r0, #48668	; 0xbe1c
   1859c:	e3400001 	movt	r0, #1
   185a0:	e30b1d90 	movw	r1, #48528	; 0xbd90
   185a4:	e3401001 	movt	r1, #1
   185a8:	e3a02041 	mov	r2, #65	; 0x41
   185ac:	ebfff67c 	bl	15fa4 <assertion_failed>
   185b0:	e59d1018 	ldr	r1, [sp, #24]
   185b4:	e5841004 	str	r1, [r4, #4]
   185b8:	e59d0014 	ldr	r0, [sp, #20]
   185bc:	ebfff58d 	bl	15bf8 <mem_init>
   185c0:	e5943000 	ldr	r3, [r4]
   185c4:	e3530000 	cmp	r3, #0
   185c8:	0a00001c 	beq	18640 <MemorySystem+0x12c>
   185cc:	e3a00008 	mov	r0, #8
   185d0:	ebfff5a3 	bl	15c64 <malloc>
   185d4:	e5840008 	str	r0, [r4, #8]
   185d8:	e3500000 	cmp	r0, #0
   185dc:	1a000005 	bne	185f8 <MemorySystem+0xe4>
   185e0:	e30b0ddc 	movw	r0, #48604	; 0xbddc
   185e4:	e3400001 	movt	r0, #1
   185e8:	e30b1d90 	movw	r1, #48528	; 0xbd90
   185ec:	e3401001 	movt	r1, #1
   185f0:	e3a02049 	mov	r2, #73	; 0x49
   185f4:	ebfff66a 	bl	15fa4 <assertion_failed>
   185f8:	e5940008 	ldr	r0, [r4, #8]
   185fc:	e5941004 	ldr	r1, [r4, #4]
   18600:	eb000040 	bl	18708 <PageTable2>
   18604:	e3a00008 	mov	r0, #8
   18608:	ebfff595 	bl	15c64 <malloc>
   1860c:	e584000c 	str	r0, [r4, #12]
   18610:	e3500000 	cmp	r0, #0
   18614:	1a000005 	bne	18630 <MemorySystem+0x11c>
   18618:	e30b0e00 	movw	r0, #48640	; 0xbe00
   1861c:	e3400001 	movt	r0, #1
   18620:	e30b1d90 	movw	r1, #48528	; 0xbd90
   18624:	e3401001 	movt	r1, #1
   18628:	e3a0204d 	mov	r2, #77	; 0x4d
   1862c:	ebfff65c 	bl	15fa4 <assertion_failed>
   18630:	e594000c 	ldr	r0, [r4, #12]
   18634:	eb000005 	bl	18650 <PageTable>
   18638:	e1a00004 	mov	r0, r4
   1863c:	ebffff73 	bl	18410 <MemorySystemEnableMMU>
   18640:	e28d001c 	add	r0, sp, #28
   18644:	eb000239 	bl	18f30 <_BcmPropertyTags>
   18648:	e28dd024 	add	sp, sp, #36	; 0x24
   1864c:	e8bd8030 	pop	{r4, r5, pc}

00018650 <PageTable>:
   18650:	e92d4070 	push	{r4, r5, r6, lr}
   18654:	e2504000 	subs	r4, r0, #0
   18658:	1a000005 	bne	18674 <PageTable+0x24>
   1865c:	e3090ce4 	movw	r0, #40164	; 0x9ce4
   18660:	e3400001 	movt	r0, #1
   18664:	e30b1e38 	movw	r1, #48696	; 0xbe38
   18668:	e3401001 	movt	r1, #1
   1866c:	e3a02029 	mov	r2, #41	; 0x29
   18670:	ebfff64b 	bl	15fa4 <assertion_failed>
   18674:	e3a03000 	mov	r3, #0
   18678:	e5843000 	str	r3, [r4]
   1867c:	e3a0298e 	mov	r2, #2326528	; 0x238000
   18680:	e5842004 	str	r2, [r4, #4]
   18684:	e3a0e002 	mov	lr, #2
   18688:	e3a0c001 	mov	ip, #1
   1868c:	e5941004 	ldr	r1, [r4, #4]
   18690:	e0810103 	add	r0, r1, r3, lsl #2
   18694:	e7d12103 	ldrb	r2, [r1, r3, lsl #2]
   18698:	e7c1201e 	bfi	r2, lr, #0, #2
   1869c:	e6ef2072 	uxtb	r2, r2
   186a0:	e3822004 	orr	r2, r2, #4
   186a4:	e2022007 	and	r2, r2, #7
   186a8:	e7c12103 	strb	r2, [r1, r3, lsl #2]
   186ac:	e5d02001 	ldrb	r2, [r0, #1]
   186b0:	e20220fc 	and	r2, r2, #252	; 0xfc
   186b4:	e7c3211c 	bfi	r2, ip, #2, #2
   186b8:	e202208f 	and	r2, r2, #143	; 0x8f
   186bc:	e7c7239f 	bfc	r2, #7, #1
   186c0:	e5c02001 	strb	r2, [r0, #1]
   186c4:	e7eb2053 	ubfx	r2, r3, #0, #12
   186c8:	e202600f 	and	r6, r2, #15
   186cc:	e3a05001 	mov	r5, #1
   186d0:	e1855206 	orr	r5, r5, r6, lsl #4
   186d4:	e5c05002 	strb	r5, [r0, #2]
   186d8:	e1a02222 	lsr	r2, r2, #4
   186dc:	e5c02003 	strb	r2, [r0, #3]
   186e0:	e3530b01 	cmp	r3, #1024	; 0x400
   186e4:	27d12103 	ldrbcs	r2, [r1, r3, lsl #2]
   186e8:	23822010 	orrcs	r2, r2, #16
   186ec:	27c12103 	strbcs	r2, [r1, r3, lsl #2]
   186f0:	e2833001 	add	r3, r3, #1
   186f4:	e3530a01 	cmp	r3, #4096	; 0x1000
   186f8:	1affffe3 	bne	1868c <PageTable+0x3c>
   186fc:	ebfffb3a 	bl	173ec <CleanDataCache>
   18700:	f57ff04f 	dsb	sy
   18704:	e8bd8070 	pop	{r4, r5, r6, pc}

00018708 <PageTable2>:
   18708:	e92d41f0 	push	{r4, r5, r6, r7, r8, lr}
   1870c:	e1a05001 	mov	r5, r1
   18710:	e2504000 	subs	r4, r0, #0
   18714:	1a000005 	bne	18730 <PageTable2+0x28>
   18718:	e3090ce4 	movw	r0, #40164	; 0x9ce4
   1871c:	e3400001 	movt	r0, #1
   18720:	e30b1e38 	movw	r1, #48696	; 0xbe38
   18724:	e3401001 	movt	r1, #1
   18728:	e3a02052 	mov	r2, #82	; 0x52
   1872c:	ebfff61c 	bl	15fa4 <assertion_failed>
   18730:	e3a03001 	mov	r3, #1
   18734:	e5843000 	str	r3, [r4]
   18738:	ebfff5d3 	bl	15e8c <palloc>
   1873c:	e5840004 	str	r0, [r4, #4]
   18740:	e3500000 	cmp	r0, #0
   18744:	1a000005 	bne	18760 <PageTable2+0x58>
   18748:	e30b0e44 	movw	r0, #48708	; 0xbe44
   1874c:	e3400001 	movt	r0, #1
   18750:	e30b1e38 	movw	r1, #48696	; 0xbe38
   18754:	e3401001 	movt	r1, #1
   18758:	e3a02057 	mov	r2, #87	; 0x57
   1875c:	ebfff610 	bl	15fa4 <assertion_failed>
   18760:	e5943004 	ldr	r3, [r4, #4]
   18764:	e7eb3053 	ubfx	r3, r3, #0, #12
   18768:	e3530000 	cmp	r3, #0
   1876c:	0a000037 	beq	18850 <PageTable2+0x148>
   18770:	e30b0e5c 	movw	r0, #48732	; 0xbe5c
   18774:	e3400001 	movt	r0, #1
   18778:	e30b1e38 	movw	r1, #48696	; 0xbe38
   1877c:	e3401001 	movt	r1, #1
   18780:	e3a02058 	mov	r2, #88	; 0x58
   18784:	ebfff606 	bl	15fa4 <assertion_failed>
   18788:	ea000030 	b	18850 <PageTable2+0x148>
   1878c:	e5940004 	ldr	r0, [r4, #4]
   18790:	e0801002 	add	r1, r0, r2
   18794:	e7d03002 	ldrb	r3, [r0, r2]
   18798:	e7c13017 	bfi	r3, r7, #0, #2
   1879c:	e6ef3073 	uxtb	r3, r3
   187a0:	e383300c 	orr	r3, r3, #12
   187a4:	e203300f 	and	r3, r3, #15
   187a8:	e7c03002 	strb	r3, [r0, r2]
   187ac:	e5d13001 	ldrb	r3, [r1, #1]
   187b0:	e20330fc 	and	r3, r3, #252	; 0xfc
   187b4:	e7c33116 	bfi	r3, r6, #2, #2
   187b8:	e203308f 	and	r3, r3, #143	; 0x8f
   187bc:	e7c7339f 	bfc	r3, #7, #1
   187c0:	e5c13001 	strb	r3, [r1, #1]
   187c4:	e1a03a2c 	lsr	r3, ip, #20
   187c8:	e1a08203 	lsl	r8, r3, #4
   187cc:	e5c18002 	strb	r8, [r1, #2]
   187d0:	e1a03223 	lsr	r3, r3, #4
   187d4:	e5c13003 	strb	r3, [r1, #3]
   187d8:	e15c000e 	cmp	ip, lr
   187dc:	3a000014 	bcc	18834 <PageTable2+0x12c>
   187e0:	e7d03002 	ldrb	r3, [r0, r2]
   187e4:	e3833010 	orr	r3, r3, #16
   187e8:	e7c03002 	strb	r3, [r0, r2]
   187ec:	e155000c 	cmp	r5, ip
   187f0:	8a000006 	bhi	18810 <PageTable2+0x108>
   187f4:	e6ef3073 	uxtb	r3, r3
   187f8:	e7c3319f 	bfc	r3, #3, #1
   187fc:	e5c13000 	strb	r3, [r1]
   18800:	e5d13002 	ldrb	r3, [r1, #2]
   18804:	e3833001 	orr	r3, r3, #1
   18808:	e5c13002 	strb	r3, [r1, #2]
   1880c:	ea000008 	b	18834 <PageTable2+0x12c>
   18810:	e35c0501 	cmp	ip, #4194304	; 0x400000
   18814:	1a000006 	bne	18834 <PageTable2+0x12c>
   18818:	e5d13000 	ldrb	r3, [r1]
   1881c:	e20330fb 	and	r3, r3, #251	; 0xfb
   18820:	e7c3319f 	bfc	r3, #3, #1
   18824:	e5c13000 	strb	r3, [r1]
   18828:	e5d13002 	ldrb	r3, [r1, #2]
   1882c:	e3833001 	orr	r3, r3, #1
   18830:	e5c13002 	strb	r3, [r1, #2]
   18834:	e2822004 	add	r2, r2, #4
   18838:	e28cc601 	add	ip, ip, #1048576	; 0x100000
   1883c:	e3520a01 	cmp	r2, #4096	; 0x1000
   18840:	1affffd1 	bne	1878c <PageTable2+0x84>
   18844:	ebfffae8 	bl	173ec <CleanDataCache>
   18848:	f57ff04f 	dsb	sy
   1884c:	e8bd81f0 	pop	{r4, r5, r6, r7, r8, pc}
   18850:	e3a0c000 	mov	ip, #0
   18854:	e1a0200c 	mov	r2, ip
   18858:	e3a07002 	mov	r7, #2
   1885c:	e3a06001 	mov	r6, #1
   18860:	e309ea0c 	movw	lr, #39436	; 0x9a0c
   18864:	e340e001 	movt	lr, #1
   18868:	eaffffc7 	b	1878c <PageTable2+0x84>

0001886c <_PageTable>:
   1886c:	e92d4010 	push	{r4, lr}
   18870:	e2504000 	subs	r4, r0, #0
   18874:	1a000005 	bne	18890 <_PageTable+0x24>
   18878:	e3090ce4 	movw	r0, #40164	; 0x9ce4
   1887c:	e3400001 	movt	r0, #1
   18880:	e30b1e38 	movw	r1, #48696	; 0xbe38
   18884:	e3401001 	movt	r1, #1
   18888:	e3a02090 	mov	r2, #144	; 0x90
   1888c:	ebfff5c4 	bl	15fa4 <assertion_failed>
   18890:	e5943000 	ldr	r3, [r4]
   18894:	e3530000 	cmp	r3, #0
   18898:	08bd8010 	popeq	{r4, pc}
   1889c:	e5940004 	ldr	r0, [r4, #4]
   188a0:	ebfff5ab 	bl	15f54 <pfree>
   188a4:	e3a03000 	mov	r3, #0
   188a8:	e5843004 	str	r3, [r4, #4]
   188ac:	e8bd8010 	pop	{r4, pc}

000188b0 <PageTableGetBaseAddress>:
   188b0:	e92d4010 	push	{r4, lr}
   188b4:	e2504000 	subs	r4, r0, #0
   188b8:	1a000005 	bne	188d4 <PageTableGetBaseAddress+0x24>
   188bc:	e3090ce4 	movw	r0, #40164	; 0x9ce4
   188c0:	e3400001 	movt	r0, #1
   188c4:	e30b1e38 	movw	r1, #48696	; 0xbe38
   188c8:	e3401001 	movt	r1, #1
   188cc:	e3a0209b 	mov	r2, #155	; 0x9b
   188d0:	ebfff5b3 	bl	15fa4 <assertion_failed>
   188d4:	e5940004 	ldr	r0, [r4, #4]
   188d8:	e3800059 	orr	r0, r0, #89	; 0x59
   188dc:	e8bd8010 	pop	{r4, pc}

000188e0 <ExceptionHandler2>:
   188e0:	e92d4010 	push	{r4, lr}
   188e4:	e2504000 	subs	r4, r0, #0
   188e8:	1a000005 	bne	18904 <ExceptionHandler2+0x24>
   188ec:	e3090ce4 	movw	r0, #40164	; 0x9ce4
   188f0:	e3400001 	movt	r0, #1
   188f4:	e30b1e9c 	movw	r1, #48796	; 0xbe9c
   188f8:	e3401001 	movt	r1, #1
   188fc:	e3a02029 	mov	r2, #41	; 0x29
   18900:	ebfff5a7 	bl	15fa4 <assertion_failed>
   18904:	e30c3a68 	movw	r3, #51816	; 0xca68
   18908:	e3403001 	movt	r3, #1
   1890c:	e5933000 	ldr	r3, [r3]
   18910:	e3530000 	cmp	r3, #0
   18914:	0a000005 	beq	18930 <ExceptionHandler2+0x50>
   18918:	e30a09e0 	movw	r0, #43488	; 0xa9e0
   1891c:	e3400001 	movt	r0, #1
   18920:	e30b1e9c 	movw	r1, #48796	; 0xbe9c
   18924:	e3401001 	movt	r1, #1
   18928:	e3a0202b 	mov	r2, #43	; 0x2b
   1892c:	ebfff59c 	bl	15fa4 <assertion_failed>
   18930:	e30c3a68 	movw	r3, #51816	; 0xca68
   18934:	e3403001 	movt	r3, #1
   18938:	e5834000 	str	r4, [r3]
   1893c:	e3a04000 	mov	r4, #0
   18940:	e59f3050 	ldr	r3, [pc, #80]	; 18998 <ExceptionHandler2+0xb8>
   18944:	e1a03143 	asr	r3, r3, #2
   18948:	e2433002 	sub	r3, r3, #2
   1894c:	e38334ea 	orr	r3, r3, #-369098752	; 0xea000000
   18950:	e5843004 	str	r3, [r4, #4]
   18954:	e59f3040 	ldr	r3, [pc, #64]	; 1899c <ExceptionHandler2+0xbc>
   18958:	e1a03143 	asr	r3, r3, #2
   1895c:	e2433002 	sub	r3, r3, #2
   18960:	e38334ea 	orr	r3, r3, #-369098752	; 0xea000000
   18964:	e584300c 	str	r3, [r4, #12]
   18968:	e59f3030 	ldr	r3, [pc, #48]	; 189a0 <ExceptionHandler2+0xc0>
   1896c:	e1a03143 	asr	r3, r3, #2
   18970:	e2433002 	sub	r3, r3, #2
   18974:	e38334ea 	orr	r3, r3, #-369098752	; 0xea000000
   18978:	e5843010 	str	r3, [r4, #16]
   1897c:	ebfffa9a 	bl	173ec <CleanDataCache>
   18980:	f57ff04f 	dsb	sy
   18984:	ee074f15 	mcr	15, 0, r4, cr7, cr5, {0}
   18988:	ee074fd5 	mcr	15, 0, r4, cr7, cr5, {6}
   1898c:	f57ff04f 	dsb	sy
   18990:	f57ff06f 	isb	sy
   18994:	e8bd8010 	pop	{r4, pc}
   18998:	0001925c 	andeq	r9, r1, ip, asr r2
   1899c:	00019298 	muleq	r1, r8, r2
   189a0:	000192d8 	ldrdeq	r9, [r1], -r8

000189a4 <_ExceptionHandler>:
   189a4:	e92d4008 	push	{r3, lr}
   189a8:	e3500000 	cmp	r0, #0
   189ac:	1a000005 	bne	189c8 <_ExceptionHandler+0x24>
   189b0:	e3090ce4 	movw	r0, #40164	; 0x9ce4
   189b4:	e3400001 	movt	r0, #1
   189b8:	e30b1e9c 	movw	r1, #48796	; 0xbe9c
   189bc:	e3401001 	movt	r1, #1
   189c0:	e3a02044 	mov	r2, #68	; 0x44
   189c4:	ebfff576 	bl	15fa4 <assertion_failed>
   189c8:	e30c3a68 	movw	r3, #51816	; 0xca68
   189cc:	e3403001 	movt	r3, #1
   189d0:	e3a02000 	mov	r2, #0
   189d4:	e5832000 	str	r2, [r3]
   189d8:	e8bd8008 	pop	{r3, pc}

000189dc <ExceptionHandlerThrow>:
   189dc:	e92d4010 	push	{r4, lr}
   189e0:	e24dd008 	sub	sp, sp, #8
   189e4:	e1a04001 	mov	r4, r1
   189e8:	e3500000 	cmp	r0, #0
   189ec:	1a000005 	bne	18a08 <ExceptionHandlerThrow+0x2c>
   189f0:	e3090ce4 	movw	r0, #40164	; 0x9ce4
   189f4:	e3400001 	movt	r0, #1
   189f8:	e30b1e9c 	movw	r1, #48796	; 0xbe9c
   189fc:	e3401001 	movt	r1, #1
   18a00:	e3a0204b 	mov	r2, #75	; 0x4b
   18a04:	ebfff566 	bl	15fa4 <assertion_failed>
   18a08:	ebfff5fb 	bl	161fc <LoggerGet>
   18a0c:	e30b1e84 	movw	r1, #48772	; 0xbe84
   18a10:	e3401001 	movt	r1, #1
   18a14:	e0814104 	add	r4, r1, r4, lsl #2
   18a18:	e5942008 	ldr	r2, [r4, #8]
   18a1c:	e58d2000 	str	r2, [sp]
   18a20:	e3a02000 	mov	r2, #0
   18a24:	e30b3eb0 	movw	r3, #48816	; 0xbeb0
   18a28:	e3403001 	movt	r3, #1
   18a2c:	ebfff69d 	bl	164a8 <LoggerWrite>
   18a30:	e28dd008 	add	sp, sp, #8
   18a34:	e8bd8010 	pop	{r4, pc}

00018a38 <ExceptionHandlerThrow2>:
   18a38:	e92d47f0 	push	{r4, r5, r6, r7, r8, r9, sl, lr}
   18a3c:	e24dd020 	sub	sp, sp, #32
   18a40:	e1a06001 	mov	r6, r1
   18a44:	e1a04002 	mov	r4, r2
   18a48:	e3500000 	cmp	r0, #0
   18a4c:	1a000005 	bne	18a68 <ExceptionHandlerThrow2+0x30>
   18a50:	e3090ce4 	movw	r0, #40164	; 0x9ce4
   18a54:	e3400001 	movt	r0, #1
   18a58:	e30b1e9c 	movw	r1, #48796	; 0xbe9c
   18a5c:	e3401001 	movt	r1, #1
   18a60:	e3a02052 	mov	r2, #82	; 0x52
   18a64:	ebfff54e 	bl	15fa4 <assertion_failed>
   18a68:	e3560002 	cmp	r6, #2
   18a6c:	0a000002 	beq	18a7c <ExceptionHandlerThrow2+0x44>
   18a70:	e3560003 	cmp	r6, #3
   18a74:	0a000003 	beq	18a88 <ExceptionHandlerThrow2+0x50>
   18a78:	ea000005 	b	18a94 <ExceptionHandlerThrow2+0x5c>
   18a7c:	ee15af30 	mrc	15, 0, sl, cr5, cr0, {1}
   18a80:	ee169f50 	mrc	15, 0, r9, cr6, cr0, {2}
   18a84:	ea000004 	b	18a9c <ExceptionHandlerThrow2+0x64>
   18a88:	ee15af10 	mrc	15, 0, sl, cr5, cr0, {0}
   18a8c:	ee169f10 	mrc	15, 0, r9, cr6, cr0, {0}
   18a90:	ea000001 	b	18a9c <ExceptionHandlerThrow2+0x64>
   18a94:	e3a09000 	mov	r9, #0
   18a98:	e1a0a009 	mov	sl, r9
   18a9c:	e3540000 	cmp	r4, #0
   18aa0:	1a000005 	bne	18abc <ExceptionHandlerThrow2+0x84>
   18aa4:	e30b0ec0 	movw	r0, #48832	; 0xbec0
   18aa8:	e3400001 	movt	r0, #1
   18aac:	e30b1e9c 	movw	r1, #48796	; 0xbe9c
   18ab0:	e3401001 	movt	r1, #1
   18ab4:	e3a02065 	mov	r2, #101	; 0x65
   18ab8:	ebfff539 	bl	15fa4 <assertion_failed>
   18abc:	e5948040 	ldr	r8, [r4, #64]	; 0x40
   18ac0:	e594703c 	ldr	r7, [r4, #60]	; 0x3c
   18ac4:	e5943044 	ldr	r3, [r4, #68]	; 0x44
   18ac8:	e203301f 	and	r3, r3, #31
   18acc:	e3530012 	cmp	r3, #18
   18ad0:	05948004 	ldreq	r8, [r4, #4]
   18ad4:	05947000 	ldreq	r7, [r4]
   18ad8:	e30b5e84 	movw	r5, #48772	; 0xbe84
   18adc:	e3405001 	movt	r5, #1
   18ae0:	e1a00007 	mov	r0, r7
   18ae4:	e1a01005 	mov	r1, r5
   18ae8:	ebfff593 	bl	1613c <debug_stacktrace>
   18aec:	ebfff5c2 	bl	161fc <LoggerGet>
   18af0:	e0856106 	add	r6, r5, r6, lsl #2
   18af4:	e5963008 	ldr	r3, [r6, #8]
   18af8:	e58d3000 	str	r3, [sp]
   18afc:	e5943048 	ldr	r3, [r4, #72]	; 0x48
   18b00:	e58d3004 	str	r3, [sp, #4]
   18b04:	e58da008 	str	sl, [sp, #8]
   18b08:	e58d900c 	str	r9, [sp, #12]
   18b0c:	e58d7010 	str	r7, [sp, #16]
   18b10:	e58d8014 	str	r8, [sp, #20]
   18b14:	e5943044 	ldr	r3, [r4, #68]	; 0x44
   18b18:	e58d3018 	str	r3, [sp, #24]
   18b1c:	e1a01005 	mov	r1, r5
   18b20:	e3a02000 	mov	r2, #0
   18b24:	e30b3ecc 	movw	r3, #48844	; 0xbecc
   18b28:	e3403001 	movt	r3, #1
   18b2c:	ebfff65d 	bl	164a8 <LoggerWrite>
   18b30:	e28dd020 	add	sp, sp, #32
   18b34:	e8bd87f0 	pop	{r4, r5, r6, r7, r8, r9, sl, pc}

00018b38 <ExceptionHandlerGet>:
   18b38:	e92d4008 	push	{r3, lr}
   18b3c:	e30c3a68 	movw	r3, #51816	; 0xca68
   18b40:	e3403001 	movt	r3, #1
   18b44:	e5933000 	ldr	r3, [r3]
   18b48:	e3530000 	cmp	r3, #0
   18b4c:	1a000005 	bne	18b68 <ExceptionHandlerGet+0x30>
   18b50:	e30a0a34 	movw	r0, #43572	; 0xaa34
   18b54:	e3400001 	movt	r0, #1
   18b58:	e30b1e9c 	movw	r1, #48796	; 0xbe9c
   18b5c:	e3401001 	movt	r1, #1
   18b60:	e3a0207c 	mov	r2, #124	; 0x7c
   18b64:	ebfff50e 	bl	15fa4 <assertion_failed>
   18b68:	e30c3a68 	movw	r3, #51816	; 0xca68
   18b6c:	e3403001 	movt	r3, #1
   18b70:	e5930000 	ldr	r0, [r3]
   18b74:	e8bd8008 	pop	{r3, pc}

00018b78 <ExceptionHandler>:
   18b78:	e92d4038 	push	{r3, r4, r5, lr}
   18b7c:	e1a05000 	mov	r5, r0
   18b80:	e1a04001 	mov	r4, r1
   18b84:	f57ff05f 	dmb	sy
   18b88:	ebffffea 	bl	18b38 <ExceptionHandlerGet>
   18b8c:	e1a01005 	mov	r1, r5
   18b90:	e1a02004 	mov	r2, r4
   18b94:	ebffffa7 	bl	18a38 <ExceptionHandlerThrow2>
   18b98:	e8bd8038 	pop	{r3, r4, r5, pc}

00018b9c <BcmFrameBuffer>:
   18b9c:	e92d40f0 	push	{r4, r5, r6, r7, lr}
   18ba0:	e24dd024 	sub	sp, sp, #36	; 0x24
   18ba4:	e1a05001 	mov	r5, r1
   18ba8:	e1a06002 	mov	r6, r2
   18bac:	e1a07003 	mov	r7, r3
   18bb0:	e2504000 	subs	r4, r0, #0
   18bb4:	1a000005 	bne	18bd0 <BcmFrameBuffer+0x34>
   18bb8:	e3090ce4 	movw	r0, #40164	; 0x9ce4
   18bbc:	e3400001 	movt	r0, #1
   18bc0:	e30b1f54 	movw	r1, #48980	; 0xbf54
   18bc4:	e3401001 	movt	r1, #1
   18bc8:	e3a0201e 	mov	r2, #30
   18bcc:	ebfff4f4 	bl	15fa4 <assertion_failed>
   18bd0:	e2840004 	add	r0, r4, #4
   18bd4:	e3a01001 	mov	r1, #1
   18bd8:	eb000313 	bl	1982c <BcmMailBox>
   18bdc:	e3560000 	cmp	r6, #0
   18be0:	13550000 	cmpne	r5, #0
   18be4:	1a00001b 	bne	18c58 <BcmFrameBuffer+0xbc>
   18be8:	e28d0008 	add	r0, sp, #8
   18bec:	eb0000c2 	bl	18efc <BcmPropertyTags>
   18bf0:	e3a03000 	mov	r3, #0
   18bf4:	e58d3000 	str	r3, [sp]
   18bf8:	e28d0008 	add	r0, sp, #8
   18bfc:	e3a01003 	mov	r1, #3
   18c00:	e3401004 	movt	r1, #4
   18c04:	e28d200c 	add	r2, sp, #12
   18c08:	e3a03014 	mov	r3, #20
   18c0c:	eb0000d3 	bl	18f60 <BcmPropertyTagsGetTag>
   18c10:	e3500000 	cmp	r0, #0
   18c14:	03a06e1e 	moveq	r6, #480	; 0x1e0
   18c18:	03a05d0a 	moveq	r5, #640	; 0x280
   18c1c:	0a00000b 	beq	18c50 <BcmFrameBuffer+0xb4>
   18c20:	e59d5018 	ldr	r5, [sp, #24]
   18c24:	e59d601c 	ldr	r6, [sp, #28]
   18c28:	e2453d0a 	sub	r3, r5, #640	; 0x280
   18c2c:	e3530c05 	cmp	r3, #1280	; 0x500
   18c30:	83a06e1e 	movhi	r6, #480	; 0x1e0
   18c34:	83a05d0a 	movhi	r5, #640	; 0x280
   18c38:	8a000004 	bhi	18c50 <BcmFrameBuffer+0xb4>
   18c3c:	e2463e1e 	sub	r3, r6, #480	; 0x1e0
   18c40:	e3530f96 	cmp	r3, #600	; 0x258
   18c44:	83a06e1e 	movhi	r6, #480	; 0x1e0
   18c48:	83a05d0a 	movhi	r5, #640	; 0x280
   18c4c:	eaffffff 	b	18c50 <BcmFrameBuffer+0xb4>
   18c50:	e28d0008 	add	r0, sp, #8
   18c54:	eb0000b5 	bl	18f30 <_BcmPropertyTags>
   18c58:	e3570008 	cmp	r7, #8
   18c5c:	1a000007 	bne	18c80 <BcmFrameBuffer+0xe4>
   18c60:	e3a00f8a 	mov	r0, #552	; 0x228
   18c64:	ebfff3fe 	bl	15c64 <malloc>
   18c68:	e5840000 	str	r0, [r4]
   18c6c:	e2800028 	add	r0, r0, #40	; 0x28
   18c70:	e3a01000 	mov	r1, #0
   18c74:	e3a02c02 	mov	r2, #512	; 0x200
   18c78:	ebfffd09 	bl	180a4 <memset>
   18c7c:	ea000002 	b	18c8c <BcmFrameBuffer+0xf0>
   18c80:	e3a00028 	mov	r0, #40	; 0x28
   18c84:	ebfff3f6 	bl	15c64 <malloc>
   18c88:	e5840000 	str	r0, [r4]
   18c8c:	e5943000 	ldr	r3, [r4]
   18c90:	e5835000 	str	r5, [r3]
   18c94:	e5943000 	ldr	r3, [r4]
   18c98:	e5836004 	str	r6, [r3, #4]
   18c9c:	e5943000 	ldr	r3, [r4]
   18ca0:	e5835008 	str	r5, [r3, #8]
   18ca4:	e5943000 	ldr	r3, [r4]
   18ca8:	e583600c 	str	r6, [r3, #12]
   18cac:	e5943000 	ldr	r3, [r4]
   18cb0:	e3a02000 	mov	r2, #0
   18cb4:	e5832010 	str	r2, [r3, #16]
   18cb8:	e5943000 	ldr	r3, [r4]
   18cbc:	e5837014 	str	r7, [r3, #20]
   18cc0:	e5943000 	ldr	r3, [r4]
   18cc4:	e5832018 	str	r2, [r3, #24]
   18cc8:	e5943000 	ldr	r3, [r4]
   18ccc:	e583201c 	str	r2, [r3, #28]
   18cd0:	e5943000 	ldr	r3, [r4]
   18cd4:	e5832020 	str	r2, [r3, #32]
   18cd8:	e5943000 	ldr	r3, [r4]
   18cdc:	e5832024 	str	r2, [r3, #36]	; 0x24
   18ce0:	e28dd024 	add	sp, sp, #36	; 0x24
   18ce4:	e8bd80f0 	pop	{r4, r5, r6, r7, pc}

00018ce8 <_BcmFrameBuffer>:
   18ce8:	e92d4010 	push	{r4, lr}
   18cec:	e2504000 	subs	r4, r0, #0
   18cf0:	1a000005 	bne	18d0c <_BcmFrameBuffer+0x24>
   18cf4:	e3090ce4 	movw	r0, #40164	; 0x9ce4
   18cf8:	e3400001 	movt	r0, #1
   18cfc:	e30b1f54 	movw	r1, #48980	; 0xbf54
   18d00:	e3401001 	movt	r1, #1
   18d04:	e3a0205b 	mov	r2, #91	; 0x5b
   18d08:	ebfff4a5 	bl	15fa4 <assertion_failed>
   18d0c:	e5940000 	ldr	r0, [r4]
   18d10:	ebfff42f 	bl	15dd4 <free>
   18d14:	e1a00004 	mov	r0, r4
   18d18:	e3a03000 	mov	r3, #0
   18d1c:	e4803004 	str	r3, [r0], #4
   18d20:	eb0002cd 	bl	1985c <_BcmMailBox>
   18d24:	e8bd8010 	pop	{r4, pc}

00018d28 <BcmFrameBufferSetPalette>:
   18d28:	e92d4070 	push	{r4, r5, r6, lr}
   18d2c:	e1a04001 	mov	r4, r1
   18d30:	e1a06002 	mov	r6, r2
   18d34:	e2505000 	subs	r5, r0, #0
   18d38:	1a000005 	bne	18d54 <BcmFrameBufferSetPalette+0x2c>
   18d3c:	e3090ce4 	movw	r0, #40164	; 0x9ce4
   18d40:	e3400001 	movt	r0, #1
   18d44:	e30b1f54 	movw	r1, #48980	; 0xbf54
   18d48:	e3401001 	movt	r1, #1
   18d4c:	e3a02065 	mov	r2, #101	; 0x65
   18d50:	ebfff493 	bl	15fa4 <assertion_failed>
   18d54:	e5953000 	ldr	r3, [r5]
   18d58:	e5931014 	ldr	r1, [r3, #20]
   18d5c:	e3510008 	cmp	r1, #8
   18d60:	02844014 	addeq	r4, r4, #20
   18d64:	01a04084 	lsleq	r4, r4, #1
   18d68:	018360b4 	strheq	r6, [r3, r4]
   18d6c:	e8bd8070 	pop	{r4, r5, r6, pc}

00018d70 <BcmFrameBufferInitialize>:
   18d70:	e92d4038 	push	{r3, r4, r5, lr}
   18d74:	e2504000 	subs	r4, r0, #0
   18d78:	1a000005 	bne	18d94 <BcmFrameBufferInitialize+0x24>
   18d7c:	e3090ce4 	movw	r0, #40164	; 0x9ce4
   18d80:	e3400001 	movt	r0, #1
   18d84:	e30b1f54 	movw	r1, #48980	; 0xbf54
   18d88:	e3401001 	movt	r1, #1
   18d8c:	e3a0206f 	mov	r2, #111	; 0x6f
   18d90:	ebfff483 	bl	15fa4 <assertion_failed>
   18d94:	ebfff994 	bl	173ec <CleanDataCache>
   18d98:	f57ff04f 	dsb	sy
   18d9c:	e5941000 	ldr	r1, [r4]
   18da0:	e2840004 	add	r0, r4, #4
   18da4:	e2811103 	add	r1, r1, #-1073741824	; 0xc0000000
   18da8:	eb000303 	bl	199bc <BcmMailBoxWriteRead>
   18dac:	e1a05000 	mov	r5, r0
   18db0:	ebfff95b 	bl	17324 <InvalidateDataCache>
   18db4:	e3550000 	cmp	r5, #0
   18db8:	1a000004 	bne	18dd0 <BcmFrameBufferInitialize+0x60>
   18dbc:	e5943000 	ldr	r3, [r4]
   18dc0:	e5930020 	ldr	r0, [r3, #32]
   18dc4:	e2900000 	adds	r0, r0, #0
   18dc8:	13a00001 	movne	r0, #1
   18dcc:	e8bd8038 	pop	{r3, r4, r5, pc}
   18dd0:	e3a00000 	mov	r0, #0
   18dd4:	e8bd8038 	pop	{r3, r4, r5, pc}

00018dd8 <BcmFrameBufferGetWidth>:
   18dd8:	e92d4010 	push	{r4, lr}
   18ddc:	e2504000 	subs	r4, r0, #0
   18de0:	1a000005 	bne	18dfc <BcmFrameBufferGetWidth+0x24>
   18de4:	e3090ce4 	movw	r0, #40164	; 0x9ce4
   18de8:	e3400001 	movt	r0, #1
   18dec:	e30b1f54 	movw	r1, #48980	; 0xbf54
   18df0:	e3401001 	movt	r1, #1
   18df4:	e3a02085 	mov	r2, #133	; 0x85
   18df8:	ebfff469 	bl	15fa4 <assertion_failed>
   18dfc:	e5943000 	ldr	r3, [r4]
   18e00:	e5930000 	ldr	r0, [r3]
   18e04:	e8bd8010 	pop	{r4, pc}

00018e08 <BcmFrameBufferGetHeight>:
   18e08:	e92d4010 	push	{r4, lr}
   18e0c:	e2504000 	subs	r4, r0, #0
   18e10:	1a000005 	bne	18e2c <BcmFrameBufferGetHeight+0x24>
   18e14:	e3090ce4 	movw	r0, #40164	; 0x9ce4
   18e18:	e3400001 	movt	r0, #1
   18e1c:	e30b1f54 	movw	r1, #48980	; 0xbf54
   18e20:	e3401001 	movt	r1, #1
   18e24:	e3a0208b 	mov	r2, #139	; 0x8b
   18e28:	ebfff45d 	bl	15fa4 <assertion_failed>
   18e2c:	e5943000 	ldr	r3, [r4]
   18e30:	e5930004 	ldr	r0, [r3, #4]
   18e34:	e8bd8010 	pop	{r4, pc}

00018e38 <BcmFrameBufferGetPitch>:
   18e38:	e92d4010 	push	{r4, lr}
   18e3c:	e2504000 	subs	r4, r0, #0
   18e40:	1a000005 	bne	18e5c <BcmFrameBufferGetPitch+0x24>
   18e44:	e3090ce4 	movw	r0, #40164	; 0x9ce4
   18e48:	e3400001 	movt	r0, #1
   18e4c:	e30b1f54 	movw	r1, #48980	; 0xbf54
   18e50:	e3401001 	movt	r1, #1
   18e54:	e3a02091 	mov	r2, #145	; 0x91
   18e58:	ebfff451 	bl	15fa4 <assertion_failed>
   18e5c:	e5943000 	ldr	r3, [r4]
   18e60:	e5930010 	ldr	r0, [r3, #16]
   18e64:	e8bd8010 	pop	{r4, pc}

00018e68 <BcmFrameBufferGetDepth>:
   18e68:	e92d4010 	push	{r4, lr}
   18e6c:	e2504000 	subs	r4, r0, #0
   18e70:	1a000005 	bne	18e8c <BcmFrameBufferGetDepth+0x24>
   18e74:	e3090ce4 	movw	r0, #40164	; 0x9ce4
   18e78:	e3400001 	movt	r0, #1
   18e7c:	e30b1f54 	movw	r1, #48980	; 0xbf54
   18e80:	e3401001 	movt	r1, #1
   18e84:	e3a02097 	mov	r2, #151	; 0x97
   18e88:	ebfff445 	bl	15fa4 <assertion_failed>
   18e8c:	e5943000 	ldr	r3, [r4]
   18e90:	e5930014 	ldr	r0, [r3, #20]
   18e94:	e8bd8010 	pop	{r4, pc}

00018e98 <BcmFrameBufferGetBuffer>:
   18e98:	e92d4010 	push	{r4, lr}
   18e9c:	e2504000 	subs	r4, r0, #0
   18ea0:	1a000005 	bne	18ebc <BcmFrameBufferGetBuffer+0x24>
   18ea4:	e3090ce4 	movw	r0, #40164	; 0x9ce4
   18ea8:	e3400001 	movt	r0, #1
   18eac:	e30b1f54 	movw	r1, #48980	; 0xbf54
   18eb0:	e3401001 	movt	r1, #1
   18eb4:	e3a0209d 	mov	r2, #157	; 0x9d
   18eb8:	ebfff439 	bl	15fa4 <assertion_failed>
   18ebc:	e5943000 	ldr	r3, [r4]
   18ec0:	e5930020 	ldr	r0, [r3, #32]
   18ec4:	e3c00103 	bic	r0, r0, #-1073741824	; 0xc0000000
   18ec8:	e8bd8010 	pop	{r4, pc}

00018ecc <BcmFrameBufferGetSize>:
   18ecc:	e92d4010 	push	{r4, lr}
   18ed0:	e2504000 	subs	r4, r0, #0
   18ed4:	1a000005 	bne	18ef0 <BcmFrameBufferGetSize+0x24>
   18ed8:	e3090ce4 	movw	r0, #40164	; 0x9ce4
   18edc:	e3400001 	movt	r0, #1
   18ee0:	e30b1f54 	movw	r1, #48980	; 0xbf54
   18ee4:	e3401001 	movt	r1, #1
   18ee8:	e3a020a3 	mov	r2, #163	; 0xa3
   18eec:	ebfff42c 	bl	15fa4 <assertion_failed>
   18ef0:	e5943000 	ldr	r3, [r4]
   18ef4:	e5930024 	ldr	r0, [r3, #36]	; 0x24
   18ef8:	e8bd8010 	pop	{r4, pc}

00018efc <BcmPropertyTags>:
   18efc:	e92d4010 	push	{r4, lr}
   18f00:	e2504000 	subs	r4, r0, #0
   18f04:	1a000005 	bne	18f20 <BcmPropertyTags+0x24>
   18f08:	e3090ce4 	movw	r0, #40164	; 0x9ce4
   18f0c:	e3400001 	movt	r0, #1
   18f10:	e30b1f68 	movw	r1, #49000	; 0xbf68
   18f14:	e3401001 	movt	r1, #1
   18f18:	e3a02029 	mov	r2, #41	; 0x29
   18f1c:	ebfff420 	bl	15fa4 <assertion_failed>
   18f20:	e1a00004 	mov	r0, r4
   18f24:	e3a01008 	mov	r1, #8
   18f28:	eb00023f 	bl	1982c <BcmMailBox>
   18f2c:	e8bd8010 	pop	{r4, pc}

00018f30 <_BcmPropertyTags>:
   18f30:	e92d4010 	push	{r4, lr}
   18f34:	e2504000 	subs	r4, r0, #0
   18f38:	1a000005 	bne	18f54 <_BcmPropertyTags+0x24>
   18f3c:	e3090ce4 	movw	r0, #40164	; 0x9ce4
   18f40:	e3400001 	movt	r0, #1
   18f44:	e30b1f68 	movw	r1, #49000	; 0xbf68
   18f48:	e3401001 	movt	r1, #1
   18f4c:	e3a02030 	mov	r2, #48	; 0x30
   18f50:	ebfff413 	bl	15fa4 <assertion_failed>
   18f54:	e1a00004 	mov	r0, r4
   18f58:	eb00023f 	bl	1985c <_BcmMailBox>
   18f5c:	e8bd8010 	pop	{r4, pc}

00018f60 <BcmPropertyTagsGetTag>:
   18f60:	e92d47f0 	push	{r4, r5, r6, r7, r8, r9, sl, lr}
   18f64:	e1a0a001 	mov	sl, r1
   18f68:	e1a07002 	mov	r7, r2
   18f6c:	e1a04003 	mov	r4, r3
   18f70:	e2509000 	subs	r9, r0, #0
   18f74:	1a000005 	bne	18f90 <BcmPropertyTagsGetTag+0x30>
   18f78:	e3090ce4 	movw	r0, #40164	; 0x9ce4
   18f7c:	e3400001 	movt	r0, #1
   18f80:	e30b1f68 	movw	r1, #49000	; 0xbf68
   18f84:	e3401001 	movt	r1, #1
   18f88:	e3a02038 	mov	r2, #56	; 0x38
   18f8c:	ebfff404 	bl	15fa4 <assertion_failed>
   18f90:	e3570000 	cmp	r7, #0
   18f94:	1a000005 	bne	18fb0 <BcmPropertyTagsGetTag+0x50>
   18f98:	e30b0f7c 	movw	r0, #49020	; 0xbf7c
   18f9c:	e3400001 	movt	r0, #1
   18fa0:	e30b1f68 	movw	r1, #49000	; 0xbf68
   18fa4:	e3401001 	movt	r1, #1
   18fa8:	e3a0203a 	mov	r2, #58	; 0x3a
   18fac:	ebfff3fc 	bl	15fa4 <assertion_failed>
   18fb0:	e354000f 	cmp	r4, #15
   18fb4:	8a000005 	bhi	18fd0 <BcmPropertyTagsGetTag+0x70>
   18fb8:	e30b0f88 	movw	r0, #49032	; 0xbf88
   18fbc:	e3400001 	movt	r0, #1
   18fc0:	e30b1f68 	movw	r1, #49000	; 0xbf68
   18fc4:	e3401001 	movt	r1, #1
   18fc8:	e3a0203b 	mov	r2, #59	; 0x3b
   18fcc:	ebfff3f4 	bl	15fa4 <assertion_failed>
   18fd0:	e284600c 	add	r6, r4, #12
   18fd4:	e3160003 	tst	r6, #3
   18fd8:	0a000005 	beq	18ff4 <BcmPropertyTagsGetTag+0x94>
   18fdc:	e30b0fb0 	movw	r0, #49072	; 0xbfb0
   18fe0:	e3400001 	movt	r0, #1
   18fe4:	e30b1f68 	movw	r1, #49000	; 0xbf68
   18fe8:	e3401001 	movt	r1, #1
   18fec:	e3a0203d 	mov	r2, #61	; 0x3d
   18ff0:	ebfff3eb 	bl	15fa4 <assertion_failed>
   18ff4:	e3a05501 	mov	r5, #4194304	; 0x400000
   18ff8:	e5856000 	str	r6, [r5]
   18ffc:	e3a08000 	mov	r8, #0
   19000:	e5858004 	str	r8, [r5, #4]
   19004:	e3a06008 	mov	r6, #8
   19008:	e3406040 	movt	r6, #64	; 0x40
   1900c:	e1a00006 	mov	r0, r6
   19010:	e1a01007 	mov	r1, r7
   19014:	e1a02004 	mov	r2, r4
   19018:	ebfffc29 	bl	180c4 <memcpy>
   1901c:	e585a008 	str	sl, [r5, #8]
   19020:	e244300c 	sub	r3, r4, #12
   19024:	e585300c 	str	r3, [r5, #12]
   19028:	e59d3020 	ldr	r3, [sp, #32]
   1902c:	e3c33102 	bic	r3, r3, #-2147483648	; 0x80000000
   19030:	e5853010 	str	r3, [r5, #16]
   19034:	e0843005 	add	r3, r4, r5
   19038:	e5838008 	str	r8, [r3, #8]
   1903c:	e1a00009 	mov	r0, r9
   19040:	e1a01008 	mov	r1, r8
   19044:	e34c1040 	movt	r1, #49216	; 0xc040
   19048:	eb00025b 	bl	199bc <BcmMailBoxWriteRead>
   1904c:	e37005ff 	cmn	r0, #1069547520	; 0x3fc00000
   19050:	1a000010 	bne	19098 <BcmPropertyTagsGetTag+0x138>
   19054:	f57ff05f 	dmb	sy
   19058:	e5953004 	ldr	r3, [r5, #4]
   1905c:	e3530102 	cmp	r3, #-2147483648	; 0x80000000
   19060:	1a00000e 	bne	190a0 <BcmPropertyTagsGetTag+0x140>
   19064:	e5953010 	ldr	r3, [r5, #16]
   19068:	e1530008 	cmp	r3, r8
   1906c:	aa00000d 	bge	190a8 <BcmPropertyTagsGetTag+0x148>
   19070:	e3c33102 	bic	r3, r3, #-2147483648	; 0x80000000
   19074:	e5853010 	str	r3, [r5, #16]
   19078:	e1530008 	cmp	r3, r8
   1907c:	0a00000b 	beq	190b0 <BcmPropertyTagsGetTag+0x150>
   19080:	e1a00007 	mov	r0, r7
   19084:	e1a01006 	mov	r1, r6
   19088:	e1a02004 	mov	r2, r4
   1908c:	ebfffc0c 	bl	180c4 <memcpy>
   19090:	e3a00001 	mov	r0, #1
   19094:	e8bd87f0 	pop	{r4, r5, r6, r7, r8, r9, sl, pc}
   19098:	e3a00000 	mov	r0, #0
   1909c:	e8bd87f0 	pop	{r4, r5, r6, r7, r8, r9, sl, pc}
   190a0:	e3a00000 	mov	r0, #0
   190a4:	e8bd87f0 	pop	{r4, r5, r6, r7, r8, r9, sl, pc}
   190a8:	e3a00000 	mov	r0, #0
   190ac:	e8bd87f0 	pop	{r4, r5, r6, r7, r8, r9, sl, pc}
   190b0:	e3a00000 	mov	r0, #0
   190b4:	e8bd87f0 	pop	{r4, r5, r6, r7, r8, r9, sl, pc}

000190b8 <CharGenerator>:
   190b8:	e92d4010 	push	{r4, lr}
   190bc:	e2504000 	subs	r4, r0, #0
   190c0:	1a000005 	bne	190dc <CharGenerator+0x24>
   190c4:	e3090ce4 	movw	r0, #40164	; 0x9ce4
   190c8:	e3400001 	movt	r0, #1
   190cc:	e30c14ec 	movw	r1, #50412	; 0xc4ec
   190d0:	e3401001 	movt	r1, #1
   190d4:	e3a02020 	mov	r2, #32
   190d8:	ebfff3b1 	bl	15fa4 <assertion_failed>
   190dc:	e3a03008 	mov	r3, #8
   190e0:	e5843000 	str	r3, [r4]
   190e4:	e8bd8010 	pop	{r4, pc}

000190e8 <_CharGenerator>:
   190e8:	e12fff1e 	bx	lr

000190ec <CharGeneratorGetCharWidth>:
   190ec:	e92d4010 	push	{r4, lr}
   190f0:	e2504000 	subs	r4, r0, #0
   190f4:	1a000005 	bne	19110 <CharGeneratorGetCharWidth+0x24>
   190f8:	e3090ce4 	movw	r0, #40164	; 0x9ce4
   190fc:	e3400001 	movt	r0, #1
   19100:	e30c14ec 	movw	r1, #50412	; 0xc4ec
   19104:	e3401001 	movt	r1, #1
   19108:	e3a0202f 	mov	r2, #47	; 0x2f
   1910c:	ebfff3a4 	bl	15fa4 <assertion_failed>
   19110:	e5940000 	ldr	r0, [r4]
   19114:	e8bd8010 	pop	{r4, pc}

00019118 <CharGeneratorGetCharHeight>:
   19118:	e3500000 	cmp	r0, #0
   1911c:	1a000008 	bne	19144 <CharGeneratorGetCharHeight+0x2c>
   19120:	e92d4008 	push	{r3, lr}
   19124:	e3090ce4 	movw	r0, #40164	; 0x9ce4
   19128:	e3400001 	movt	r0, #1
   1912c:	e30c14ec 	movw	r1, #50412	; 0xc4ec
   19130:	e3401001 	movt	r1, #1
   19134:	e3a02035 	mov	r2, #53	; 0x35
   19138:	ebfff399 	bl	15fa4 <assertion_failed>
   1913c:	e3a00010 	mov	r0, #16
   19140:	e8bd8008 	pop	{r3, pc}
   19144:	e3a00010 	mov	r0, #16
   19148:	e12fff1e 	bx	lr

0001914c <CharGeneratorGetUnderline>:
   1914c:	e3500000 	cmp	r0, #0
   19150:	1a000008 	bne	19178 <CharGeneratorGetUnderline+0x2c>
   19154:	e92d4008 	push	{r3, lr}
   19158:	e3090ce4 	movw	r0, #40164	; 0x9ce4
   1915c:	e3400001 	movt	r0, #1
   19160:	e30c14ec 	movw	r1, #50412	; 0xc4ec
   19164:	e3401001 	movt	r1, #1
   19168:	e3a02040 	mov	r2, #64	; 0x40
   1916c:	ebfff38c 	bl	15fa4 <assertion_failed>
   19170:	e3a0000e 	mov	r0, #14
   19174:	e8bd8008 	pop	{r3, pc}
   19178:	e3a0000e 	mov	r0, #14
   1917c:	e12fff1e 	bx	lr

00019180 <CharGeneratorGetPixel>:
   19180:	e92d40f8 	push	{r3, r4, r5, r6, r7, lr}
   19184:	e1a04001 	mov	r4, r1
   19188:	e1a05002 	mov	r5, r2
   1918c:	e1a06003 	mov	r6, r3
   19190:	e2507000 	subs	r7, r0, #0
   19194:	1a000005 	bne	191b0 <CharGeneratorGetPixel+0x30>
   19198:	e3090ce4 	movw	r0, #40164	; 0x9ce4
   1919c:	e3400001 	movt	r0, #1
   191a0:	e30c14ec 	movw	r1, #50412	; 0xc4ec
   191a4:	e3401001 	movt	r1, #1
   191a8:	e3a0204b 	mov	r2, #75	; 0x4b
   191ac:	ebfff37c 	bl	15fa4 <assertion_failed>
   191b0:	e2441021 	sub	r1, r4, #33	; 0x21
   191b4:	e6ef1071 	uxtb	r1, r1
   191b8:	e351005d 	cmp	r1, #93	; 0x5d
   191bc:	8a00001e 	bhi	1923c <CharGeneratorGetPixel+0xbc>
   191c0:	e2444021 	sub	r4, r4, #33	; 0x21
   191c4:	e354005d 	cmp	r4, #93	; 0x5d
   191c8:	9a000005 	bls	191e4 <CharGeneratorGetPixel+0x64>
   191cc:	e30c04fc 	movw	r0, #50428	; 0xc4fc
   191d0:	e3400001 	movt	r0, #1
   191d4:	e30c14ec 	movw	r1, #50412	; 0xc4ec
   191d8:	e3401001 	movt	r1, #1
   191dc:	e3a02054 	mov	r2, #84	; 0x54
   191e0:	ebfff36f 	bl	15fa4 <assertion_failed>
   191e4:	e5973000 	ldr	r3, [r7]
   191e8:	e1530005 	cmp	r3, r5
   191ec:	8a000005 	bhi	19208 <CharGeneratorGetPixel+0x88>
   191f0:	e30c0510 	movw	r0, #50448	; 0xc510
   191f4:	e3400001 	movt	r0, #1
   191f8:	e30c14ec 	movw	r1, #50412	; 0xc4ec
   191fc:	e3401001 	movt	r1, #1
   19200:	e3a02056 	mov	r2, #86	; 0x56
   19204:	ebfff366 	bl	15fa4 <assertion_failed>
   19208:	e356000d 	cmp	r6, #13
   1920c:	8a00000c 	bhi	19244 <CharGeneratorGetPixel+0xc4>
   19210:	e30b3fc8 	movw	r3, #49096	; 0xbfc8
   19214:	e3403001 	movt	r3, #1
   19218:	e1a01204 	lsl	r1, r4, #4
   1921c:	e0414084 	sub	r4, r1, r4, lsl #1
   19220:	e0844006 	add	r4, r4, r6
   19224:	e7d33004 	ldrb	r3, [r3, r4]
   19228:	e3a02080 	mov	r2, #128	; 0x80
   1922c:	e0133552 	ands	r3, r3, r2, asr r5
   19230:	13a00001 	movne	r0, #1
   19234:	03a00000 	moveq	r0, #0
   19238:	e8bd80f8 	pop	{r3, r4, r5, r6, r7, pc}
   1923c:	e3a00000 	mov	r0, #0
   19240:	e8bd80f8 	pop	{r3, r4, r5, r6, r7, pc}
   19244:	e3a00000 	mov	r0, #0
   19248:	e8bd80f8 	pop	{r3, r4, r5, r6, r7, pc}
   1924c:	00000000 	andeq	r0, r0, r0

00019250 <DelayLoop>:
   19250:	e2500001 	subs	r0, r0, #1
   19254:	8afffffd 	bhi	19250 <DelayLoop>
   19258:	e1a0f00e 	mov	pc, lr
   1925c:	e320f000 	nop	{0}

00019260 <UndefinedInstructionStub>:
   19260:	e3a0d823 	mov	sp, #2293760	; 0x230000
   19264:	e24ee004 	sub	lr, lr, #4
   19268:	e92d4000 	stmfd	sp!, {lr}
   1926c:	e14fe000 	mrs	lr, SPSR
   19270:	e92d4000 	stmfd	sp!, {lr}
   19274:	e94d7fff 	stmdb	sp, {r0, r1, r2, r3, r4, r5, r6, r7, r8, r9, sl, fp, ip, sp, lr}^
   19278:	e24dd03c 	sub	sp, sp, #60	; 0x3c
   1927c:	e1a0100d 	mov	r1, sp
   19280:	f1020012 	cps	#18
   19284:	e1a0200d 	mov	r2, sp
   19288:	e1a0300e 	mov	r3, lr
   1928c:	f102001f 	cps	#31
   19290:	e1a0d001 	mov	sp, r1
   19294:	e92d000c 	push	{r2, r3}
   19298:	e1a0100d 	mov	r1, sp
   1929c:	e3a00001 	mov	r0, #1
   192a0:	eafffe34 	b	18b78 <ExceptionHandler>

000192a4 <PrefetchAbortStub>:
   192a4:	e3a0d823 	mov	sp, #2293760	; 0x230000
   192a8:	e24ee004 	sub	lr, lr, #4
   192ac:	e92d4000 	stmfd	sp!, {lr}
   192b0:	e14fe000 	mrs	lr, SPSR
   192b4:	e92d4000 	stmfd	sp!, {lr}
   192b8:	e94d7fff 	stmdb	sp, {r0, r1, r2, r3, r4, r5, r6, r7, r8, r9, sl, fp, ip, sp, lr}^
   192bc:	e24dd03c 	sub	sp, sp, #60	; 0x3c
   192c0:	e1a0100d 	mov	r1, sp
   192c4:	f1020012 	cps	#18
   192c8:	e1a0200d 	mov	r2, sp
   192cc:	e1a0300e 	mov	r3, lr
   192d0:	f102001f 	cps	#31
   192d4:	e1a0d001 	mov	sp, r1
   192d8:	e92d000c 	push	{r2, r3}
   192dc:	e1a0100d 	mov	r1, sp
   192e0:	e3a00002 	mov	r0, #2
   192e4:	eafffe23 	b	18b78 <ExceptionHandler>

000192e8 <DataAbortStub>:
   192e8:	e3a0d823 	mov	sp, #2293760	; 0x230000
   192ec:	e24ee008 	sub	lr, lr, #8
   192f0:	e92d4000 	stmfd	sp!, {lr}
   192f4:	e14fe000 	mrs	lr, SPSR
   192f8:	e92d4000 	stmfd	sp!, {lr}
   192fc:	e94d7fff 	stmdb	sp, {r0, r1, r2, r3, r4, r5, r6, r7, r8, r9, sl, fp, ip, sp, lr}^
   19300:	e24dd03c 	sub	sp, sp, #60	; 0x3c
   19304:	e1a0100d 	mov	r1, sp
   19308:	f1020012 	cps	#18
   1930c:	e1a0200d 	mov	r2, sp
   19310:	e1a0300e 	mov	r3, lr
   19314:	f102001f 	cps	#31
   19318:	e1a0d001 	mov	sp, r1
   1931c:	e92d000c 	push	{r2, r3}
   19320:	e1a0100d 	mov	r1, sp
   19324:	e3a00003 	mov	r0, #3
   19328:	eafffe12 	b	18b78 <ExceptionHandler>

0001932c <IRQStub>:
   1932c:	e3a0d98e 	mov	sp, #2326528	; 0x238000
   19330:	e24ee004 	sub	lr, lr, #4
   19334:	e92d5fff 	push	{r0, r1, r2, r3, r4, r5, r6, r7, r8, r9, sl, fp, ip, lr}
   19338:	eb000107 	bl	1975c <InterruptHandler>
   1933c:	e8fd9fff 	ldm	sp!, {r0, r1, r2, r3, r4, r5, r6, r7, r8, r9, sl, fp, ip, pc}^

00019340 <InterruptSystem>:
   19340:	e92d4010 	push	{r4, lr}
   19344:	e2504000 	subs	r4, r0, #0
   19348:	1a00000e 	bne	19388 <InterruptSystem+0x48>
   1934c:	e3090ce4 	movw	r0, #40164	; 0x9ce4
   19350:	e3400001 	movt	r0, #1
   19354:	e30c152c 	movw	r1, #50476	; 0xc52c
   19358:	e3401001 	movt	r1, #1
   1935c:	e3a02032 	mov	r2, #50	; 0x32
   19360:	ebfff30f 	bl	15fa4 <assertion_failed>
   19364:	ea000007 	b	19388 <InterruptSystem+0x48>
   19368:	e5a32004 	str	r2, [r3, #4]!
   1936c:	e5a12004 	str	r2, [r1, #4]!
   19370:	e153000c 	cmp	r3, ip
   19374:	1afffffb 	bne	19368 <InterruptSystem+0x28>
   19378:	e30c3a6c 	movw	r3, #51820	; 0xca6c
   1937c:	e3403001 	movt	r3, #1
   19380:	e5834000 	str	r4, [r3]
   19384:	e8bd8010 	pop	{r4, pc}
   19388:	e2443004 	sub	r3, r4, #4
   1938c:	e284cf47 	add	ip, r4, #284	; 0x11c
   19390:	e1a0100c 	mov	r1, ip
   19394:	e3a02000 	mov	r2, #0
   19398:	eafffff2 	b	19368 <InterruptSystem+0x28>

0001939c <_InterruptSystem>:
   1939c:	e30c3a6c 	movw	r3, #51820	; 0xca6c
   193a0:	e3403001 	movt	r3, #1
   193a4:	e3a02000 	mov	r2, #0
   193a8:	e5832000 	str	r2, [r3]
   193ac:	e12fff1e 	bx	lr

000193b0 <InterruptSystemInitialize>:
   193b0:	e92d4010 	push	{r4, lr}
   193b4:	e3500000 	cmp	r0, #0
   193b8:	1a000005 	bne	193d4 <InterruptSystemInitialize+0x24>
   193bc:	e3090ce4 	movw	r0, #40164	; 0x9ce4
   193c0:	e3400001 	movt	r0, #1
   193c4:	e30c152c 	movw	r1, #50476	; 0xc52c
   193c8:	e3401001 	movt	r1, #1
   193cc:	e3a02044 	mov	r2, #68	; 0x44
   193d0:	ebfff2f3 	bl	15fa4 <assertion_failed>
   193d4:	e3a04000 	mov	r4, #0
   193d8:	e59f30cc 	ldr	r3, [pc, #204]	; 194ac <InterruptSystemInitialize+0xfc>
   193dc:	e1a03143 	asr	r3, r3, #2
   193e0:	e2433002 	sub	r3, r3, #2
   193e4:	e38334ea 	orr	r3, r3, #-369098752	; 0xea000000
   193e8:	e5843018 	str	r3, [r4, #24]
   193ec:	ebfff7fe 	bl	173ec <CleanDataCache>
   193f0:	f57ff04f 	dsb	sy
   193f4:	ee074f15 	mcr	15, 0, r4, cr7, cr5, {0}
   193f8:	ee074fd5 	mcr	15, 0, r4, cr7, cr5, {6}
   193fc:	f57ff04f 	dsb	sy
   19400:	f57ff06f 	isb	sy
   19404:	f57ff05f 	dmb	sy
   19408:	e30b020c 	movw	r0, #45580	; 0xb20c
   1940c:	e3430f00 	movt	r0, #16128	; 0x3f00
   19410:	e1a01004 	mov	r1, r4
   19414:	eb000102 	bl	19824 <write32>
   19418:	e30b021c 	movw	r0, #45596	; 0xb21c
   1941c:	e3430f00 	movt	r0, #16128	; 0x3f00
   19420:	e3e01000 	mvn	r1, #0
   19424:	eb0000fe 	bl	19824 <write32>
   19428:	e30b0220 	movw	r0, #45600	; 0xb220
   1942c:	e3430f00 	movt	r0, #16128	; 0x3f00
   19430:	e3e01000 	mvn	r1, #0
   19434:	eb0000fa 	bl	19824 <write32>
   19438:	e30b0224 	movw	r0, #45604	; 0xb224
   1943c:	e3430f00 	movt	r0, #16128	; 0x3f00
   19440:	e3e01000 	mvn	r1, #0
   19444:	eb0000f6 	bl	19824 <write32>
   19448:	e3a04cb2 	mov	r4, #45568	; 0xb200
   1944c:	e3434f00 	movt	r4, #16128	; 0x3f00
   19450:	e1a00004 	mov	r0, r4
   19454:	eb0000f0 	bl	1981c <read32>
   19458:	e1a01000 	mov	r1, r0
   1945c:	e1a00004 	mov	r0, r4
   19460:	eb0000ef 	bl	19824 <write32>
   19464:	e30b4204 	movw	r4, #45572	; 0xb204
   19468:	e3434f00 	movt	r4, #16128	; 0x3f00
   1946c:	e1a00004 	mov	r0, r4
   19470:	eb0000e9 	bl	1981c <read32>
   19474:	e1a01000 	mov	r1, r0
   19478:	e1a00004 	mov	r0, r4
   1947c:	eb0000e8 	bl	19824 <write32>
   19480:	e30b4208 	movw	r4, #45576	; 0xb208
   19484:	e3434f00 	movt	r4, #16128	; 0x3f00
   19488:	e1a00004 	mov	r0, r4
   1948c:	eb0000e2 	bl	1981c <read32>
   19490:	e1a01000 	mov	r1, r0
   19494:	e1a00004 	mov	r0, r4
   19498:	eb0000e1 	bl	19824 <write32>
   1949c:	f57ff05f 	dmb	sy
   194a0:	f1080080 	cpsie	i
   194a4:	e3a00001 	mov	r0, #1
   194a8:	e8bd8010 	pop	{r4, pc}
   194ac:	00019314 	andeq	r9, r1, r4, lsl r3

000194b0 <InterruptSystemEnableIRQ>:
   194b0:	e92d4010 	push	{r4, lr}
   194b4:	e1a04000 	mov	r4, r0
   194b8:	f57ff05f 	dmb	sy
   194bc:	e3500047 	cmp	r0, #71	; 0x47
   194c0:	9a000005 	bls	194dc <InterruptSystemEnableIRQ+0x2c>
   194c4:	e30c0538 	movw	r0, #50488	; 0xc538
   194c8:	e3400001 	movt	r0, #1
   194cc:	e30c152c 	movw	r1, #50476	; 0xc52c
   194d0:	e3401001 	movt	r1, #1
   194d4:	e3a02084 	mov	r2, #132	; 0x84
   194d8:	ebfff2b1 	bl	15fa4 <assertion_failed>
   194dc:	e354001f 	cmp	r4, #31
   194e0:	930b0210 	movwls	r0, #45584	; 0xb210
   194e4:	93430f00 	movtls	r0, #16128	; 0x3f00
   194e8:	9a000006 	bls	19508 <InterruptSystemEnableIRQ+0x58>
   194ec:	e30b3214 	movw	r3, #45588	; 0xb214
   194f0:	e3433f00 	movt	r3, #16128	; 0x3f00
   194f4:	e30b0218 	movw	r0, #45592	; 0xb218
   194f8:	e3430f00 	movt	r0, #16128	; 0x3f00
   194fc:	e354003f 	cmp	r4, #63	; 0x3f
   19500:	91a00003 	movls	r0, r3
   19504:	eaffffff 	b	19508 <InterruptSystemEnableIRQ+0x58>
   19508:	e204401f 	and	r4, r4, #31
   1950c:	e3a01001 	mov	r1, #1
   19510:	e1a01411 	lsl	r1, r1, r4
   19514:	eb0000c2 	bl	19824 <write32>
   19518:	f57ff05f 	dmb	sy
   1951c:	e8bd8010 	pop	{r4, pc}

00019520 <InterruptSystemConnectIRQ>:
   19520:	e92d41f0 	push	{r4, r5, r6, r7, r8, lr}
   19524:	e1a04001 	mov	r4, r1
   19528:	e1a08002 	mov	r8, r2
   1952c:	e1a07003 	mov	r7, r3
   19530:	e2505000 	subs	r5, r0, #0
   19534:	1a000005 	bne	19550 <InterruptSystemConnectIRQ+0x30>
   19538:	e3090ce4 	movw	r0, #40164	; 0x9ce4
   1953c:	e3400001 	movt	r0, #1
   19540:	e30c152c 	movw	r1, #50476	; 0xc52c
   19544:	e3401001 	movt	r1, #1
   19548:	e3a02068 	mov	r2, #104	; 0x68
   1954c:	ebfff294 	bl	15fa4 <assertion_failed>
   19550:	e3540047 	cmp	r4, #71	; 0x47
   19554:	9a000005 	bls	19570 <InterruptSystemConnectIRQ+0x50>
   19558:	e30c0538 	movw	r0, #50488	; 0xc538
   1955c:	e3400001 	movt	r0, #1
   19560:	e30c152c 	movw	r1, #50476	; 0xc52c
   19564:	e3401001 	movt	r1, #1
   19568:	e3a0206a 	mov	r2, #106	; 0x6a
   1956c:	ebfff28c 	bl	15fa4 <assertion_failed>
   19570:	e0856104 	add	r6, r5, r4, lsl #2
   19574:	e7953104 	ldr	r3, [r5, r4, lsl #2]
   19578:	e3530000 	cmp	r3, #0
   1957c:	0a000005 	beq	19598 <InterruptSystemConnectIRQ+0x78>
   19580:	e30c054c 	movw	r0, #50508	; 0xc54c
   19584:	e3400001 	movt	r0, #1
   19588:	e30c152c 	movw	r1, #50476	; 0xc52c
   1958c:	e3401001 	movt	r1, #1
   19590:	e3a0206b 	mov	r2, #107	; 0x6b
   19594:	ebfff282 	bl	15fa4 <assertion_failed>
   19598:	e7858104 	str	r8, [r5, r4, lsl #2]
   1959c:	e5867120 	str	r7, [r6, #288]	; 0x120
   195a0:	e1a00004 	mov	r0, r4
   195a4:	ebffffc1 	bl	194b0 <InterruptSystemEnableIRQ>
   195a8:	e8bd81f0 	pop	{r4, r5, r6, r7, r8, pc}

000195ac <InterruptSystemDisableIRQ>:
   195ac:	e92d4010 	push	{r4, lr}
   195b0:	e1a04000 	mov	r4, r0
   195b4:	f57ff05f 	dmb	sy
   195b8:	e3500047 	cmp	r0, #71	; 0x47
   195bc:	9a000005 	bls	195d8 <InterruptSystemDisableIRQ+0x2c>
   195c0:	e30c0538 	movw	r0, #50488	; 0xc538
   195c4:	e3400001 	movt	r0, #1
   195c8:	e30c152c 	movw	r1, #50476	; 0xc52c
   195cc:	e3401001 	movt	r1, #1
   195d0:	e3a0208f 	mov	r2, #143	; 0x8f
   195d4:	ebfff272 	bl	15fa4 <assertion_failed>
   195d8:	e354001f 	cmp	r4, #31
   195dc:	930b021c 	movwls	r0, #45596	; 0xb21c
   195e0:	93430f00 	movtls	r0, #16128	; 0x3f00
   195e4:	9a000006 	bls	19604 <InterruptSystemDisableIRQ+0x58>
   195e8:	e30b3220 	movw	r3, #45600	; 0xb220
   195ec:	e3433f00 	movt	r3, #16128	; 0x3f00
   195f0:	e30b0224 	movw	r0, #45604	; 0xb224
   195f4:	e3430f00 	movt	r0, #16128	; 0x3f00
   195f8:	e354003f 	cmp	r4, #63	; 0x3f
   195fc:	91a00003 	movls	r0, r3
   19600:	eaffffff 	b	19604 <InterruptSystemDisableIRQ+0x58>
   19604:	e204401f 	and	r4, r4, #31
   19608:	e3a01001 	mov	r1, #1
   1960c:	e1a01411 	lsl	r1, r1, r4
   19610:	eb000083 	bl	19824 <write32>
   19614:	f57ff05f 	dmb	sy
   19618:	e8bd8010 	pop	{r4, pc}

0001961c <InterruptSystemDisconnectIRQ>:
   1961c:	e92d4070 	push	{r4, r5, r6, lr}
   19620:	e1a04001 	mov	r4, r1
   19624:	e2505000 	subs	r5, r0, #0
   19628:	1a000005 	bne	19644 <InterruptSystemDisconnectIRQ+0x28>
   1962c:	e3090ce4 	movw	r0, #40164	; 0x9ce4
   19630:	e3400001 	movt	r0, #1
   19634:	e30c152c 	movw	r1, #50476	; 0xc52c
   19638:	e3401001 	movt	r1, #1
   1963c:	e3a02075 	mov	r2, #117	; 0x75
   19640:	ebfff257 	bl	15fa4 <assertion_failed>
   19644:	e3540047 	cmp	r4, #71	; 0x47
   19648:	9a000005 	bls	19664 <InterruptSystemDisconnectIRQ+0x48>
   1964c:	e30c0538 	movw	r0, #50488	; 0xc538
   19650:	e3400001 	movt	r0, #1
   19654:	e30c152c 	movw	r1, #50476	; 0xc52c
   19658:	e3401001 	movt	r1, #1
   1965c:	e3a02077 	mov	r2, #119	; 0x77
   19660:	ebfff24f 	bl	15fa4 <assertion_failed>
   19664:	e0856104 	add	r6, r5, r4, lsl #2
   19668:	e7953104 	ldr	r3, [r5, r4, lsl #2]
   1966c:	e3530000 	cmp	r3, #0
   19670:	1a000005 	bne	1968c <InterruptSystemDisconnectIRQ+0x70>
   19674:	e30c0570 	movw	r0, #50544	; 0xc570
   19678:	e3400001 	movt	r0, #1
   1967c:	e30c152c 	movw	r1, #50476	; 0xc52c
   19680:	e3401001 	movt	r1, #1
   19684:	e3a02078 	mov	r2, #120	; 0x78
   19688:	ebfff245 	bl	15fa4 <assertion_failed>
   1968c:	e1a00004 	mov	r0, r4
   19690:	ebffffc5 	bl	195ac <InterruptSystemDisableIRQ>
   19694:	e3a03000 	mov	r3, #0
   19698:	e7853104 	str	r3, [r5, r4, lsl #2]
   1969c:	e5863120 	str	r3, [r6, #288]	; 0x120
   196a0:	e8bd8070 	pop	{r4, r5, r6, pc}

000196a4 <InterruptSystemGet>:
   196a4:	e92d4008 	push	{r3, lr}
   196a8:	e30c3a6c 	movw	r3, #51820	; 0xca6c
   196ac:	e3403001 	movt	r3, #1
   196b0:	e5933000 	ldr	r3, [r3]
   196b4:	e3530000 	cmp	r3, #0
   196b8:	1a000005 	bne	196d4 <InterruptSystemGet+0x30>
   196bc:	e30a0a34 	movw	r0, #43572	; 0xaa34
   196c0:	e3400001 	movt	r0, #1
   196c4:	e30c152c 	movw	r1, #50476	; 0xc52c
   196c8:	e3401001 	movt	r1, #1
   196cc:	e3a02098 	mov	r2, #152	; 0x98
   196d0:	ebfff233 	bl	15fa4 <assertion_failed>
   196d4:	e30c3a6c 	movw	r3, #51820	; 0xca6c
   196d8:	e3403001 	movt	r3, #1
   196dc:	e5930000 	ldr	r0, [r3]
   196e0:	e8bd8008 	pop	{r3, pc}

000196e4 <InterruptSystemCallIRQHandler>:
   196e4:	e92d4038 	push	{r3, r4, r5, lr}
   196e8:	e1a04001 	mov	r4, r1
   196ec:	e2505000 	subs	r5, r0, #0
   196f0:	1a000005 	bne	1970c <InterruptSystemCallIRQHandler+0x28>
   196f4:	e3090ce4 	movw	r0, #40164	; 0x9ce4
   196f8:	e3400001 	movt	r0, #1
   196fc:	e30c152c 	movw	r1, #50476	; 0xc52c
   19700:	e3401001 	movt	r1, #1
   19704:	e3a0209e 	mov	r2, #158	; 0x9e
   19708:	ebfff225 	bl	15fa4 <assertion_failed>
   1970c:	e3540047 	cmp	r4, #71	; 0x47
   19710:	9a000005 	bls	1972c <InterruptSystemCallIRQHandler+0x48>
   19714:	e30c0538 	movw	r0, #50488	; 0xc538
   19718:	e3400001 	movt	r0, #1
   1971c:	e30c152c 	movw	r1, #50476	; 0xc52c
   19720:	e3401001 	movt	r1, #1
   19724:	e3a020a0 	mov	r2, #160	; 0xa0
   19728:	ebfff21d 	bl	15fa4 <assertion_failed>
   1972c:	e0852104 	add	r2, r5, r4, lsl #2
   19730:	e7953104 	ldr	r3, [r5, r4, lsl #2]
   19734:	e3530000 	cmp	r3, #0
   19738:	0a000003 	beq	1974c <InterruptSystemCallIRQHandler+0x68>
   1973c:	e5920120 	ldr	r0, [r2, #288]	; 0x120
   19740:	e12fff33 	blx	r3
   19744:	e3a00001 	mov	r0, #1
   19748:	e8bd8038 	pop	{r3, r4, r5, pc}
   1974c:	e1a00004 	mov	r0, r4
   19750:	ebffff95 	bl	195ac <InterruptSystemDisableIRQ>
   19754:	e3a00000 	mov	r0, #0
   19758:	e8bd8038 	pop	{r3, r4, r5, pc}

0001975c <InterruptHandler>:
   1975c:	e92d40f8 	push	{r3, r4, r5, r6, r7, lr}
   19760:	e30c3a6c 	movw	r3, #51820	; 0xca6c
   19764:	e3403001 	movt	r3, #1
   19768:	e5933000 	ldr	r3, [r3]
   1976c:	e3530000 	cmp	r3, #0
   19770:	1a000005 	bne	1978c <InterruptHandler+0x30>
   19774:	e30a0a34 	movw	r0, #43572	; 0xaa34
   19778:	e3400001 	movt	r0, #1
   1977c:	e30c152c 	movw	r1, #50476	; 0xc52c
   19780:	e3401001 	movt	r1, #1
   19784:	e3a020b3 	mov	r2, #179	; 0xb3
   19788:	ebfff205 	bl	15fa4 <assertion_failed>
   1978c:	f57ff05f 	dmb	sy
   19790:	e3a04000 	mov	r4, #0
   19794:	e30b0204 	movw	r0, #45572	; 0xb204
   19798:	e3430f00 	movt	r0, #16128	; 0x3f00
   1979c:	e3a05001 	mov	r5, #1
   197a0:	e30c7a6c 	movw	r7, #51820	; 0xca6c
   197a4:	e3407001 	movt	r7, #1
   197a8:	e30b6204 	movw	r6, #45572	; 0xb204
   197ac:	e3436f00 	movt	r6, #16128	; 0x3f00
   197b0:	ea000009 	b	197dc <InterruptHandler+0x80>
   197b4:	e354001f 	cmp	r4, #31
   197b8:	91a00006 	movls	r0, r6
   197bc:	9a000006 	bls	197dc <InterruptHandler+0x80>
   197c0:	e30b3208 	movw	r3, #45576	; 0xb208
   197c4:	e3433f00 	movt	r3, #16128	; 0x3f00
   197c8:	e3a00cb2 	mov	r0, #45568	; 0xb200
   197cc:	e3430f00 	movt	r0, #16128	; 0x3f00
   197d0:	e354003f 	cmp	r4, #63	; 0x3f
   197d4:	91a00003 	movls	r0, r3
   197d8:	eaffffff 	b	197dc <InterruptHandler+0x80>
   197dc:	eb00000e 	bl	1981c <read32>
   197e0:	e204301f 	and	r3, r4, #31
   197e4:	e0103315 	ands	r3, r0, r5, lsl r3
   197e8:	0a000006 	beq	19808 <InterruptHandler+0xac>
   197ec:	e5970000 	ldr	r0, [r7]
   197f0:	e1a01004 	mov	r1, r4
   197f4:	ebffffba 	bl	196e4 <InterruptSystemCallIRQHandler>
   197f8:	e3500000 	cmp	r0, #0
   197fc:	0a000001 	beq	19808 <InterruptHandler+0xac>
   19800:	f57ff05f 	dmb	sy
   19804:	e8bd80f8 	pop	{r3, r4, r5, r6, r7, pc}
   19808:	e2844001 	add	r4, r4, #1
   1980c:	e3540048 	cmp	r4, #72	; 0x48
   19810:	1affffe7 	bne	197b4 <InterruptHandler+0x58>
   19814:	f57ff05f 	dmb	sy
   19818:	e8bd80f8 	pop	{r3, r4, r5, r6, r7, pc}

0001981c <read32>:
   1981c:	e5900000 	ldr	r0, [r0]
   19820:	e12fff1e 	bx	lr

00019824 <write32>:
   19824:	e5801000 	str	r1, [r0]
   19828:	e12fff1e 	bx	lr

0001982c <BcmMailBox>:
   1982c:	e92d4038 	push	{r3, r4, r5, lr}
   19830:	e1a05001 	mov	r5, r1
   19834:	e2504000 	subs	r4, r0, #0
   19838:	1a000005 	bne	19854 <BcmMailBox+0x28>
   1983c:	e3090ce4 	movw	r0, #40164	; 0x9ce4
   19840:	e3400001 	movt	r0, #1
   19844:	e30c1594 	movw	r1, #50580	; 0xc594
   19848:	e3401001 	movt	r1, #1
   1984c:	e3a02020 	mov	r2, #32
   19850:	ebfff1d3 	bl	15fa4 <assertion_failed>
   19854:	e5845000 	str	r5, [r4]
   19858:	e8bd8038 	pop	{r3, r4, r5, pc}

0001985c <_BcmMailBox>:
   1985c:	e3500000 	cmp	r0, #0
   19860:	112fff1e 	bxne	lr
   19864:	e92d4008 	push	{r3, lr}
   19868:	e3090ce4 	movw	r0, #40164	; 0x9ce4
   1986c:	e3400001 	movt	r0, #1
   19870:	e30c1594 	movw	r1, #50580	; 0xc594
   19874:	e3401001 	movt	r1, #1
   19878:	e3a02027 	mov	r2, #39	; 0x27
   1987c:	ebfff1c8 	bl	15fa4 <assertion_failed>
   19880:	e8bd8008 	pop	{r3, pc}

00019884 <BcmMailBoxFlush>:
   19884:	e92d4038 	push	{r3, r4, r5, lr}
   19888:	e3500000 	cmp	r0, #0
   1988c:	1a000005 	bne	198a8 <BcmMailBoxFlush+0x24>
   19890:	e3090ce4 	movw	r0, #40164	; 0x9ce4
   19894:	e3400001 	movt	r0, #1
   19898:	e30c1594 	movw	r1, #50580	; 0xc594
   1989c:	e3401001 	movt	r1, #1
   198a0:	e3a0203e 	mov	r2, #62	; 0x3e
   198a4:	ebfff1be 	bl	15fa4 <assertion_failed>
   198a8:	e30b4898 	movw	r4, #47256	; 0xb898
   198ac:	e3434f00 	movt	r4, #16128	; 0x3f00
   198b0:	e30b5880 	movw	r5, #47232	; 0xb880
   198b4:	e3435f00 	movt	r5, #16128	; 0x3f00
   198b8:	ea000003 	b	198cc <BcmMailBoxFlush+0x48>
   198bc:	e1a00005 	mov	r0, r5
   198c0:	ebffffd5 	bl	1981c <read32>
   198c4:	e3a00014 	mov	r0, #20
   198c8:	ebfff870 	bl	17a90 <TimerSimpleMsDelay>
   198cc:	e1a00004 	mov	r0, r4
   198d0:	ebffffd1 	bl	1981c <read32>
   198d4:	e3100101 	tst	r0, #1073741824	; 0x40000000
   198d8:	0afffff7 	beq	198bc <BcmMailBoxFlush+0x38>
   198dc:	e8bd8038 	pop	{r3, r4, r5, pc}

000198e0 <BcmMailBoxRead>:
   198e0:	e92d4070 	push	{r4, r5, r6, lr}
   198e4:	e2506000 	subs	r6, r0, #0
   198e8:	1a000005 	bne	19904 <BcmMailBoxRead+0x24>
   198ec:	e3090ce4 	movw	r0, #40164	; 0x9ce4
   198f0:	e3400001 	movt	r0, #1
   198f4:	e30c1594 	movw	r1, #50580	; 0xc594
   198f8:	e3401001 	movt	r1, #1
   198fc:	e3a0204a 	mov	r2, #74	; 0x4a
   19900:	ebfff1a7 	bl	15fa4 <assertion_failed>
   19904:	e30b4898 	movw	r4, #47256	; 0xb898
   19908:	e3434f00 	movt	r4, #16128	; 0x3f00
   1990c:	e30b5880 	movw	r5, #47232	; 0xb880
   19910:	e3435f00 	movt	r5, #16128	; 0x3f00
   19914:	e1a00004 	mov	r0, r4
   19918:	ebffffbf 	bl	1981c <read32>
   1991c:	e3100101 	tst	r0, #1073741824	; 0x40000000
   19920:	1afffffb 	bne	19914 <BcmMailBoxRead+0x34>
   19924:	e1a00005 	mov	r0, r5
   19928:	ebffffbb 	bl	1981c <read32>
   1992c:	e200200f 	and	r2, r0, #15
   19930:	e5963000 	ldr	r3, [r6]
   19934:	e1520003 	cmp	r2, r3
   19938:	1afffff5 	bne	19914 <BcmMailBoxRead+0x34>
   1993c:	e3c0000f 	bic	r0, r0, #15
   19940:	e8bd8070 	pop	{r4, r5, r6, pc}

00019944 <BcmMailBoxWrite>:
   19944:	e92d4070 	push	{r4, r5, r6, lr}
   19948:	e1a05001 	mov	r5, r1
   1994c:	e2506000 	subs	r6, r0, #0
   19950:	1a000005 	bne	1996c <BcmMailBoxWrite+0x28>
   19954:	e3090ce4 	movw	r0, #40164	; 0x9ce4
   19958:	e3400001 	movt	r0, #1
   1995c:	e30c1594 	movw	r1, #50580	; 0xc594
   19960:	e3401001 	movt	r1, #1
   19964:	e3a0205e 	mov	r2, #94	; 0x5e
   19968:	ebfff18d 	bl	15fa4 <assertion_failed>
   1996c:	e30b4898 	movw	r4, #47256	; 0xb898
   19970:	e3434f00 	movt	r4, #16128	; 0x3f00
   19974:	e1a00004 	mov	r0, r4
   19978:	ebffffa7 	bl	1981c <read32>
   1997c:	e3500000 	cmp	r0, #0
   19980:	bafffffb 	blt	19974 <BcmMailBoxWrite+0x30>
   19984:	e315000f 	tst	r5, #15
   19988:	0a000005 	beq	199a4 <BcmMailBoxWrite+0x60>
   1998c:	e30c05a4 	movw	r0, #50596	; 0xc5a4
   19990:	e3400001 	movt	r0, #1
   19994:	e30c1594 	movw	r1, #50580	; 0xc594
   19998:	e3401001 	movt	r1, #1
   1999c:	e3a02065 	mov	r2, #101	; 0x65
   199a0:	ebfff17f 	bl	15fa4 <assertion_failed>
   199a4:	e5961000 	ldr	r1, [r6]
   199a8:	e30b08a0 	movw	r0, #47264	; 0xb8a0
   199ac:	e3430f00 	movt	r0, #16128	; 0x3f00
   199b0:	e1851001 	orr	r1, r5, r1
   199b4:	ebffff9a 	bl	19824 <write32>
   199b8:	e8bd8070 	pop	{r4, r5, r6, pc}

000199bc <BcmMailBoxWriteRead>:
   199bc:	e92d4038 	push	{r3, r4, r5, lr}
   199c0:	e1a05001 	mov	r5, r1
   199c4:	e2504000 	subs	r4, r0, #0
   199c8:	1a000005 	bne	199e4 <BcmMailBoxWriteRead+0x28>
   199cc:	e3090ce4 	movw	r0, #40164	; 0x9ce4
   199d0:	e3400001 	movt	r0, #1
   199d4:	e30c1594 	movw	r1, #50580	; 0xc594
   199d8:	e3401001 	movt	r1, #1
   199dc:	e3a0202d 	mov	r2, #45	; 0x2d
   199e0:	ebfff16f 	bl	15fa4 <assertion_failed>
   199e4:	f57ff05f 	dmb	sy
   199e8:	e1a00004 	mov	r0, r4
   199ec:	ebffffa4 	bl	19884 <BcmMailBoxFlush>
   199f0:	e1a00004 	mov	r0, r4
   199f4:	e1a01005 	mov	r1, r5
   199f8:	ebffffd1 	bl	19944 <BcmMailBoxWrite>
   199fc:	e1a00004 	mov	r0, r4
   19a00:	ebffffb6 	bl	198e0 <BcmMailBoxRead>
   19a04:	f57ff05f 	dmb	sy
   19a08:	e8bd8038 	pop	{r3, r4, r5, pc}

Disassembly of section .rodata:

00019a0c <FromSample>:
   19a0c:	6e72656b 	cdpvs	5, 7, cr6, cr2, cr11, {3}
   19a10:	00006c65 	andeq	r6, r0, r5, ror #24
   19a14:	ffffffff 			; <UNDEFINED> instruction: 0xffffffff
   19a18:	0000ffff 	strdeq	pc, [r0], -pc	; <UNPREDICTABLE>

00019a1c <OwnIPAddress>:
   19a1c:	fb00a8c0 	blx	43d26 <_end+0x26c6a>
   19a20:	6e6e6143 	powvsem	f6, f6, f3
   19a24:	6920746f 	stmdbvs	r0!, {r0, r1, r2, r3, r5, r6, sl, ip, sp, lr}
   19a28:	6974696e 	ldmdbvs	r4!, {r1, r2, r3, r5, r6, r8, fp, sp, lr}^
   19a2c:	7a696c61 	bvc	1a74bb8 <_end+0x1a57afc>
   19a30:	53552065 	cmppl	r5, #101	; 0x65
   19a34:	00006950 	andeq	r6, r0, r0, asr r9
   19a38:	65687445 	strbvs	r7, [r8, #-1093]!	; 0xfffffbbb
   19a3c:	74656e72 	strbtvc	r6, [r5], #-3698	; 0xfffff18e
   19a40:	76656420 	strbtvc	r6, [r5], -r0, lsr #8
   19a44:	20656369 	rsbcs	r6, r5, r9, ror #6
   19a48:	20746f6e 	rsbscs	r6, r4, lr, ror #30
   19a4c:	6e756f66 	cdpvs	15, 7, cr6, cr5, cr6, {3}
   19a50:	00000064 	andeq	r0, r0, r4, rrx
   19a54:	50524120 	subspl	r4, r2, r0, lsr #2
   19a58:	71657220 	cmnvc	r5, r0, lsr #4
   19a5c:	74736575 	ldrbtvc	r6, [r3], #-1397	; 0xfffffa8b
   19a60:	6d726620 	ldclvs	6, cr6, [r2, #-128]!	; 0xffffff80
   19a64:	2e752520 	cdpcs	5, 7, cr2, cr5, cr0, {1}
   19a68:	252e7525 	strcs	r7, [lr, #-1317]!	; 0xfffffadb
   19a6c:	75252e75 	strvc	r2, [r5, #-3701]!	; 0xfffff18b
   19a70:	00000000 	andeq	r0, r0, r0
   19a74:	50524120 	subspl	r4, r2, r0, lsr #2
   19a78:	71657220 	cmnvc	r5, r0, lsr #4
   19a7c:	74736575 	ldrbtvc	r6, [r3], #-1397	; 0xfffffa8b
   19a80:	206f7420 	rsbcs	r7, pc, r0, lsr #8
   19a84:	252e7525 	strcs	r7, [lr, #-1317]!	; 0xfffffadb
   19a88:	75252e75 	strvc	r2, [r5, #-3701]!	; 0xfffff18b
   19a8c:	0075252e 	rsbseq	r2, r5, lr, lsr #10
   19a90:	646e6553 	strbtvs	r6, [lr], #-1363	; 0xfffffaad
   19a94:	73736120 	cmnvc	r3, #32, 2
   19a98:	656d7365 	strbvs	r7, [sp, #-869]!	; 0xfffffc9b
   19a9c:	6520746e 	strvs	r7, [r0, #-1134]!	; 0xfffffb92
   19aa0:	726f7272 	rsbvc	r7, pc, #536870919	; 0x20000007
   19aa4:	00000000 	andeq	r0, r0, r0
   19aa8:	6d617246 	sfmvs	f7, 2, [r1, #-280]!	; 0xfffffee8
   19aac:	65722065 	ldrbvs	r2, [r2, #-101]!	; 0xffffff9b
   19ab0:	76696563 	strbtvc	r6, [r9], -r3, ror #10
   19ab4:	28206465 	stmdacs	r0!, {r0, r2, r5, r6, sl, sp, lr}
   19ab8:	676e656c 	strbvs	r6, [lr, -ip, ror #10]!
   19abc:	25206874 	strcs	r6, [r0, #-2164]!	; 0xfffff78c
   19ac0:	00002975 	andeq	r2, r0, r5, ror r9
   19ac4:	696c6156 	stmdbvs	ip!, {r1, r2, r4, r6, r8, sp, lr}^
   19ac8:	50502064 	subspl	r2, r0, r4, rrx
   19acc:	72205056 	eorvc	r5, r0, #86	; 0x56
   19ad0:	65757165 	ldrbvs	r7, [r5, #-357]!	; 0xfffffe9b
   19ad4:	66207473 			; <UNDEFINED> instruction: 0x66207473
   19ad8:	206d6f72 	rsbcs	r6, sp, r2, ror pc
   19adc:	252e7525 	strcs	r7, [lr, #-1317]!	; 0xfffffadb
   19ae0:	75252e75 	strvc	r2, [r5, #-3701]!	; 0xfffff18b
   19ae4:	2075252e 	rsbscs	r2, r5, lr, lsr #10
   19ae8:	65636572 	strbvs	r6, [r3, #-1394]!	; 0xfffffa8e
   19aec:	64657669 	strbtvs	r7, [r5], #-1641	; 0xfffff997
   19af0:	00000000 	andeq	r0, r0, r0
   19af4:	50565050 	subspl	r5, r6, r0, asr r0
   19af8:	71657220 	cmnvc	r5, r0, lsr #4
   19afc:	74736575 	ldrbtvc	r6, [r3], #-1397	; 0xfffffa8b
   19b00:	20736920 	rsbscs	r6, r3, r0, lsr #18
   19b04:	75206f74 	strvc	r6, [r0, #-3956]!	; 0xfffff08c
   19b08:	00000073 	andeq	r0, r0, r3, ror r0
   19b0c:	41544144 	cmpmi	r4, r4, asr #2
   19b10:	2520203a 	strcs	r2, [r0, #-58]!	; 0xffffffc6
   19b14:	75252e75 	strvc	r2, [r5, #-3701]!	; 0xfffff18b
   19b18:	2e75252e 	cdpcs	5, 7, cr2, cr5, cr14, {1}
   19b1c:	00207525 	eoreq	r7, r0, r5, lsr #10
   19b20:	69505355 	ldmdbvs	r0, {r0, r2, r4, r6, r8, r9, ip, lr}^
   19b24:	646e6553 	strbtvs	r6, [lr], #-1363	; 0xfffffaad
   19b28:	6d617246 	sfmvs	f7, 2, [r1, #-280]!	; 0xfffffee8
   19b2c:	61662065 	cmnvs	r6, r5, rrx
   19b30:	64656c69 	strbtvs	r6, [r5], #-3177	; 0xfffff397
   19b34:	00000000 	andeq	r0, r0, r0
   19b38:	50565050 	subspl	r5, r6, r0, asr r0
   19b3c:	54414420 	strbpl	r4, [r1], #-1056	; 0xfffffbe0
   19b40:	75732041 	ldrbvc	r2, [r3, #-65]!	; 0xffffffbf
   19b44:	73656363 	cmnvc	r5, #-1946157055	; 0x8c000001
   19b48:	6c756673 	ldclvs	6, cr6, [r5], #-460	; 0xfffffe34
   19b4c:	7320796c 	teqvc	r0, #108, 18	; 0x1b0000
   19b50:	00746e65 	rsbseq	r6, r4, r5, ror #28
   19b54:	2043414d 	subcs	r4, r3, sp, asr #2
   19b58:	45434552 	strbmi	r4, [r3, #-1362]	; 0xfffffaae
   19b5c:	52455649 	subpl	r5, r5, #76546048	; 0x4900000
   19b60:	71657220 	cmnvc	r5, r0, lsr #4
   19b64:	74736575 	ldrbtvc	r6, [r3], #-1397	; 0xfffffa8b
   19b68:	6f726620 	svcvs	0x00726620
   19b6c:	7525206d 	strvc	r2, [r5, #-109]!	; 0xffffff93
   19b70:	2e75252e 	cdpcs	5, 7, cr2, cr5, cr14, {1}
   19b74:	252e7525 	strcs	r7, [lr, #-1317]!	; 0xfffffadb
   19b78:	75252e75 	strvc	r2, [r5, #-3701]!	; 0xfffff18b
   19b7c:	2075252e 	rsbscs	r2, r5, lr, lsr #10
   19b80:	65636572 	strbvs	r6, [r3, #-1394]!	; 0xfffffa8e
   19b84:	64657669 	strbtvs	r7, [r5], #-1641	; 0xfffff997
   19b88:	00000000 	andeq	r0, r0, r0
   19b8c:	2043414d 	subcs	r4, r3, sp, asr #2
   19b90:	444e4553 	strbmi	r4, [lr], #-1363	; 0xfffffaad
   19b94:	72205245 	eorvc	r5, r0, #1342177284	; 0x50000004
   19b98:	65757165 	ldrbvs	r7, [r5, #-357]!	; 0xfffffe9b
   19b9c:	66207473 			; <UNDEFINED> instruction: 0x66207473
   19ba0:	206d6f72 	rsbcs	r6, sp, r2, ror pc
   19ba4:	252e7525 	strcs	r7, [lr, #-1317]!	; 0xfffffadb
   19ba8:	75252e75 	strvc	r2, [r5, #-3701]!	; 0xfffff18b
   19bac:	2e75252e 	cdpcs	5, 7, cr2, cr5, cr14, {1}
   19bb0:	252e7525 	strcs	r7, [lr, #-1317]!	; 0xfffffadb
   19bb4:	65722075 	ldrbvs	r2, [r2, #-117]!	; 0xffffff8b
   19bb8:	76696563 	strbtvc	r6, [r9], -r3, ror #10
   19bbc:	00006465 	andeq	r6, r0, r5, ror #8

00019bc0 <FromUSPi>:
   19bc0:	69707375 	ldmdbvs	r0!, {r0, r2, r4, r5, r6, r8, r9, ip, sp, lr}^
   19bc4:	00000000 	andeq	r0, r0, r0
   19bc8:	4c705f73 	ldclmi	15, cr5, [r0], #-460	; 0xfffffe34
   19bcc:	61726269 	cmnvs	r2, r9, ror #4
   19bd0:	3d207972 	stccc	9, cr7, [r0, #-456]!	; 0xfffffe38
   19bd4:	0030203d 	eorseq	r2, r0, sp, lsr r0
   19bd8:	69707375 	ldmdbvs	r0!, {r0, r2, r4, r5, r6, r8, r9, ip, sp, lr}^
   19bdc:	7262696c 	rsbvc	r6, r2, #108, 18	; 0x1b0000
   19be0:	2e797261 	cdpcs	2, 7, cr7, cr9, cr1, {3}
   19be4:	00000063 	andeq	r0, r0, r3, rrx
   19be8:	4c705f73 	ldclmi	15, cr5, [r0], #-460	; 0xfffffe34
   19bec:	61726269 	cmnvs	r2, r9, ror #4
   19bf0:	21207972 	teqcs	r0, r2, ror r9
   19bf4:	0030203d 	eorseq	r2, r0, sp, lsr r0
   19bf8:	6e6e6143 	powvsem	f6, f6, f3
   19bfc:	6920746f 	stmdbvs	r0!, {r0, r1, r2, r3, r5, r6, sl, ip, sp, lr}
   19c00:	6974696e 	ldmdbvs	r4!, {r1, r2, r3, r5, r6, r8, fp, sp, lr}^
   19c04:	7a696c61 	bvc	1a74d90 <_end+0x1a57cd4>
   19c08:	53552065 	cmppl	r5, #101	; 0x65
   19c0c:	6f682042 	svcvs	0x00682042
   19c10:	63207473 	teqvs	r0, #1929379840	; 0x73000000
   19c14:	72746e6f 	rsbsvc	r6, r4, #1776	; 0x6f0
   19c18:	656c6c6f 	strbvs	r6, [ip, #-3183]!	; 0xfffff391
   19c1c:	6e692072 	mcrvs	0, 3, r2, cr9, cr2, {3}
   19c20:	66726574 			; <UNDEFINED> instruction: 0x66726574
   19c24:	00656361 	rsbeq	r6, r5, r1, ror #6
   19c28:	64626b75 	strbtvs	r6, [r2], #-2933	; 0xfffff48b
   19c2c:	00000031 	andeq	r0, r0, r1, lsr r0
   19c30:	756f6d75 	strbvc	r6, [pc, #-3445]!	; 18ec3 <BcmFrameBufferGetBuffer+0x2b>
   19c34:	00316573 	eorseq	r6, r1, r3, ror r5
   19c38:	64736d75 	ldrbtvs	r6, [r3], #-3445	; 0xfffff28b
   19c3c:	00007525 	andeq	r7, r0, r5, lsr #10
   19c40:	30687465 	rsbcc	r7, r8, r5, ror #8
   19c44:	00000000 	andeq	r0, r0, r0
   19c48:	64617075 	strbtvs	r7, [r1], #-117	; 0xffffff8b
   19c4c:	00007525 	andeq	r7, r0, r5, lsr #10
   19c50:	69505355 	ldmdbvs	r0, {r0, r2, r4, r6, r8, r9, ip, lr}^
   19c54:	62696c20 	rsbvs	r6, r9, #32, 24	; 0x2000
   19c58:	79726172 	ldmdbvc	r2!, {r1, r4, r5, r6, r8, sp, lr}^
   19c5c:	63757320 	cmnvs	r5, #32, 6	; 0x80000000
   19c60:	73736563 	cmnvc	r3, #415236096	; 0x18c00000
   19c64:	6c6c7566 	cfstr64vs	mvdx7, [ip], #-408	; 0xfffffe68
   19c68:	6e692079 	mcrvs	0, 3, r2, cr9, cr9, {3}
   19c6c:	61697469 	cmnvs	r9, r9, ror #8
   19c70:	657a696c 	ldrbvs	r6, [sl, #-2412]!	; 0xfffff694
   19c74:	00000064 	andeq	r0, r0, r4, rrx
   19c78:	4c705f73 	ldclmi	15, cr5, [r0], #-460	; 0xfffffe34
   19c7c:	61726269 	cmnvs	r2, r9, ror #4
   19c80:	3e2d7972 	mcrcc	9, 1, r7, cr13, cr2, {3}
   19c84:	424b5570 	submi	r5, fp, #112, 10	; 0x1c000000
   19c88:	21203144 	teqcs	r0, r4, asr #2
   19c8c:	0030203d 	eorseq	r2, r0, sp, lsr r0
   19c90:	4c705f73 	ldclmi	15, cr5, [r0], #-460	; 0xfffffe34
   19c94:	61726269 	cmnvs	r2, r9, ror #4
   19c98:	3e2d7972 	mcrcc	9, 1, r7, cr13, cr2, {3}
   19c9c:	6f4d5570 	svcvs	0x004d5570
   19ca0:	31657375 	smccc	22325	; 0x5735
   19ca4:	203d2120 	eorscs	r2, sp, r0, lsr #2
   19ca8:	00000030 	andeq	r0, r0, r0, lsr r0
   19cac:	4c705f73 	ldclmi	15, cr5, [r0], #-460	; 0xfffffe34
   19cb0:	61726269 	cmnvs	r2, r9, ror #4
   19cb4:	3e2d7972 	mcrcc	9, 1, r7, cr13, cr2, {3}
   19cb8:	68744570 	ldmdavs	r4!, {r4, r5, r6, r8, sl, lr}^
   19cbc:	3d212030 	stccc	0, cr2, [r1, #-192]!	; 0xffffff40
   19cc0:	00003020 	andeq	r3, r0, r0, lsr #32
   19cc4:	73654470 	cmnvc	r5, #112, 8	; 0x70000000
   19cc8:	3d212063 	stccc	0, cr2, [r1, #-396]!	; 0xfffffe74
   19ccc:	00003020 	andeq	r3, r0, r0, lsr #32
   19cd0:	666e4970 			; <UNDEFINED> instruction: 0x666e4970
   19cd4:	3d21206f 	stccc	0, cr2, [r1, #-444]!	; 0xfffffe44
   19cd8:	00003020 	andeq	r3, r0, r0, lsr #32

00019cdc <FromDWHCI>:
   19cdc:	63687764 	cmnvs	r8, #100, 14	; 0x1900000
   19ce0:	00000069 	andeq	r0, r0, r9, rrx
   19ce4:	69685470 	stmdbvs	r8!, {r4, r5, r6, sl, ip, lr}^
   19ce8:	3d212073 	stccc	0, cr2, [r1, #-460]!	; 0xfffffe34
   19cec:	00003020 	andeq	r3, r0, r0, lsr #32
   19cf0:	63687764 	cmnvs	r8, #100, 14	; 0x1900000
   19cf4:	76656469 	strbtvc	r6, [r5], -r9, ror #8
   19cf8:	2e656369 	cdpcs	3, 6, cr6, cr5, cr9, {3}
   19cfc:	00000063 	andeq	r0, r0, r3, rrx
   19d00:	61745370 	cmnvs	r4, r0, ror r3
   19d04:	61446567 	cmpvs	r4, r7, ror #10
   19d08:	21206174 	teqcs	r0, r4, ror r1
   19d0c:	0030203d 	eorseq	r2, r0, sp, lsr r0
   19d10:	6168436e 	cmnvs	r8, lr, ror #6
   19d14:	6c656e6e 	stclvs	14, cr6, [r5], #-440	; 0xfffffe48
   19d18:	70203c20 	eorvc	r3, r0, r0, lsr #24
   19d1c:	73696854 	cmnvc	r9, #84, 16	; 0x540000
   19d20:	5f6d3e2d 	svcpl	0x006d3e2d
   19d24:	6168436e 	cmnvs	r8, lr, ror #6
   19d28:	6c656e6e 	stclvs	14, cr6, [r5], #-440	; 0xfffffe48
   19d2c:	00000073 	andeq	r0, r0, r3, ror r0
   19d30:	43485744 	movtmi	r5, #34628	; 0x8744
   19d34:	61725449 	cmnvs	r2, r9, asr #8
   19d38:	6566736e 	strbvs	r7, [r6, #-878]!	; 0xfffffc92
   19d3c:	61745372 	cmnvs	r4, r2, ror r3
   19d40:	61446567 	cmpvs	r4, r7, ror #10
   19d44:	65476174 	strbvs	r6, [r7, #-372]	; 0xfffffe8c
   19d48:	61745374 	cmnvs	r4, r4, ror r3
   19d4c:	28206574 	stmdacs	r0!, {r2, r4, r5, r6, r8, sl, sp, lr}
   19d50:	61745370 	cmnvs	r4, r0, ror r3
   19d54:	61446567 	cmpvs	r4, r7, ror #10
   19d58:	20296174 	eorcs	r6, r9, r4, ror r1
   19d5c:	53203d3d 	teqpl	r0, #3904	; 0xf40
   19d60:	65676174 	strbvs	r6, [r7, #-372]!	; 0xfffffe8c
   19d64:	74617453 	strbtvc	r7, [r1], #-1107	; 0xfffffbad
   19d68:	72655065 	rsbvc	r5, r5, #101	; 0x65
   19d6c:	69646f69 	stmdbvs	r4!, {r0, r3, r5, r6, r8, r9, sl, fp, sp, lr}^
   19d70:	6c654463 	cfstrdvs	mvd4, [r5], #-396	; 0xfffffe74
   19d74:	00007961 	andeq	r7, r0, r1, ror #18
   19d78:	61724670 	cmnvs	r2, r0, ror r6
   19d7c:	6353656d 	cmpvs	r3, #457179136	; 0x1b400000
   19d80:	75646568 	strbvc	r6, [r4, #-1384]!	; 0xfffffa98
   19d84:	2072656c 	rsbscs	r6, r2, ip, ror #10
   19d88:	30203d21 	eorcc	r3, r0, r1, lsr #26
   19d8c:	00000000 	andeq	r0, r0, r0
   19d90:	69685470 	stmdbvs	r8!, {r4, r5, r6, sl, ip, lr}^
   19d94:	6d3e2d73 	ldcvs	13, cr2, [lr, #-460]!	; 0xfffffe34
   19d98:	68436e5f 	stmdavs	r3, {r0, r1, r2, r3, r4, r6, r9, sl, fp, sp, lr}^
   19d9c:	656e6e61 	strbvs	r6, [lr, #-3681]!	; 0xfffff19f
   19da0:	6c6c416c 	stfvse	f4, [ip], #-432	; 0xfffffe50
   19da4:	7461636f 	strbtvc	r6, [r1], #-879	; 0xfffffc91
   19da8:	26206465 	strtcs	r6, [r0], -r5, ror #8
   19dac:	68436e20 	stmdavs	r3, {r5, r9, sl, fp, sp, lr}^
   19db0:	656e6e61 	strbvs	r6, [lr, #-3681]!	; 0xfffff19f
   19db4:	73614d6c 	cmnvc	r1, #108, 26	; 0x1b00
   19db8:	0000006b 	andeq	r0, r0, fp, rrx
   19dbc:	42525570 	subsmi	r5, r2, #112, 10	; 0x1c000000
   19dc0:	203d2120 	eorscs	r2, sp, r0, lsr #2
   19dc4:	00000030 	andeq	r0, r0, r0, lsr r0
   19dc8:	69685470 	stmdbvs	r8!, {r4, r5, r6, sl, ip, lr}^
   19dcc:	6d3e2d73 	ldcvs	13, cr2, [lr, #-460]!	; 0xfffffe34
   19dd0:	7453705f 	ldrbvc	r7, [r3], #-95	; 0xffffffa1
   19dd4:	44656761 	strbtmi	r6, [r5], #-1889	; 0xfffff89f
   19dd8:	5b617461 	blpl	1876f64 <_end+0x1859ea8>
   19ddc:	6168436e 	cmnvs	r8, lr, ror #6
   19de0:	6c656e6e 	stclvs	14, cr6, [r5], #-440	; 0xfffffe48
   19de4:	3d3d205d 	ldccc	0, cr2, [sp, #-372]!	; 0xfffffe8c
   19de8:	00003020 	andeq	r3, r0, r0, lsr #32
   19dec:	45425355 	strbmi	r5, [r2, #-853]	; 0xfffffcab
   19df0:	6f70646e 	svcvs	0x0070646e
   19df4:	47746e69 	ldrbmi	r6, [r4, -r9, ror #28]!
   19df8:	79547465 	ldmdbvc	r4, {r0, r2, r5, r6, sl, ip, sp, lr}^
   19dfc:	28206570 	stmdacs	r0!, {r4, r5, r6, r8, sl, sp, lr}
   19e00:	52425355 	subpl	r5, r2, #1409286145	; 0x54000001
   19e04:	65757165 	ldrbvs	r7, [r5, #-357]!	; 0xfffffe9b
   19e08:	65477473 	strbvs	r7, [r7, #-1139]	; 0xfffffb8d
   19e0c:	646e4574 	strbtvs	r4, [lr], #-1396	; 0xfffffa8c
   19e10:	6e696f70 	mcrvs	15, 3, r6, cr9, cr0, {3}
   19e14:	70282074 	eorvc	r2, r8, r4, ror r0
   19e18:	29425255 	stmdbcs	r2, {r0, r2, r4, r6, r9, ip, lr}^
   19e1c:	3d3d2029 	ldccc	0, cr2, [sp, #-164]!	; 0xffffff5c
   19e20:	646e4520 	strbtvs	r4, [lr], #-1312	; 0xfffffae0
   19e24:	6e696f70 	mcrvs	15, 3, r6, cr9, cr0, {3}
   19e28:	70795474 	rsbsvc	r5, r9, r4, ror r4
   19e2c:	6c754265 	lfmvs	f4, 2, [r5], #-404	; 0xfffffe6c
   19e30:	7c7c206b 	ldclvc	0, cr2, [ip], #-428	; 0xfffffe54
   19e34:	42535520 	subsmi	r5, r3, #32, 10	; 0x8000000
   19e38:	70646e45 	rsbvc	r6, r4, r5, asr #28
   19e3c:	746e696f 	strbtvc	r6, [lr], #-2415	; 0xfffff691
   19e40:	54746547 	ldrbtpl	r6, [r4], #-1351	; 0xfffffab9
   19e44:	20657079 	rsbcs	r7, r5, r9, ror r0
   19e48:	42535528 	subsmi	r5, r3, #40, 10	; 0xa000000
   19e4c:	75716552 	ldrbvc	r6, [r1, #-1362]!	; 0xfffffaae
   19e50:	47747365 	ldrbmi	r7, [r4, -r5, ror #6]!
   19e54:	6e457465 	cdpvs	4, 4, cr7, cr5, cr5, {3}
   19e58:	696f7064 	stmdbvs	pc!, {r2, r5, r6, ip, sp, lr}^	; <UNPREDICTABLE>
   19e5c:	2820746e 	stmdacs	r0!, {r1, r2, r3, r5, r6, sl, ip, sp, lr}
   19e60:	42525570 	subsmi	r5, r2, #112, 10	; 0x1c000000
   19e64:	3d202929 	stccc	9, cr2, [r0, #-164]!	; 0xffffff5c
   19e68:	6e45203d 	mcrvs	0, 2, r2, cr5, cr13, {1}
   19e6c:	696f7064 	stmdbvs	pc!, {r2, r5, r6, ip, sp, lr}^	; <UNPREDICTABLE>
   19e70:	7954746e 	ldmdbvc	r4, {r1, r2, r3, r5, r6, sl, ip, sp, lr}^
   19e74:	6e496570 	mcrvs	5, 2, r6, cr9, cr0, {3}
   19e78:	72726574 	rsbsvc	r6, r2, #116, 10	; 0x1d000000
   19e7c:	00747075 	rsbseq	r7, r4, r5, ror r0
   19e80:	52425355 	subpl	r5, r2, #1409286145	; 0x54000001
   19e84:	65757165 	ldrbvs	r7, [r5, #-357]!	; 0xfffffe9b
   19e88:	65477473 	strbvs	r7, [r7, #-1139]	; 0xfffffb8d
   19e8c:	66754274 			; <UNDEFINED> instruction: 0x66754274
   19e90:	206e654c 	rsbcs	r6, lr, ip, asr #10
   19e94:	52557028 	subspl	r7, r5, #40	; 0x28
   19e98:	3e202942 	cdpcc	9, 2, cr2, cr0, cr2, {2}
   19e9c:	00003020 	andeq	r3, r0, r0, lsr #32
   19ea0:	68547021 	ldmdavs	r4, {r0, r5, ip, sp, lr}^
   19ea4:	3e2d7369 	cdpcc	3, 2, cr7, cr13, cr9, {3}
   19ea8:	57625f6d 	strbpl	r5, [r2, -sp, ror #30]!
   19eac:	69746961 	ldmdbvs	r4!, {r0, r5, r6, r8, fp, sp, lr}^
   19eb0:	0000676e 	andeq	r6, r0, lr, ror #14
   19eb4:	74655370 	strbtvc	r5, [r5], #-880	; 0xfffffc90
   19eb8:	21207075 	teqcs	r0, r5, ror r0
   19ebc:	0030203d 	eorseq	r2, r0, sp, lsr r0
   19ec0:	48574421 	ldmdami	r7, {r0, r5, sl, lr}^
   19ec4:	72544943 	subsvc	r4, r4, #1097728	; 0x10c000
   19ec8:	66736e61 	ldrbtvs	r6, [r3], -r1, ror #28
   19ecc:	74537265 	ldrbvc	r7, [r3], #-613	; 0xfffffd9b
   19ed0:	44656761 	strbtmi	r6, [r5], #-1889	; 0xfffff89f
   19ed4:	49617461 	stmdbmi	r1!, {r0, r5, r6, sl, ip, sp, lr}^
   19ed8:	72655073 	rsbvc	r5, r5, #115	; 0x73
   19edc:	69646f69 	stmdbvs	r4!, {r0, r3, r5, r6, r8, r9, sl, fp, sp, lr}^
   19ee0:	70282063 	eorvc	r2, r8, r3, rrx
   19ee4:	67617453 			; <UNDEFINED> instruction: 0x67617453
   19ee8:	74614465 	strbtvc	r4, [r1], #-1125	; 0xfffffb9b
   19eec:	7c202961 	stcvc	9, cr2, [r0], #-388	; 0xfffffe7c
   19ef0:	5744207c 	smlsldxpl	r2, r4, ip, r0
   19ef4:	5f494348 	svcpl	0x00494348
   19ef8:	54534f48 	ldrbpl	r4, [r3], #-3912	; 0xfffff0b8
   19efc:	4148435f 	cmpmi	r8, pc, asr r3
   19f00:	46585f4e 	ldrbmi	r5, [r8], -lr, asr #30
   19f04:	535f5245 	cmppl	pc, #1342177284	; 0x50000004
   19f08:	505f5a49 	subspl	r5, pc, r9, asr #20
   19f0c:	28204449 	stmdacs	r0!, {r0, r3, r6, sl, lr}
   19f10:	43485744 	movtmi	r5, #34628	; 0x8744
   19f14:	67655249 	strbvs	r5, [r5, -r9, asr #4]!
   19f18:	65747369 	ldrbvs	r7, [r4, #-873]!	; 0xfffffc97
   19f1c:	74654772 	strbtvc	r4, [r5], #-1906	; 0xfffff88e
   19f20:	54262820 	strtpl	r2, [r6], #-2080	; 0xfffff7e0
   19f24:	736e6172 	cmnvc	lr, #-2147483620	; 0x8000001c
   19f28:	53726566 	cmnpl	r2, #427819008	; 0x19800000
   19f2c:	29657a69 	stmdbcs	r5!, {r0, r3, r5, r6, r9, fp, ip, sp, lr}^
   19f30:	3d212029 	stccc	0, cr2, [r1, #-164]!	; 0xffffff5c
   19f34:	48574420 	ldmdami	r7, {r5, sl, lr}^
   19f38:	485f4943 	ldmdami	pc, {r0, r1, r6, r8, fp, lr}^	; <UNPREDICTABLE>
   19f3c:	5f54534f 	svcpl	0x0054534f
   19f40:	4e414843 	cdpmi	8, 4, cr4, cr1, cr3, {2}
   19f44:	4546585f 	strbmi	r5, [r6, #-2143]	; 0xfffff7a1
   19f48:	49535f52 	ldmdbmi	r3, {r1, r4, r6, r8, r9, sl, fp, ip, lr}^
   19f4c:	49505f5a 	ldmdbmi	r0, {r1, r3, r4, r6, r8, r9, sl, fp, ip, lr}^
   19f50:	444d5f44 	strbmi	r5, [sp], #-3908	; 0xfffff0bc
   19f54:	00415441 	subeq	r5, r1, r1, asr #8
   19f58:	6e617254 	mcrvs	2, 3, r7, cr1, cr4, {2}
   19f5c:	74636173 	strbtvc	r6, [r3], #-371	; 0xfffffe8d
   19f60:	206e6f69 	rsbcs	r6, lr, r9, ror #30
   19f64:	6c696166 	stfvse	f6, [r9], #-408	; 0xfffffe68
   19f68:	28206465 	stmdacs	r0!, {r0, r2, r5, r6, sl, sp, lr}
   19f6c:	74617473 	strbtvc	r7, [r1], #-1139	; 0xfffffb8d
   19f70:	30207375 	eorcc	r7, r0, r5, ror r3
   19f74:	29582578 	ldmdbcs	r8, {r3, r4, r5, r6, r8, sl, sp}^
   19f78:	00000000 	andeq	r0, r0, r0
   19f7c:	67655270 			; <UNDEFINED> instruction: 0x67655270
   19f80:	65747369 	ldrbvs	r7, [r4, #-873]!	; 0xfffffc97
   19f84:	3d212072 	stccc	0, cr2, [r1, #-456]!	; 0xfffffe38
   19f88:	00003020 	andeq	r3, r0, r0, lsr #32
   19f8c:	73614d6e 	cmnvc	r1, #7040	; 0x1b80
   19f90:	3d21206b 	stccc	0, cr2, [r1, #-428]!	; 0xfffffe54
   19f94:	00003020 	andeq	r3, r0, r0, lsr #32
   19f98:	54734d6e 	ldrbtpl	r4, [r3], #-3438	; 0xfffff292
   19f9c:	6f656d69 	svcvs	0x00656d69
   19fa0:	3e207475 	mcrcc	4, 1, r7, cr0, cr5, {3}
   19fa4:	00003020 	andeq	r3, r0, r0, lsr #32
   19fa8:	65736552 	ldrbvs	r6, [r3, #-1362]!	; 0xfffffaae
   19fac:	61662074 	smcvs	25092	; 0x6204
   19fb0:	64656c69 	strbtvs	r6, [r5], #-3177	; 0xfffff397
   19fb4:	00000000 	andeq	r0, r0, r0
   19fb8:	43485744 	movtmi	r5, #34628	; 0x8744
   19fbc:	4f435f49 	svcmi	0x00435f49
   19fc0:	485f4552 	ldmdami	pc, {r1, r4, r6, r8, sl, lr}^	; <UNPREDICTABLE>
   19fc4:	46435f57 			; <UNDEFINED> instruction: 0x46435f57
   19fc8:	415f3247 	cmpmi	pc, r7, asr #4
   19fcc:	49484352 	stmdbmi	r8, {r1, r4, r6, r8, r9, lr}^
   19fd0:	54434554 	strbpl	r4, [r3], #-1364	; 0xfffffaac
   19fd4:	20455255 	subcs	r5, r5, r5, asr r2
   19fd8:	48574428 	ldmdami	r7, {r3, r5, sl, lr}^
   19fdc:	65524943 	ldrbvs	r4, [r2, #-2371]	; 0xfffff6bd
   19fe0:	74736967 	ldrbtvc	r6, [r3], #-2407	; 0xfffff699
   19fe4:	65477265 	strbvs	r7, [r7, #-613]	; 0xfffffd9b
   19fe8:	26282074 			; <UNDEFINED> instruction: 0x26282074
   19fec:	6f435748 	svcvs	0x00435748
   19ff0:	6769666e 	strbvs	r6, [r9, -lr, ror #12]!
   19ff4:	20292932 	eorcs	r2, r9, r2, lsr r9
   19ff8:	32203d3d 	eorcc	r3, r0, #3904	; 0xf40
   19ffc:	00000000 	andeq	r0, r0, r0
   1a000:	69685470 	stmdbvs	r8!, {r4, r5, r6, sl, ip, lr}^
   1a004:	6d3e2d73 	ldcvs	13, cr2, [lr, #-460]!	; 0xfffffe34
   1a008:	68436e5f 	stmdavs	r3, {r0, r1, r2, r3, r4, r6, r9, sl, fp, sp, lr}^
   1a00c:	656e6e61 	strbvs	r6, [lr, #-3681]!	; 0xfffff19f
   1a010:	3d20736c 	stccc	3, cr7, [r0, #-432]!	; 0xfffffe50
   1a014:	0030203d 	eorseq	r2, r0, sp, lsr r0
   1a018:	3d3c2034 	ldccc	0, cr2, [ip, #-208]!	; 0xffffff30
   1a01c:	68547020 	ldmdavs	r4, {r5, ip, sp, lr}^
   1a020:	3e2d7369 	cdpcc	3, 2, cr7, cr13, cr9, {3}
   1a024:	436e5f6d 	cmnmi	lr, #436	; 0x1b4
   1a028:	6e6e6168 	powvsez	f6, f6, #0.0
   1a02c:	20736c65 	rsbscs	r6, r3, r5, ror #24
   1a030:	70202626 	eorvc	r2, r0, r6, lsr #12
   1a034:	73696854 	cmnvc	r9, #84, 16	; 0x540000
   1a038:	5f6d3e2d 	svcpl	0x006d3e2d
   1a03c:	6168436e 	cmnvs	r8, lr, ror #6
   1a040:	6c656e6e 	stclvs	14, cr6, [r5], #-440	; 0xfffffe48
   1a044:	3d3c2073 	ldccc	0, cr2, [ip, #-460]!	; 0xfffffe34
   1a048:	48574420 	ldmdami	r7, {r5, sl, lr}^
   1a04c:	4d5f4943 	ldclmi	9, cr4, [pc, #-268]	; 19f48 <FromDWHCI+0x26c>
   1a050:	435f5841 	cmpmi	pc, #4259840	; 0x410000
   1a054:	4e4e4148 	dvfmiem	f4, f6, #0.0
   1a058:	00534c45 	subseq	r4, r3, r5, asr #24
   1a05c:	6e6b6e55 	mcrvs	14, 3, r6, cr11, cr5, {2}
   1a060:	206e776f 	rsbcs	r7, lr, pc, ror #14
   1a064:	646e6576 	strbtvs	r6, [lr], #-1398	; 0xfffffa8a
   1a068:	3020726f 	eorcc	r7, r0, pc, ror #4
   1a06c:	58302578 	ldmdapl	r0!, {r3, r4, r5, r6, r8, sl, sp}
   1a070:	00000000 	andeq	r0, r0, r0
   1a074:	6e6e6143 	powvsem	f6, f6, f3
   1a078:	7020746f 	eorvc	r7, r0, pc, ror #8
   1a07c:	7265776f 	rsbvc	r7, r5, #29097984	; 0x1bc0000
   1a080:	006e6f20 	rsbeq	r6, lr, r0, lsr #30
   1a084:	6e6e6143 	powvsem	f6, f6, f3
   1a088:	6920746f 	stmdbvs	r0!, {r0, r1, r2, r3, r5, r6, sl, ip, sp, lr}
   1a08c:	6974696e 	ldmdbvs	r4!, {r1, r2, r3, r5, r6, r8, fp, sp, lr}^
   1a090:	7a696c61 	bvc	1a7521c <_end+0x1a58160>
   1a094:	6f632065 	svcvs	0x00632065
   1a098:	00006572 	andeq	r6, r0, r2, ror r5
   1a09c:	6e6e6143 	powvsem	f6, f6, f3
   1a0a0:	6920746f 	stmdbvs	r0!, {r0, r1, r2, r3, r5, r6, sl, ip, sp, lr}
   1a0a4:	6974696e 	ldmdbvs	r4!, {r1, r2, r3, r5, r6, r8, fp, sp, lr}^
   1a0a8:	7a696c61 	bvc	1a75234 <_end+0x1a58178>
   1a0ac:	6f682065 	svcvs	0x00682065
   1a0b0:	00007473 	andeq	r7, r0, r3, ror r4
   1a0b4:	64206f4e 	strtvs	r6, [r0], #-3918	; 0xfffff0b2
   1a0b8:	63697665 	cmnvs	r9, #105906176	; 0x6500000
   1a0bc:	6f632065 	svcvs	0x00632065
   1a0c0:	63656e6e 	cmnvs	r5, #1760	; 0x6e0
   1a0c4:	20646574 	rsbcs	r6, r4, r4, ror r5
   1a0c8:	72206f74 	eorvc	r6, r0, #116, 30	; 0x1d0
   1a0cc:	20746f6f 	rsbscs	r6, r4, pc, ror #30
   1a0d0:	74726f70 	ldrbtvc	r6, [r2], #-3952	; 0xfffff090
   1a0d4:	00000000 	andeq	r0, r0, r0
   1a0d8:	6e6e6143 	powvsem	f6, f6, f3
   1a0dc:	6920746f 	stmdbvs	r0!, {r0, r1, r2, r3, r5, r6, sl, ip, sp, lr}
   1a0e0:	6974696e 	ldmdbvs	r4!, {r1, r2, r3, r5, r6, r8, fp, sp, lr}^
   1a0e4:	7a696c61 	bvc	1a75270 <_end+0x1a581b4>
   1a0e8:	6f722065 	svcvs	0x00722065
   1a0ec:	7020746f 	eorvc	r7, r0, pc, ror #8
   1a0f0:	0074726f 	rsbseq	r7, r4, pc, ror #4
   1a0f4:	30257830 	eorcc	r7, r5, r0, lsr r8
   1a0f8:	25205838 	strcs	r5, [r0, #-2104]!	; 0xfffff7c8
   1a0fc:	00000073 	andeq	r0, r0, r3, ror r0
   1a100:	5f47544f 	svcpl	0x0047544f
   1a104:	4c525443 	cfldrdmi	mvd5, [r2], {67}	; 0x43
   1a108:	00000000 	andeq	r0, r0, r0
   1a10c:	5f424841 	svcpl	0x00424841
   1a110:	00474643 	subeq	r4, r7, r3, asr #12
   1a114:	5f425355 	svcpl	0x00425355
   1a118:	00474643 	subeq	r4, r7, r3, asr #12
   1a11c:	45534552 	ldrbmi	r4, [r3, #-1362]	; 0xfffffaae
   1a120:	00000054 	andeq	r0, r0, r4, asr r0
   1a124:	5f544e49 	svcpl	0x00544e49
   1a128:	54415453 	strbpl	r5, [r1], #-1107	; 0xfffffbad
   1a12c:	00000000 	andeq	r0, r0, r0
   1a130:	5f544e49 	svcpl	0x00544e49
   1a134:	4b53414d 	blmi	14ea670 <_end+0x14cd5b4>
   1a138:	00000000 	andeq	r0, r0, r0
   1a13c:	465f5852 			; <UNDEFINED> instruction: 0x465f5852
   1a140:	5f4f4649 	svcpl	0x004f4649
   1a144:	005a4953 	subseq	r4, sl, r3, asr r9
   1a148:	5245504e 	subpl	r5, r5, #78	; 0x4e
   1a14c:	5f58545f 	svcpl	0x0058545f
   1a150:	4f464946 	svcmi	0x00464946
   1a154:	5a49535f 	bpl	126eed8 <_end+0x1251e1c>
   1a158:	00000000 	andeq	r0, r0, r0
   1a15c:	5245504e 	subpl	r5, r5, #78	; 0x4e
   1a160:	5f58545f 	svcpl	0x0058545f
   1a164:	54415453 	strbpl	r5, [r1], #-1107	; 0xfffffbad
   1a168:	00000000 	andeq	r0, r0, r0
   1a16c:	54534f48 	ldrbpl	r4, [r3], #-3912	; 0xfffff0b8
   1a170:	5245505f 	subpl	r5, r5, #95	; 0x5f
   1a174:	5f58545f 	svcpl	0x0058545f
   1a178:	4f464946 	svcmi	0x00464946
   1a17c:	5a49535f 	bpl	126ef00 <_end+0x1251e44>
   1a180:	00000000 	andeq	r0, r0, r0
   1a184:	54534f48 	ldrbpl	r4, [r3], #-3912	; 0xfffff0b8
   1a188:	4746435f 	smlsldmi	r4, r6, pc, r3	; <UNPREDICTABLE>
   1a18c:	00000000 	andeq	r0, r0, r0
   1a190:	54534f48 	ldrbpl	r4, [r3], #-3912	; 0xfffff0b8
   1a194:	5245505f 	subpl	r5, r5, #95	; 0x5f
   1a198:	5f58545f 	svcpl	0x0058545f
   1a19c:	4f464946 	svcmi	0x00464946
   1a1a0:	4154535f 	cmpmi	r4, pc, asr r3
   1a1a4:	00000054 	andeq	r0, r0, r4, asr r0
   1a1a8:	54534f48 	ldrbpl	r4, [r3], #-3912	; 0xfffff0b8
   1a1ac:	4c4c415f 	stfmie	f4, [ip], {95}	; 0x5f
   1a1b0:	4e414843 	cdpmi	8, 4, cr4, cr1, cr3, {2}
   1a1b4:	544e495f 	strbpl	r4, [lr], #-2399	; 0xfffff6a1
   1a1b8:	00000000 	andeq	r0, r0, r0
   1a1bc:	54534f48 	ldrbpl	r4, [r3], #-3912	; 0xfffff0b8
   1a1c0:	4c4c415f 	stfmie	f4, [ip], {95}	; 0x5f
   1a1c4:	4e414843 	cdpmi	8, 4, cr4, cr1, cr3, {2}
   1a1c8:	544e495f 	strbpl	r4, [lr], #-2399	; 0xfffff6a1
   1a1cc:	53414d5f 	movtpl	r4, #7519	; 0x1d5f
   1a1d0:	0000004b 	andeq	r0, r0, fp, asr #32
   1a1d4:	54534f48 	ldrbpl	r4, [r3], #-3912	; 0xfffff0b8
   1a1d8:	524f505f 	subpl	r5, pc, #95	; 0x5f
   1a1dc:	00000054 	andeq	r0, r0, r4, asr r0
   1a1e0:	54534f48 	ldrbpl	r4, [r3], #-3912	; 0xfffff0b8
   1a1e4:	4148435f 	cmpmi	r8, pc, asr r3
   1a1e8:	48435f4e 	stmdami	r3, {r1, r2, r3, r6, r8, r9, sl, fp, ip, lr}^
   1a1ec:	43415241 	movtmi	r5, #4673	; 0x1241
   1a1f0:	28524554 	ldmdacs	r2, {r2, r4, r6, r8, sl, lr}^
   1a1f4:	0000296e 	andeq	r2, r0, lr, ror #18
   1a1f8:	54534f48 	ldrbpl	r4, [r3], #-3912	; 0xfffff0b8
   1a1fc:	4148435f 	cmpmi	r8, pc, asr r3
   1a200:	50535f4e 	subspl	r5, r3, lr, asr #30
   1a204:	5f54494c 	svcpl	0x0054494c
   1a208:	4c525443 	cfldrdmi	mvd5, [r2], {67}	; 0x43
   1a20c:	00296e28 	eoreq	r6, r9, r8, lsr #28
   1a210:	54534f48 	ldrbpl	r4, [r3], #-3912	; 0xfffff0b8
   1a214:	4148435f 	cmpmi	r8, pc, asr r3
   1a218:	4e495f4e 	cdpmi	15, 4, cr5, cr9, cr14, {2}
   1a21c:	296e2854 	stmdbcs	lr!, {r2, r4, r6, fp, sp}^
   1a220:	00000000 	andeq	r0, r0, r0
   1a224:	54534f48 	ldrbpl	r4, [r3], #-3912	; 0xfffff0b8
   1a228:	4148435f 	cmpmi	r8, pc, asr r3
   1a22c:	4e495f4e 	cdpmi	15, 4, cr5, cr9, cr14, {2}
   1a230:	414d5f54 	cmpmi	sp, r4, asr pc
   1a234:	6e284b53 	mcrvs	11, 1, r4, cr8, cr3, {2}
   1a238:	00000029 	andeq	r0, r0, r9, lsr #32
   1a23c:	54534f48 	ldrbpl	r4, [r3], #-3912	; 0xfffff0b8
   1a240:	4148435f 	cmpmi	r8, pc, asr r3
   1a244:	46585f4e 	ldrbmi	r5, [r8], -lr, asr #30
   1a248:	535f5245 	cmppl	pc, #1342177284	; 0x50000004
   1a24c:	6e285a49 	vnmulvs.f32	s10, s16, s18
   1a250:	00000029 	andeq	r0, r0, r9, lsr #32
   1a254:	54534f48 	ldrbpl	r4, [r3], #-3912	; 0xfffff0b8
   1a258:	4148435f 	cmpmi	r8, pc, asr r3
   1a25c:	4d445f4e 	stclmi	15, cr5, [r4, #-312]	; 0xfffffec8
   1a260:	44415f41 	strbmi	r5, [r1], #-3905	; 0xfffff0bf
   1a264:	6e285244 	cdpvs	2, 2, cr5, cr8, cr4, {2}
   1a268:	00000029 	andeq	r0, r0, r9, lsr #32
   1a26c:	63687764 	cmnvs	r8, #100, 14	; 0x1900000
   1a270:	67657269 	strbvs	r7, [r5, -r9, ror #4]!
   1a274:	65747369 	ldrbvs	r7, [r4, #-873]!	; 0xfffffc97
   1a278:	00632e72 	rsbeq	r2, r3, r2, ror lr
   1a27c:	69685470 	stmdbvs	r8!, {r4, r5, r6, sl, ip, lr}^
   1a280:	6d3e2d73 	ldcvs	13, cr2, [lr, #-460]!	; 0xfffffe34
   1a284:	6156625f 	cmpvs	r6, pc, asr r2
   1a288:	0064696c 	rsbeq	r6, r4, ip, ror #18
   1a28c:	7469426e 	strbtvc	r4, [r9], #-622	; 0xfffffd92
   1a290:	73203c20 	teqvc	r0, #32, 24	; 0x2000
   1a294:	6f657a69 	svcvs	0x00657a69
   1a298:	54702066 	ldrbtpl	r2, [r0], #-102	; 0xffffff9a
   1a29c:	2d736968 	ldclcs	9, cr6, [r3, #-416]!	; 0xfffffe60
   1a2a0:	6e5f6d3e 	mrcvs	13, 2, r6, cr15, cr14, {1}
   1a2a4:	66667542 	strbtvs	r7, [r6], -r2, asr #10
   1a2a8:	2a207265 	bcs	836c44 <_end+0x819b88>
   1a2ac:	00003820 	andeq	r3, r0, r0, lsr #16
   1a2b0:	63687764 	cmnvs	r8, #100, 14	; 0x1900000
   1a2b4:	00000069 	andeq	r0, r0, r9, rrx
   1a2b8:	69676552 	stmdbvs	r7!, {r1, r4, r6, r8, sl, sp, lr}^
   1a2bc:	72657473 	rsbvc	r7, r5, #1929379840	; 0x73000000
   1a2c0:	20746120 	rsbscs	r6, r4, r0, lsr #2
   1a2c4:	58257830 	stmdapl	r5!, {r4, r5, fp, ip, sp, lr}
   1a2c8:	20736920 	rsbscs	r6, r3, r0, lsr #18
   1a2cc:	58257830 	stmdapl	r5!, {r4, r5, fp, ip, sp, lr}
   1a2d0:	00000000 	andeq	r0, r0, r0
   1a2d4:	69676552 	stmdbvs	r7!, {r1, r4, r6, r8, sl, sp, lr}^
   1a2d8:	72657473 	rsbvc	r7, r5, #1929379840	; 0x73000000
   1a2dc:	20746120 	rsbscs	r6, r4, r0, lsr #2
   1a2e0:	58257830 	stmdapl	r5!, {r4, r5, fp, ip, sp, lr}
   1a2e4:	73617720 	cmnvc	r1, #32, 14	; 0x800000
   1a2e8:	746f6e20 	strbtvc	r6, [pc], #-3616	; 1a2f0 <FromDWHCI+0x614>
   1a2ec:	74657320 	strbtvc	r7, [r5], #-800	; 0xfffffce0
   1a2f0:	00000000 	andeq	r0, r0, r0
   1a2f4:	63687764 	cmnvs	r8, #100, 14	; 0x1900000
   1a2f8:	65667869 	strbvs	r7, [r6, #-2153]!	; 0xfffff797
   1a2fc:	61747372 	cmnvs	r4, r2, ror r3
   1a300:	61646567 	cmnvs	r4, r7, ror #10
   1a304:	632e6174 	teqvs	lr, #116, 2
   1a308:	00000000 	andeq	r0, r0, r0
   1a30c:	6361506e 	cmnvs	r1, #110	; 0x6e
   1a310:	7374656b 	cmnvc	r4, #448790528	; 0x1ac00000
   1a314:	6e617254 	mcrvs	2, 3, r7, cr1, cr4, {2}
   1a318:	72656673 	rsbvc	r6, r5, #120586240	; 0x7300000
   1a31c:	3c206465 	cfstrscc	mvf6, [r0], #-404	; 0xfffffe6c
   1a320:	5470203d 	ldrbtpl	r2, [r0], #-61	; 0xffffffc3
   1a324:	2d736968 	ldclcs	9, cr6, [r3, #-416]!	; 0xfffffe60
   1a328:	6e5f6d3e 	mrcvs	13, 2, r6, cr15, cr14, {1}
   1a32c:	6b636150 	blvs	18f2874 <_end+0x18d57b8>
   1a330:	00737465 	rsbseq	r7, r3, r5, ror #8
   1a334:	69685470 	stmdbvs	r8!, {r4, r5, r6, sl, ip, lr}^
   1a338:	6d3e2d73 	ldcvs	13, cr2, [lr, #-460]!	; 0xfffffe34
   1a33c:	6f546e5f 	svcvs	0x00546e5f
   1a340:	426c6174 	rsbmi	r6, ip, #116, 2
   1a344:	73657479 	cmnvc	r5, #2030043136	; 0x79000000
   1a348:	6e617254 	mcrvs	2, 3, r7, cr1, cr4, {2}
   1a34c:	72656673 	rsbvc	r6, r5, #120586240	; 0x7300000
   1a350:	3c206465 	cfstrscc	mvf6, [r0], #-404	; 0xfffffe6c
   1a354:	5470203d 	ldrbtpl	r2, [r0], #-61	; 0xffffffc3
   1a358:	2d736968 	ldclcs	9, cr6, [r3, #-416]!	; 0xfffffe60
   1a35c:	6e5f6d3e 	mrcvs	13, 2, r6, cr15, cr14, {1}
   1a360:	6e617254 	mcrvs	2, 3, r7, cr1, cr4, {2}
   1a364:	72656673 	rsbvc	r6, r5, #120586240	; 0x7300000
   1a368:	657a6953 	ldrbvs	r6, [sl, #-2387]!	; 0xfffff6ad
   1a36c:	00000000 	andeq	r0, r0, r0
   1a370:	69685470 	stmdbvs	r8!, {r4, r5, r6, sl, ip, lr}^
   1a374:	6d3e2d73 	ldcvs	13, cr2, [lr, #-460]!	; 0xfffffe34
   1a378:	7053625f 	subsvc	r6, r3, pc, asr r2
   1a37c:	5474696c 	ldrbtpl	r6, [r4], #-2412	; 0xfffff694
   1a380:	736e6172 	cmnvc	lr, #-2147483620	; 0x8000001c
   1a384:	69746361 	ldmdbvs	r4!, {r0, r5, r6, r8, r9, sp, lr}^
   1a388:	00006e6f 	andeq	r6, r0, pc, ror #28
   1a38c:	69685470 	stmdbvs	r8!, {r4, r5, r6, sl, ip, lr}^
   1a390:	6d3e2d73 	ldcvs	13, cr2, [lr, #-460]!	; 0xfffffe34
   1a394:	6e45705f 	mcrvs	0, 2, r7, cr5, cr15, {2}
   1a398:	696f7064 	stmdbvs	pc!, {r2, r5, r6, ip, sp, lr}^	; <UNPREDICTABLE>
   1a39c:	2120746e 	teqcs	r0, lr, ror #8
   1a3a0:	0030203d 	eorseq	r2, r0, sp, lsr r0
   1a3a4:	69685470 	stmdbvs	r8!, {r4, r5, r6, sl, ip, lr}^
   1a3a8:	6d3e2d73 	ldcvs	13, cr2, [lr, #-460]!	; 0xfffffe34
   1a3ac:	5255705f 	subspl	r7, r5, #95	; 0x5f
   1a3b0:	3d212042 	stccc	0, cr2, [r1, #-264]!	; 0xfffffef8
   1a3b4:	00003020 	andeq	r3, r0, r0, lsr #32
   1a3b8:	69685470 	stmdbvs	r8!, {r4, r5, r6, sl, ip, lr}^
   1a3bc:	6d3e2d73 	ldcvs	13, cr2, [lr, #-460]!	; 0xfffffe34
   1a3c0:	6544705f 	strbvs	r7, [r4, #-95]	; 0xffffffa1
   1a3c4:	65636976 	strbvs	r6, [r3, #-2422]!	; 0xfffff68a
   1a3c8:	203d2120 	eorscs	r2, sp, r0, lsr #2
   1a3cc:	00000030 	andeq	r0, r0, r0, lsr r0
   1a3d0:	69685470 	stmdbvs	r8!, {r4, r5, r6, sl, ip, lr}^
   1a3d4:	6d3e2d73 	ldcvs	13, cr2, [lr, #-460]!	; 0xfffffe34
   1a3d8:	6554705f 	ldrbvs	r7, [r4, #-95]	; 0xffffffa1
   1a3dc:	7542706d 	strbvc	r7, [r2, #-109]	; 0xffffff93
   1a3e0:	72656666 	rsbvc	r6, r5, #106954752	; 0x6600000
   1a3e4:	203d3d20 	eorscs	r3, sp, r0, lsr #26
   1a3e8:	00000030 	andeq	r0, r0, r0, lsr r0
   1a3ec:	69685470 	stmdbvs	r8!, {r4, r5, r6, sl, ip, lr}^
   1a3f0:	6d3e2d73 	ldcvs	13, cr2, [lr, #-460]!	; 0xfffffe34
   1a3f4:	6554705f 	ldrbvs	r7, [r4, #-95]	; 0xffffffa1
   1a3f8:	7542706d 	strbvc	r7, [r2, #-109]	; 0xffffff93
   1a3fc:	72656666 	rsbvc	r6, r5, #106954752	; 0x6600000
   1a400:	203d2120 	eorscs	r2, sp, r0, lsr #2
   1a404:	00000030 	andeq	r0, r0, r0, lsr r0
   1a408:	69685470 	stmdbvs	r8!, {r4, r5, r6, sl, ip, lr}^
   1a40c:	6d3e2d73 	ldcvs	13, cr2, [lr, #-460]!	; 0xfffffe34
   1a410:	7542705f 	strbvc	r7, [r2, #-95]	; 0xffffffa1
   1a414:	72656666 	rsbvc	r6, r5, #106954752	; 0x6600000
   1a418:	6e696f50 	mcrvs	15, 3, r6, cr9, cr0, {2}
   1a41c:	20726574 	rsbscs	r6, r2, r4, ror r5
   1a420:	30203d21 	eorcc	r3, r0, r1, lsr #26
   1a424:	00000000 	andeq	r0, r0, r0
   1a428:	33752828 	cmncc	r5, #40, 16	; 0x280000
   1a42c:	70202932 	eorvc	r2, r0, r2, lsr r9
   1a430:	73696854 	cmnvc	r9, #84, 16	; 0x540000
   1a434:	5f6d3e2d 	svcpl	0x006d3e2d
   1a438:	66754270 			; <UNDEFINED> instruction: 0x66754270
   1a43c:	50726566 	rsbspl	r6, r2, r6, ror #10
   1a440:	746e696f 	strbtvc	r6, [lr], #-2415	; 0xfffff691
   1a444:	26207265 	strtcs	r7, [r0], -r5, ror #4
   1a448:	20293320 	eorcs	r3, r9, r0, lsr #6
   1a44c:	30203d3d 	eorcc	r3, r0, sp, lsr sp
   1a450:	00000000 	andeq	r0, r0, r0
   1a454:	69685470 	stmdbvs	r8!, {r4, r5, r6, sl, ip, lr}^
   1a458:	6d3e2d73 	ldcvs	13, cr2, [lr, #-460]!	; 0xfffffe34
   1a45c:	7246705f 	subvc	r7, r6, #95	; 0x5f
   1a460:	53656d61 	cmnpl	r5, #6208	; 0x1840
   1a464:	64656863 	strbtvs	r6, [r5], #-2147	; 0xfffff79d
   1a468:	72656c75 	rsbvc	r6, r5, #29952	; 0x7500
   1a46c:	203d2120 	eorscs	r2, sp, r0, lsr #2
   1a470:	00000030 	andeq	r0, r0, r0, lsr r0
   1a474:	69685470 	stmdbvs	r8!, {r4, r5, r6, sl, ip, lr}^
   1a478:	6d3e2d73 	ldcvs	13, cr2, [lr, #-460]!	; 0xfffffe34
   1a47c:	72546e5f 	subsvc	r6, r4, #1520	; 0x5f0
   1a480:	66736e61 	ldrbtvs	r6, [r3], -r1, ror #28
   1a484:	69537265 	ldmdbvs	r3, {r0, r2, r5, r6, r9, ip, sp, lr}^
   1a488:	3c20657a 	cfstr32cc	mvfx6, [r0], #-488	; 0xfffffe18
   1a48c:	3831203d 	ldmdacc	r1!, {r0, r2, r3, r4, r5, sp}
   1a490:	00000038 	andeq	r0, r0, r8, lsr r0
   1a494:	69685470 	stmdbvs	r8!, {r4, r5, r6, sl, ip, lr}^
   1a498:	6d3e2d73 	ldcvs	13, cr2, [lr, #-460]!	; 0xfffffe34
   1a49c:	72546e5f 	subsvc	r6, r4, #1520	; 0x5f0
   1a4a0:	61736e61 	cmnvs	r3, r1, ror #28
   1a4a4:	6f697463 	svcvs	0x00697463
   1a4a8:	6174536e 	cmnvs	r4, lr, ror #6
   1a4ac:	20737574 	rsbscs	r7, r3, r4, ror r5
   1a4b0:	30203d21 	eorcc	r3, r0, r1, lsr #26
   1a4b4:	00000000 	andeq	r0, r0, r0

0001a4b8 <FromDevice>:
   1a4b8:	64627375 	strbtvs	r7, [r2], #-885	; 0xfffffc8b
   1a4bc:	00007665 	andeq	r7, r0, r5, ror #12
   1a4c0:	64627375 	strbtvs	r7, [r2], #-885	; 0xfffffc8b
   1a4c4:	63697665 	cmnvs	r9, #105906176	; 0x6500000
   1a4c8:	00632e65 	rsbeq	r2, r3, r5, ror #28
   1a4cc:	69685470 	stmdbvs	r8!, {r4, r5, r6, sl, ip, lr}^
   1a4d0:	6d3e2d73 	ldcvs	13, cr2, [lr, #-460]!	; 0xfffffe34
   1a4d4:	6f48705f 	svcvs	0x0048705f
   1a4d8:	21207473 	teqcs	r0, r3, ror r4
   1a4dc:	0030203d 	eorseq	r2, r0, sp, lsr r0
   1a4e0:	69685470 	stmdbvs	r8!, {r4, r5, r6, sl, ip, lr}^
   1a4e4:	6d3e2d73 	ldcvs	13, cr2, [lr, #-460]!	; 0xfffffe34
   1a4e8:	6e45705f 	mcrvs	0, 2, r7, cr5, cr15, {2}
   1a4ec:	696f7064 	stmdbvs	pc!, {r2, r5, r6, ip, sp, lr}^	; <UNPREDICTABLE>
   1a4f0:	2030746e 	eorscs	r7, r0, lr, ror #8
   1a4f4:	30203d21 	eorcc	r3, r0, r1, lsr #26
   1a4f8:	00000000 	andeq	r0, r0, r0
   1a4fc:	6e6e6143 	powvsem	f6, f6, f3
   1a500:	7320746f 	teqvc	r0, #1862270976	; 0x6f000000
   1a504:	63207465 	teqvs	r0, #1694498816	; 0x65000000
   1a508:	69666e6f 	stmdbvs	r6!, {r0, r1, r2, r3, r5, r6, r9, sl, fp, sp, lr}^
   1a50c:	61727567 	cmnvs	r2, r7, ror #10
   1a510:	6e6f6974 	mcrvs	9, 3, r6, cr15, cr4, {3}
   1a514:	75252820 	strvc	r2, [r5, #-2080]!	; 0xfffff7e0
   1a518:	00000029 	andeq	r0, r0, r9, lsr #32
   1a51c:	69685470 	stmdbvs	r8!, {r4, r5, r6, sl, ip, lr}^
   1a520:	6d3e2d73 	ldcvs	13, cr2, [lr, #-460]!	; 0xfffffe34
   1a524:	6e45705f 	mcrvs	0, 2, r7, cr5, cr15, {2}
   1a528:	696f7064 	stmdbvs	pc!, {r2, r5, r6, ip, sp, lr}^	; <UNPREDICTABLE>
   1a52c:	2030746e 	eorscs	r7, r0, lr, ror #8
   1a530:	30203d3d 	eorcc	r3, r0, sp, lsr sp
   1a534:	00000000 	andeq	r0, r0, r0
   1a538:	75486375 	strbvc	r6, [r8, #-885]	; 0xfffffc8b
   1a53c:	726f5062 	rsbvc	r5, pc, #98	; 0x62
   1a540:	6d754e74 	ldclvs	14, cr4, [r5, #-464]!	; 0xfffffe30
   1a544:	20726562 	rsbscs	r6, r2, r2, ror #10
   1a548:	31203d3e 	teqcc	r0, lr, lsr sp
   1a54c:	00000000 	andeq	r0, r0, r0
   1a550:	76654470 			; <UNDEFINED> instruction: 0x76654470
   1a554:	20656369 	rsbcs	r6, r5, r9, ror #6
   1a558:	30203d21 	eorcc	r3, r0, r1, lsr #26
   1a55c:	00000000 	andeq	r0, r0, r0
   1a560:	69685470 	stmdbvs	r8!, {r4, r5, r6, sl, ip, lr}^
   1a564:	6d3e2d73 	ldcvs	13, cr2, [lr, #-460]!	; 0xfffffe34
   1a568:	6544705f 	strbvs	r7, [r4, #-95]	; 0xffffffa1
   1a56c:	65636976 	strbvs	r6, [r3, #-2422]!	; 0xfffff68a
   1a570:	63736544 	cmnvs	r3, #68, 10	; 0x11000000
   1a574:	203d2120 	eorscs	r2, sp, r0, lsr #2
   1a578:	00000030 	andeq	r0, r0, r0, lsr r0
   1a57c:	746f546e 	strbtvc	r5, [pc], #-1134	; 1a584 <FromDevice+0xcc>
   1a580:	654c6c61 	strbvs	r6, [ip, #-3169]	; 0xfffff39f
   1a584:	6874676e 	ldmdavs	r4!, {r1, r2, r3, r5, r6, r8, r9, sl, sp, lr}^
   1a588:	203d3c20 	eorscs	r3, sp, r0, lsr #24
   1a58c:	5f58414d 	svcpl	0x0058414d
   1a590:	464e4f43 	strbmi	r4, [lr], -r3, asr #30
   1a594:	445f4749 	ldrbmi	r4, [pc], #-1865	; 1a59c <FromDevice+0xe4>
   1a598:	5f435345 	svcpl	0x00435345
   1a59c:	455a4953 	ldrbmi	r4, [sl, #-2387]	; 0xfffff6ad
   1a5a0:	00000000 	andeq	r0, r0, r0
   1a5a4:	69685470 	stmdbvs	r8!, {r4, r5, r6, sl, ip, lr}^
   1a5a8:	6d3e2d73 	ldcvs	13, cr2, [lr, #-460]!	; 0xfffffe34
   1a5ac:	6f43705f 	svcvs	0x0043705f
   1a5b0:	6769666e 	strbvs	r6, [r9, -lr, ror #12]!
   1a5b4:	63736544 	cmnvs	r3, #68, 10	; 0x11000000
   1a5b8:	203d2120 	eorscs	r2, sp, r0, lsr #2
   1a5bc:	00000030 	andeq	r0, r0, r0, lsr r0
   1a5c0:	69685470 	stmdbvs	r8!, {r4, r5, r6, sl, ip, lr}^
   1a5c4:	6d3e2d73 	ldcvs	13, cr2, [lr, #-460]!	; 0xfffffe34
   1a5c8:	6f43705f 	svcvs	0x0043705f
   1a5cc:	6769666e 	strbvs	r6, [r9, -lr, ror #12]!
   1a5d0:	73726150 	cmnvc	r2, #80, 2
   1a5d4:	21207265 	teqcs	r0, r5, ror #4
   1a5d8:	0030203d 	eorseq	r2, r0, sp, lsr r0
   1a5dc:	72745370 	rsbsvc	r5, r4, #112, 6	; 0xc0000001
   1a5e0:	20676e69 	rsbcs	r6, r7, r9, ror #28
   1a5e4:	30203d21 	eorcc	r3, r0, r1, lsr #26
   1a5e8:	00000000 	andeq	r0, r0, r0
   1a5ec:	256e6576 	strbcs	r6, [lr, #-1398]!	; 0xfffffa8a
   1a5f0:	78252d78 	stmdavc	r5!, {r3, r4, r5, r6, r8, sl, fp, sp}
   1a5f4:	00000000 	andeq	r0, r0, r0
   1a5f8:	25766564 	ldrbcs	r6, [r6, #-1380]!	; 0xfffffa9c
   1a5fc:	78252d78 	stmdavc	r5!, {r3, r4, r5, r6, r8, sl, fp, sp}
   1a600:	0078252d 	rsbseq	r2, r8, sp, lsr #10
   1a604:	6e6f4370 	mcrvs	3, 3, r4, cr15, cr0, {3}
   1a608:	20676966 	rsbcs	r6, r7, r6, ror #18
   1a60c:	30203d21 	eorcc	r3, r0, r1, lsr #26
   1a610:	00000000 	andeq	r0, r0, r0
   1a614:	25746e69 	ldrbcs	r6, [r4, #-3689]!	; 0xfffff197
   1a618:	78252d78 	stmdavc	r5!, {r3, r4, r5, r6, r8, sl, fp, sp}
   1a61c:	0078252d 	rsbseq	r2, r8, sp, lsr #10
   1a620:	6e6b6e75 	mcrvs	14, 3, r6, cr11, cr5, {3}
   1a624:	006e776f 	rsbeq	r7, lr, pc, ror #14
   1a628:	64416375 	strbvs	r6, [r1], #-885	; 0xfffffc8b
   1a62c:	73657264 	cmnvc	r5, #100, 4	; 0x40000006
   1a630:	3d3c2073 	ldccc	0, cr2, [ip, #-460]!	; 0xfffffe34
   1a634:	42535520 	subsmi	r5, r3, #32, 10	; 0x8000000
   1a638:	58414d5f 	stmdapl	r1, {r0, r1, r2, r3, r4, r6, r8, sl, fp, lr}^
   1a63c:	4444415f 	strbmi	r4, [r4], #-351	; 0xfffffea1
   1a640:	53534552 	cmppl	r3, #343932928	; 0x14800000
   1a644:	00000000 	andeq	r0, r0, r0
   1a648:	69685470 	stmdbvs	r8!, {r4, r5, r6, sl, ip, lr}^
   1a64c:	6d3e2d73 	ldcvs	13, cr2, [lr, #-460]!	; 0xfffffe34
   1a650:	6544705f 	strbvs	r7, [r4, #-95]	; 0xffffffa1
   1a654:	65636976 	strbvs	r6, [r3, #-2422]!	; 0xfffff68a
   1a658:	63736544 	cmnvs	r3, #68, 10	; 0x11000000
   1a65c:	203d3d20 	eorscs	r3, sp, r0, lsr #26
   1a660:	00000030 	andeq	r0, r0, r0, lsr r0
   1a664:	6e6e6143 	powvsem	f6, f6, f3
   1a668:	6720746f 	strvs	r7, [r0, -pc, ror #8]!
   1a66c:	64207465 	strtvs	r7, [r0], #-1125	; 0xfffffb9b
   1a670:	63697665 	cmnvs	r9, #105906176	; 0x6500000
   1a674:	65642065 	strbvs	r2, [r4, #-101]!	; 0xffffff9b
   1a678:	69726373 	ldmdbvs	r2!, {r0, r1, r4, r5, r6, r8, r9, sp, lr}^
   1a67c:	726f7470 	rsbvc	r7, pc, #112, 8	; 0x70000000
   1a680:	68732820 	ldmdavs	r3!, {r5, fp, sp}^
   1a684:	2974726f 	ldmdbcs	r4!, {r0, r1, r2, r3, r5, r6, r9, ip, sp, lr}^
   1a688:	00000000 	andeq	r0, r0, r0
   1a68c:	61766e49 	cmnvs	r6, r9, asr #28
   1a690:	2064696c 	rsbcs	r6, r4, ip, ror #18
   1a694:	69766564 	ldmdbvs	r6!, {r2, r5, r6, r8, sl, sp, lr}^
   1a698:	64206563 	strtvs	r6, [r0], #-1379	; 0xfffffa9d
   1a69c:	72637365 	rsbvc	r7, r3, #-1811939327	; 0x94000001
   1a6a0:	6f747069 	svcvs	0x00747069
   1a6a4:	00000072 	andeq	r0, r0, r2, ror r0
   1a6a8:	6e6e6143 	powvsem	f6, f6, f3
   1a6ac:	6720746f 	strvs	r7, [r0, -pc, ror #8]!
   1a6b0:	64207465 	strtvs	r7, [r0], #-1125	; 0xfffffb9b
   1a6b4:	63697665 	cmnvs	r9, #105906176	; 0x6500000
   1a6b8:	65642065 	strbvs	r2, [r4, #-101]!	; 0xffffff9b
   1a6bc:	69726373 	ldmdbvs	r2!, {r0, r1, r4, r5, r6, r8, r9, sp, lr}^
   1a6c0:	726f7470 	rsbvc	r7, pc, #112, 8	; 0x70000000
   1a6c4:	00000000 	andeq	r0, r0, r0
   1a6c8:	206f6f54 	rsbcs	r6, pc, r4, asr pc	; <UNPREDICTABLE>
   1a6cc:	796e616d 	stmdbvc	lr!, {r0, r2, r3, r5, r6, r8, sp, lr}^
   1a6d0:	76656420 	strbtvc	r6, [r5], -r0, lsr #8
   1a6d4:	73656369 	cmnvc	r5, #-1543503871	; 0xa4000001
   1a6d8:	00000000 	andeq	r0, r0, r0
   1a6dc:	6e6e6143 	powvsem	f6, f6, f3
   1a6e0:	7320746f 	teqvc	r0, #1862270976	; 0x6f000000
   1a6e4:	61207465 	teqvs	r0, r5, ror #8
   1a6e8:	65726464 	ldrbvs	r6, [r2, #-1124]!	; 0xfffffb9c
   1a6ec:	25207373 	strcs	r7, [r0, #-883]!	; 0xfffffc8d
   1a6f0:	00000075 	andeq	r0, r0, r5, ror r0
   1a6f4:	69685470 	stmdbvs	r8!, {r4, r5, r6, sl, ip, lr}^
   1a6f8:	6d3e2d73 	ldcvs	13, cr2, [lr, #-460]!	; 0xfffffe34
   1a6fc:	6f43705f 	svcvs	0x0043705f
   1a700:	6769666e 	strbvs	r6, [r9, -lr, ror #12]!
   1a704:	63736544 	cmnvs	r3, #68, 10	; 0x11000000
   1a708:	203d3d20 	eorscs	r3, sp, r0, lsr #26
   1a70c:	00000030 	andeq	r0, r0, r0, lsr r0
   1a710:	6e6e6143 	powvsem	f6, f6, f3
   1a714:	6720746f 	strvs	r7, [r0, -pc, ror #8]!
   1a718:	63207465 	teqvs	r0, #1694498816	; 0x65000000
   1a71c:	69666e6f 	stmdbvs	r6!, {r0, r1, r2, r3, r5, r6, r9, sl, fp, sp, lr}^
   1a720:	61727567 	cmnvs	r2, r7, ror #10
   1a724:	6e6f6974 	mcrvs	9, 3, r6, cr15, cr4, {3}
   1a728:	73656420 	cmnvc	r5, #32, 8	; 0x20000000
   1a72c:	70697263 	rsbvc	r7, r9, r3, ror #4
   1a730:	20726f74 	rsbscs	r6, r2, r4, ror pc
   1a734:	6f687328 	svcvs	0x00687328
   1a738:	00297472 	eoreq	r7, r9, r2, ror r4
   1a73c:	61766e49 	cmnvs	r6, r9, asr #28
   1a740:	2064696c 	rsbcs	r6, r4, ip, ror #18
   1a744:	666e6f63 	strbtvs	r6, [lr], -r3, ror #30
   1a748:	72756769 	rsbsvc	r6, r5, #27525120	; 0x1a40000
   1a74c:	6f697461 	svcvs	0x00697461
   1a750:	6564206e 	strbvs	r2, [r4, #-110]!	; 0xffffff92
   1a754:	69726373 	ldmdbvs	r2!, {r0, r1, r4, r5, r6, r8, r9, sp, lr}^
   1a758:	726f7470 	rsbvc	r7, pc, #112, 8	; 0x70000000
   1a75c:	00000000 	andeq	r0, r0, r0
   1a760:	6e6e6143 	powvsem	f6, f6, f3
   1a764:	6720746f 	strvs	r7, [r0, -pc, ror #8]!
   1a768:	63207465 	teqvs	r0, #1694498816	; 0x65000000
   1a76c:	69666e6f 	stmdbvs	r6!, {r0, r1, r2, r3, r5, r6, r9, sl, fp, sp, lr}^
   1a770:	61727567 	cmnvs	r2, r7, ror #10
   1a774:	6e6f6974 	mcrvs	9, 3, r6, cr15, cr4, {3}
   1a778:	73656420 	cmnvc	r5, #32, 8	; 0x20000000
   1a77c:	70697263 	rsbvc	r7, r9, r3, ror #4
   1a780:	00726f74 	rsbseq	r6, r2, r4, ror pc
   1a784:	69685470 	stmdbvs	r8!, {r4, r5, r6, sl, ip, lr}^
   1a788:	6d3e2d73 	ldcvs	13, cr2, [lr, #-460]!	; 0xfffffe34
   1a78c:	6f43705f 	svcvs	0x0043705f
   1a790:	6769666e 	strbvs	r6, [r9, -lr, ror #12]!
   1a794:	73726150 	cmnvc	r2, #80, 2
   1a798:	3d207265 	sfmcc	f7, 4, [r0, #-404]!	; 0xfffffe6c
   1a79c:	0030203d 	eorseq	r2, r0, sp, lsr r0
   1a7a0:	65627375 	strbvs	r7, [r2, #-885]!	; 0xfffffc8b
   1a7a4:	6f70646e 	svcvs	0x0070646e
   1a7a8:	2e746e69 	cdpcs	14, 7, cr6, cr4, cr9, {3}
   1a7ac:	00000063 	andeq	r0, r0, r3, rrx
   1a7b0:	73654470 	cmnvc	r5, #112, 8	; 0x70000000
   1a7b4:	623e2d63 	eorsvs	r2, lr, #6336	; 0x18c0
   1a7b8:	676e654c 	strbvs	r6, [lr, -ip, asr #10]!
   1a7bc:	3d206874 	stccc	8, cr6, [r0, #-464]!	; 0xfffffe30
   1a7c0:	6973203d 	ldmdbvs	r3!, {r0, r2, r3, r4, r5, sp}^
   1a7c4:	666f657a 			; <UNDEFINED> instruction: 0x666f657a
   1a7c8:	44702a20 	ldrbtmi	r2, [r0], #-2592	; 0xfffff5e0
   1a7cc:	00637365 	rsbeq	r7, r3, r5, ror #6
   1a7d0:	73654470 	cmnvc	r5, #112, 8	; 0x70000000
   1a7d4:	623e2d63 	eorsvs	r2, lr, #6336	; 0x18c0
   1a7d8:	63736544 	cmnvs	r3, #68, 10	; 0x11000000
   1a7dc:	74706972 	ldrbtvc	r6, [r0], #-2418	; 0xfffff68e
   1a7e0:	7954726f 	ldmdbvc	r4, {r0, r1, r2, r3, r5, r6, r9, ip, sp, lr}^
   1a7e4:	3d206570 	cfstr32cc	mvfx6, [r0, #-448]!	; 0xfffffe40
   1a7e8:	4544203d 	strbmi	r2, [r4, #-61]	; 0xffffffc3
   1a7ec:	49524353 	ldmdbmi	r2, {r0, r1, r4, r6, r8, r9, lr}^
   1a7f0:	524f5450 	subpl	r5, pc, #80, 8	; 0x50000000
   1a7f4:	444e455f 	strbmi	r4, [lr], #-1375	; 0xfffffaa1
   1a7f8:	4e494f50 	mcrmi	15, 2, r4, cr9, cr0, {2}
   1a7fc:	00000054 	andeq	r0, r0, r4, asr r0
   1a800:	646e4570 	strbtvs	r4, [lr], #-1392	; 0xfffffa90
   1a804:	6e696f70 	mcrvs	15, 3, r6, cr9, cr0, {3}
   1a808:	3d212074 	stccc	0, cr2, [r1, #-464]!	; 0xfffffe30
   1a80c:	00003020 	andeq	r3, r0, r0, lsr #32
   1a810:	69685470 	stmdbvs	r8!, {r4, r5, r6, sl, ip, lr}^
   1a814:	6d3e2d73 	ldcvs	13, cr2, [lr, #-460]!	; 0xfffffe34
   1a818:	7079545f 	rsbsvc	r5, r9, pc, asr r4
   1a81c:	3d3d2065 	ldccc	0, cr2, [sp, #-404]!	; 0xfffffe6c
   1a820:	646e4520 	strbtvs	r4, [lr], #-1312	; 0xfffffae0
   1a824:	6e696f70 	mcrvs	15, 3, r6, cr9, cr0, {3}
   1a828:	70795474 	rsbsvc	r5, r9, r4, ror r4
   1a82c:	746e4965 	strbtvc	r4, [lr], #-2405	; 0xfffff69b
   1a830:	75727265 	ldrbvc	r7, [r2, #-613]!	; 0xfffffd9b
   1a834:	00007470 	andeq	r7, r0, r0, ror r4
   1a838:	69685470 	stmdbvs	r8!, {r4, r5, r6, sl, ip, lr}^
   1a83c:	6d3e2d73 	ldcvs	13, cr2, [lr, #-460]!	; 0xfffffe34
   1a840:	7079545f 	rsbsvc	r5, r9, pc, asr r4
   1a844:	3d3d2065 	ldccc	0, cr2, [sp, #-404]!	; 0xfffffe6c
   1a848:	646e4520 	strbtvs	r4, [lr], #-1312	; 0xfffffae0
   1a84c:	6e696f70 	mcrvs	15, 3, r6, cr9, cr0, {3}
   1a850:	70795474 	rsbsvc	r5, r9, r4, ror r4
   1a854:	6e6f4365 	cdpvs	3, 6, cr4, cr15, cr5, {3}
   1a858:	6c6f7274 	sfmvs	f7, 2, [pc], #-464	; 1a690 <FromDevice+0x1d8>
   1a85c:	00000000 	andeq	r0, r0, r0
   1a860:	69685470 	stmdbvs	r8!, {r4, r5, r6, sl, ip, lr}^
   1a864:	6d3e2d73 	ldcvs	13, cr2, [lr, #-460]!	; 0xfffffe34
   1a868:	7079545f 	rsbsvc	r5, r9, pc, asr r4
   1a86c:	3d3d2065 	ldccc	0, cr2, [sp, #-404]!	; 0xfffffe6c
   1a870:	646e4520 	strbtvs	r4, [lr], #-1312	; 0xfffffae0
   1a874:	6e696f70 	mcrvs	15, 3, r6, cr9, cr0, {3}
   1a878:	70795474 	rsbsvc	r5, r9, r4, ror r4
   1a87c:	6e6f4365 	cdpvs	3, 6, cr4, cr15, cr5, {3}
   1a880:	6c6f7274 	sfmvs	f7, 2, [pc], #-464	; 1a6b8 <FromDevice+0x200>
   1a884:	207c7c20 	rsbscs	r7, ip, r0, lsr #24
   1a888:	69685470 	stmdbvs	r8!, {r4, r5, r6, sl, ip, lr}^
   1a88c:	6d3e2d73 	ldcvs	13, cr2, [lr, #-460]!	; 0xfffffe34
   1a890:	7079545f 	rsbsvc	r5, r9, pc, asr r4
   1a894:	3d3d2065 	ldccc	0, cr2, [sp, #-404]!	; 0xfffffe6c
   1a898:	646e4520 	strbtvs	r4, [lr], #-1312	; 0xfffffae0
   1a89c:	6e696f70 	mcrvs	15, 3, r6, cr9, cr0, {3}
   1a8a0:	70795474 	rsbsvc	r5, r9, r4, ror r4
   1a8a4:	6c754265 	lfmvs	f4, 2, [r5], #-404	; 0xfffffe6c
   1a8a8:	7c7c206b 	ldclvc	0, cr2, [ip], #-428	; 0xfffffe54
   1a8ac:	68547020 	ldmdavs	r4, {r5, ip, sp, lr}^
   1a8b0:	3e2d7369 	cdpcc	3, 2, cr7, cr13, cr9, {3}
   1a8b4:	79545f6d 	ldmdbvc	r4, {r0, r2, r3, r5, r6, r8, r9, sl, fp, ip, lr}^
   1a8b8:	3d206570 	cfstr32cc	mvfx6, [r0, #-448]!	; 0xfffffe40
   1a8bc:	6e45203d 	mcrvs	0, 2, r2, cr5, cr13, {1}
   1a8c0:	696f7064 	stmdbvs	pc!, {r2, r5, r6, ip, sp, lr}^	; <UNPREDICTABLE>
   1a8c4:	7954746e 	ldmdbvc	r4, {r1, r2, r3, r5, r6, sl, ip, sp, lr}^
   1a8c8:	6e496570 	mcrvs	5, 2, r6, cr9, cr0, {3}
   1a8cc:	72726574 	rsbsvc	r6, r2, #116, 10	; 0x1d000000
   1a8d0:	00747075 	rsbseq	r7, r4, r5, ror r0
   1a8d4:	69685470 	stmdbvs	r8!, {r4, r5, r6, sl, ip, lr}^
   1a8d8:	6d3e2d73 	ldcvs	13, cr2, [lr, #-460]!	; 0xfffffe34
   1a8dc:	7079545f 	rsbsvc	r5, r9, pc, asr r4
   1a8e0:	3d3d2065 	ldccc	0, cr2, [sp, #-404]!	; 0xfffffe6c
   1a8e4:	646e4520 	strbtvs	r4, [lr], #-1312	; 0xfffffae0
   1a8e8:	6e696f70 	mcrvs	15, 3, r6, cr9, cr0, {3}
   1a8ec:	70795474 	rsbsvc	r5, r9, r4, ror r4
   1a8f0:	6c754265 	lfmvs	f4, 2, [r5], #-404	; 0xfffffe6c
   1a8f4:	0000006b 	andeq	r0, r0, fp, rrx
   1a8f8:	72627375 	rsbvc	r7, r2, #-738197503	; 0xd4000001
   1a8fc:	65757165 	ldrbvs	r7, [r5, #-357]!	; 0xfffffe9b
   1a900:	632e7473 	teqvs	lr, #1929379840	; 0x73000000
   1a904:	00000000 	andeq	r0, r0, r0
   1a908:	69685470 	stmdbvs	r8!, {r4, r5, r6, sl, ip, lr}^
   1a90c:	6d3e2d73 	ldcvs	13, cr2, [lr, #-460]!	; 0xfffffe34
   1a910:	7542705f 	strbvc	r7, [r2, #-95]	; 0xffffffa1
   1a914:	72656666 	rsbvc	r6, r5, #106954752	; 0x6600000
   1a918:	203d2120 	eorscs	r2, sp, r0, lsr #2
   1a91c:	7c7c2030 	ldclvc	0, cr2, [ip], #-192	; 0xffffff40
   1a920:	68547020 	ldmdavs	r4, {r5, ip, sp, lr}^
   1a924:	3e2d7369 	cdpcc	3, 2, cr7, cr13, cr9, {3}
   1a928:	426e5f6d 	rsbmi	r5, lr, #436	; 0x1b4
   1a92c:	654c6675 	strbvs	r6, [ip, #-1653]	; 0xfffff98b
   1a930:	3d3d206e 	ldccc	0, cr2, [sp, #-440]!	; 0xfffffe48
   1a934:	00003020 	andeq	r3, r0, r0, lsr #32
   1a938:	69685470 	stmdbvs	r8!, {r4, r5, r6, sl, ip, lr}^
   1a93c:	6d3e2d73 	ldcvs	13, cr2, [lr, #-460]!	; 0xfffffe34
   1a940:	7453625f 	ldrbvc	r6, [r3], #-607	; 0xfffffda1
   1a944:	73757461 	cmnvc	r5, #1627389952	; 0x61000000
   1a948:	00000000 	andeq	r0, r0, r0
   1a94c:	45425355 	strbmi	r5, [r2, #-853]	; 0xfffffcab
   1a950:	6f70646e 	svcvs	0x0070646e
   1a954:	47746e69 	ldrbmi	r6, [r4, -r9, ror #28]!
   1a958:	79547465 	ldmdbvc	r4, {r0, r2, r5, r6, sl, ip, sp, lr}^
   1a95c:	28206570 	stmdacs	r0!, {r4, r5, r6, r8, sl, sp, lr}
   1a960:	69685470 	stmdbvs	r8!, {r4, r5, r6, sl, ip, lr}^
   1a964:	6d3e2d73 	ldcvs	13, cr2, [lr, #-460]!	; 0xfffffe34
   1a968:	6e45705f 	mcrvs	0, 2, r7, cr5, cr15, {2}
   1a96c:	696f7064 	stmdbvs	pc!, {r2, r5, r6, ip, sp, lr}^	; <UNPREDICTABLE>
   1a970:	2029746e 	eorcs	r7, r9, lr, ror #8
   1a974:	45203d3d 	strmi	r3, [r0, #-3389]!	; 0xfffff2c3
   1a978:	6f70646e 	svcvs	0x0070646e
   1a97c:	54746e69 	ldrbtpl	r6, [r4], #-3689	; 0xfffff197
   1a980:	43657079 	cmnmi	r5, #121	; 0x79
   1a984:	72746e6f 	rsbsvc	r6, r4, #1776	; 0x6f0
   1a988:	00006c6f 	andeq	r6, r0, pc, ror #24
   1a98c:	69685470 	stmdbvs	r8!, {r4, r5, r6, sl, ip, lr}^
   1a990:	6d3e2d73 	ldcvs	13, cr2, [lr, #-460]!	; 0xfffffe34
   1a994:	6553705f 	ldrbvs	r7, [r3, #-95]	; 0xffffffa1
   1a998:	44707574 	ldrbtmi	r7, [r0], #-1396	; 0xfffffa8c
   1a99c:	20617461 	rsbcs	r7, r1, r1, ror #8
   1a9a0:	30203d21 	eorcc	r3, r0, r1, lsr #26
   1a9a4:	00000000 	andeq	r0, r0, r0
   1a9a8:	69685470 	stmdbvs	r8!, {r4, r5, r6, sl, ip, lr}^
   1a9ac:	6d3e2d73 	ldcvs	13, cr2, [lr, #-460]!	; 0xfffffe34
   1a9b0:	6f43705f 	svcvs	0x0043705f
   1a9b4:	656c706d 	strbvs	r7, [ip, #-109]!	; 0xffffff93
   1a9b8:	6e6f6974 	mcrvs	9, 3, r6, cr15, cr4, {3}
   1a9bc:	74756f52 	ldrbtvc	r6, [r5], #-3922	; 0xfffff0ae
   1a9c0:	20656e69 	rsbcs	r6, r5, r9, ror #28
   1a9c4:	30203d21 	eorcc	r3, r0, r1, lsr #26
   1a9c8:	00000000 	andeq	r0, r0, r0
   1a9cc:	69766564 	ldmdbvs	r6!, {r2, r5, r6, r8, sl, sp, lr}^
   1a9d0:	616e6563 	cmnvs	lr, r3, ror #10
   1a9d4:	6573656d 	ldrbvs	r6, [r3, #-1389]!	; 0xfffffa93
   1a9d8:	63697672 	cmnvs	r9, #119537664	; 0x7200000
   1a9dc:	00632e65 	rsbeq	r2, r3, r5, ror #28
   1a9e0:	54705f73 	ldrbtpl	r5, [r0], #-3955	; 0xfffff08d
   1a9e4:	20736968 	rsbscs	r6, r3, r8, ror #18
   1a9e8:	30203d3d 	eorcc	r3, r0, sp, lsr sp
   1a9ec:	00000000 	andeq	r0, r0, r0
   1a9f0:	69685470 	stmdbvs	r8!, {r4, r5, r6, sl, ip, lr}^
   1a9f4:	6d3e2d73 	ldcvs	13, cr2, [lr, #-460]!	; 0xfffffe34
   1a9f8:	694c705f 	stmdbvs	ip, {r0, r1, r2, r3, r4, r6, ip, sp, lr}^
   1a9fc:	3e2d7473 	mcrcc	4, 1, r7, cr13, cr3, {3}
   1aa00:	6d614e70 	stclvs	14, cr4, [r1, #-448]!	; 0xfffffe40
   1aa04:	3d212065 	stccc	0, cr2, [r1, #-404]!	; 0xfffffe6c
   1aa08:	00003020 	andeq	r3, r0, r0, lsr #32
   1aa0c:	666e4970 			; <UNDEFINED> instruction: 0x666e4970
   1aa10:	703e2d6f 	eorsvc	r2, lr, pc, ror #26
   1aa14:	656d614e 	strbvs	r6, [sp, #-334]!	; 0xfffffeb2
   1aa18:	203d2120 	eorscs	r2, sp, r0, lsr #2
   1aa1c:	00000030 	andeq	r0, r0, r0, lsr r0
   1aa20:	666e4970 			; <UNDEFINED> instruction: 0x666e4970
   1aa24:	703e2d6f 	eorsvc	r2, lr, pc, ror #26
   1aa28:	69766544 	ldmdbvs	r6!, {r2, r6, r8, sl, sp, lr}^
   1aa2c:	21206563 	teqcs	r0, r3, ror #10
   1aa30:	0030203d 	eorseq	r2, r0, sp, lsr r0
   1aa34:	54705f73 	ldrbtpl	r5, [r0], #-3955	; 0xfffff08d
   1aa38:	20736968 	rsbscs	r6, r3, r8, ror #18
   1aa3c:	30203d21 	eorcc	r3, r0, r1, lsr #26
   1aa40:	00000000 	andeq	r0, r0, r0
   1aa44:	6163616d 	cmnvs	r3, sp, ror #2
   1aa48:	65726464 	ldrbvs	r6, [r2, #-1124]!	; 0xfffffb9c
   1aa4c:	632e7373 	teqvs	lr, #-872415231	; 0xcc000001
   1aa50:	00000000 	andeq	r0, r0, r0
   1aa54:	64644170 	strbtvs	r4, [r4], #-368	; 0xfffffe90
   1aa58:	73736572 	cmnvc	r3, #478150656	; 0x1c800000
   1aa5c:	203d2120 	eorscs	r2, sp, r0, lsr #2
   1aa60:	00000030 	andeq	r0, r0, r0, lsr r0
   1aa64:	58323025 	ldmdapl	r2!, {r0, r2, r5, ip, sp}
   1aa68:	3230253a 	eorscc	r2, r0, #243269632	; 0xe800000
   1aa6c:	30253a58 	eorcc	r3, r5, r8, asr sl
   1aa70:	253a5832 	ldrcs	r5, [sl, #-2098]!	; 0xfffff7ce
   1aa74:	3a583230 	bcc	162733c <_end+0x160a280>
   1aa78:	58323025 	ldmdapl	r2!, {r0, r2, r5, ip, sp}
   1aa7c:	3230253a 	eorscc	r2, r0, #243269632	; 0xe800000
   1aa80:	00000058 	andeq	r0, r0, r8, asr r0

0001aa84 <FromSMSC951x>:
   1aa84:	63736d73 	cmnvs	r3, #7360	; 0x1cc0
   1aa88:	78313539 	ldmdavc	r1!, {r0, r3, r4, r5, r8, sl, ip, sp}
   1aa8c:	00000000 	andeq	r0, r0, r0
   1aa90:	63736d73 	cmnvs	r3, #7360	; 0x1cc0
   1aa94:	78313539 	ldmdavc	r1!, {r0, r3, r4, r5, r8, sl, ip, sp}
   1aa98:	0000632e 	andeq	r6, r0, lr, lsr #6
   1aa9c:	69685470 	stmdbvs	r8!, {r4, r5, r6, sl, ip, lr}^
   1aaa0:	6d3e2d73 	ldcvs	13, cr2, [lr, #-460]!	; 0xfffffe34
   1aaa4:	7854705f 	ldmdavc	r4, {r0, r1, r2, r3, r4, r6, ip, sp, lr}^
   1aaa8:	66667542 	strbtvs	r7, [r6], -r2, asr #10
   1aaac:	21207265 	teqcs	r0, r5, ror #4
   1aab0:	0030203d 	eorseq	r2, r0, sp, lsr r0
   1aab4:	69685470 	stmdbvs	r8!, {r4, r5, r6, sl, ip, lr}^
   1aab8:	6d3e2d73 	ldcvs	13, cr2, [lr, #-460]!	; 0xfffffe34
   1aabc:	6e45705f 	mcrvs	0, 2, r7, cr5, cr15, {2}
   1aac0:	696f7064 	stmdbvs	pc!, {r2, r5, r6, ip, sp, lr}^	; <UNPREDICTABLE>
   1aac4:	7542746e 	strbvc	r7, [r2, #-1134]	; 0xfffffb92
   1aac8:	754f6b6c 	strbvc	r6, [pc, #-2924]	; 19f64 <FromDWHCI+0x288>
   1aacc:	3d212074 	stccc	0, cr2, [r1, #-464]!	; 0xfffffe30
   1aad0:	00003020 	andeq	r3, r0, r0, lsr #32
   1aad4:	69685470 	stmdbvs	r8!, {r4, r5, r6, sl, ip, lr}^
   1aad8:	6d3e2d73 	ldcvs	13, cr2, [lr, #-460]!	; 0xfffffe34
   1aadc:	6e45705f 	mcrvs	0, 2, r7, cr5, cr15, {2}
   1aae0:	696f7064 	stmdbvs	pc!, {r2, r5, r6, ip, sp, lr}^	; <UNPREDICTABLE>
   1aae4:	7542746e 	strbvc	r7, [r2, #-1134]	; 0xfffffb92
   1aae8:	6e496b6c 	vmlsvs.f64	d22, d9, d28
   1aaec:	203d2120 	eorscs	r2, sp, r0, lsr #2
   1aaf0:	00000030 	andeq	r0, r0, r0, lsr r0
   1aaf4:	65205852 	strvs	r5, [r0, #-2130]!	; 0xfffff7ae
   1aaf8:	726f7272 	rsbvc	r7, pc, #536870919	; 0x20000007
   1aafc:	74732820 	ldrbtvc	r2, [r3], #-2080	; 0xfffff7e0
   1ab00:	73757461 	cmnvc	r5, #1627389952	; 0x61000000
   1ab04:	25783020 	ldrbcs	r3, [r8, #-32]!	; 0xffffffe0
   1ab08:	00002958 	andeq	r2, r0, r8, asr r9
   1ab0c:	6172466e 	cmnvs	r2, lr, ror #12
   1ab10:	654c656d 	strbvs	r6, [ip, #-1389]	; 0xfffffa93
   1ab14:	6874676e 	ldmdavs	r4!, {r1, r2, r3, r5, r6, r8, r9, sl, sp, lr}^
   1ab18:	203d3d20 	eorscs	r3, sp, r0, lsr #26
   1ab1c:	7365526e 	cmnvc	r5, #-536870906	; 0xe0000006
   1ab20:	4c746c75 	ldclmi	12, cr6, [r4], #-468	; 0xfffffe2c
   1ab24:	74676e65 	strbtvc	r6, [r7], #-3685	; 0xfffff19b
   1ab28:	00342d68 	eorseq	r2, r4, r8, ror #26
   1ab2c:	6172466e 	cmnvs	r2, lr, ror #12
   1ab30:	654c656d 	strbvs	r6, [ip, #-1389]	; 0xfffffa93
   1ab34:	6874676e 	ldmdavs	r4!, {r1, r2, r3, r5, r6, r8, r9, sl, sp, lr}^
   1ab38:	34203e20 	strtcc	r3, [r0], #-3616	; 0xfffff1e0
   1ab3c:	00000000 	andeq	r0, r0, r0
   1ab40:	73655270 	cmnvc	r5, #112, 4
   1ab44:	4c746c75 	ldclmi	12, cr6, [r4], #-468	; 0xfffffe2c
   1ab48:	74676e65 	strbtvc	r6, [r7], #-3685	; 0xfffff19b
   1ab4c:	3d212068 	stccc	0, cr2, [r1, #-416]!	; 0xfffffe60
   1ab50:	00003020 	andeq	r3, r0, r0, lsr #32
   1ab54:	2043414d 	subcs	r4, r3, sp, asr #2
   1ab58:	72646461 	rsbvc	r6, r4, #1627389952	; 0x61000000
   1ab5c:	20737365 	rsbscs	r7, r3, r5, ror #6
   1ab60:	25207369 	strcs	r7, [r0, #-873]!	; 0xfffffc97
   1ab64:	00000073 	andeq	r0, r0, r3, ror r0
   1ab68:	6e6e6143 	powvsem	f6, f6, f3
   1ab6c:	6720746f 	strvs	r7, [r0, -pc, ror #8]!
   1ab70:	4d207465 	cfstrsmi	mvf7, [r0, #-404]!	; 0xfffffe6c
   1ab74:	61204341 	teqvs	r0, r1, asr #6
   1ab78:	65726464 	ldrbvs	r6, [r2, #-1124]!	; 0xfffffb9c
   1ab7c:	00007373 	andeq	r7, r0, r3, ror r3
   1ab80:	69685470 	stmdbvs	r8!, {r4, r5, r6, sl, ip, lr}^
   1ab84:	6d3e2d73 	ldcvs	13, cr2, [lr, #-460]!	; 0xfffffe34
   1ab88:	6e45705f 	mcrvs	0, 2, r7, cr5, cr15, {2}
   1ab8c:	696f7064 	stmdbvs	pc!, {r2, r5, r6, ip, sp, lr}^	; <UNPREDICTABLE>
   1ab90:	7542746e 	strbvc	r7, [r2, #-1134]	; 0xfffffb92
   1ab94:	6e496b6c 	vmlsvs.f64	d22, d9, d28
   1ab98:	00000000 	andeq	r0, r0, r0
   1ab9c:	69685470 	stmdbvs	r8!, {r4, r5, r6, sl, ip, lr}^
   1aba0:	6d3e2d73 	ldcvs	13, cr2, [lr, #-460]!	; 0xfffffe34
   1aba4:	6e45705f 	mcrvs	0, 2, r7, cr5, cr15, {2}
   1aba8:	696f7064 	stmdbvs	pc!, {r2, r5, r6, ip, sp, lr}^	; <UNPREDICTABLE>
   1abac:	7542746e 	strbvc	r7, [r2, #-1134]	; 0xfffffb92
   1abb0:	754f6b6c 	strbvc	r6, [pc, #-2924]	; 1a04c <FromDWHCI+0x370>
   1abb4:	00000074 	andeq	r0, r0, r4, ror r0
   1abb8:	6e6e6143 	powvsem	f6, f6, f3
   1abbc:	7320746f 	teqvc	r0, #1862270976	; 0x6f000000
   1abc0:	63207465 	teqvs	r0, #1694498816	; 0x65000000
   1abc4:	69666e6f 	stmdbvs	r6!, {r0, r1, r2, r3, r5, r6, r9, sl, fp, sp, lr}^
   1abc8:	61727567 	cmnvs	r2, r7, ror #10
   1abcc:	6e6f6974 	mcrvs	9, 3, r6, cr15, cr4, {3}
   1abd0:	00000000 	andeq	r0, r0, r0
   1abd4:	6e6e6143 	powvsem	f6, f6, f3
   1abd8:	7320746f 	teqvc	r0, #1862270976	; 0x6f000000
   1abdc:	4d207465 	cfstrsmi	mvf7, [r0, #-404]!	; 0xfffffe6c
   1abe0:	61204341 	teqvs	r0, r1, asr #6
   1abe4:	65726464 	ldrbvs	r6, [r2, #-1124]!	; 0xfffffb9c
   1abe8:	00007373 	andeq	r7, r0, r3, ror r3
   1abec:	6e6e6143 	powvsem	f6, f6, f3
   1abf0:	7320746f 	teqvc	r0, #1862270976	; 0x6f000000
   1abf4:	74726174 	ldrbtvc	r6, [r2], #-372	; 0xfffffe8c
   1abf8:	76656420 	strbtvc	r6, [r5], -r0, lsr #8
   1abfc:	00656369 	rsbeq	r6, r5, r9, ror #6
   1ac00:	25687465 	strbcs	r7, [r8, #-1125]!	; 0xfffffb9b
   1ac04:	00000075 	andeq	r0, r0, r5, ror r0
   1ac08:	6e6e6143 	powvsem	f6, f6, f3
   1ac0c:	7220746f 	eorvc	r7, r0, #1862270976	; 0x6f000000
   1ac10:	20646165 	rsbcs	r6, r4, r5, ror #2
   1ac14:	69676572 	stmdbvs	r7!, {r1, r4, r5, r6, r8, sl, sp, lr}^
   1ac18:	72657473 	rsbvc	r7, r5, #1929379840	; 0x73000000
   1ac1c:	25783020 	ldrbcs	r3, [r8, #-32]!	; 0xffffffe0
   1ac20:	00000058 	andeq	r0, r0, r8, asr r0
   1ac24:	58383025 	ldmdapl	r8!, {r0, r2, r5, ip, sp}
   1ac28:	00732520 	rsbseq	r2, r3, r0, lsr #10
   1ac2c:	525f4449 	subspl	r4, pc, #1224736768	; 0x49000000
   1ac30:	00005645 	andeq	r5, r0, r5, asr #12
   1ac34:	5f544e49 	svcpl	0x00544e49
   1ac38:	00535453 	subseq	r5, r3, r3, asr r4
   1ac3c:	435f5852 	cmpmi	pc, #5373952	; 0x520000
   1ac40:	00004746 	andeq	r4, r0, r6, asr #14
   1ac44:	435f5854 	cmpmi	pc, #84, 16	; 0x540000
   1ac48:	00004746 	andeq	r4, r0, r6, asr #14
   1ac4c:	435f5748 	cmpmi	pc, #72, 14	; 0x1200000
   1ac50:	00004746 	andeq	r4, r0, r6, asr #14
   1ac54:	465f5852 			; <UNDEFINED> instruction: 0x465f5852
   1ac58:	5f4f4649 	svcpl	0x004f4649
   1ac5c:	00464e49 	subeq	r4, r6, r9, asr #28
   1ac60:	435f4d50 	cmpmi	pc, #80, 26	; 0x1400
   1ac64:	004c5254 	subeq	r5, ip, r4, asr r2
   1ac68:	5f44454c 	svcpl	0x0044454c
   1ac6c:	4f495047 	svcmi	0x00495047
   1ac70:	4746435f 	smlsldmi	r4, r6, pc, r3	; <UNPREDICTABLE>
   1ac74:	00000000 	andeq	r0, r0, r0
   1ac78:	5f434641 	svcpl	0x00434641
   1ac7c:	00474643 	subeq	r4, r7, r3, asr #12
   1ac80:	53525542 	cmppl	r2, #276824064	; 0x10800000
   1ac84:	41435f54 	cmpmi	r3, r4, asr pc
   1ac88:	00000050 	andeq	r0, r0, r0, asr r0
   1ac8c:	5f544e49 	svcpl	0x00544e49
   1ac90:	435f5045 	cmpmi	pc, #69	; 0x45
   1ac94:	00004c54 	andeq	r4, r0, r4, asr ip
   1ac98:	4b4c5542 	blmi	13301a8 <_end+0x13130ec>
   1ac9c:	5f4e495f 	svcpl	0x004e495f
   1aca0:	00594c44 	subseq	r4, r9, r4, asr #24
   1aca4:	5f43414d 	svcpl	0x0043414d
   1aca8:	00005243 	andeq	r5, r0, r3, asr #4
   1acac:	52444441 	subpl	r4, r4, #1090519040	; 0x41000000
   1acb0:	00000048 	andeq	r0, r0, r8, asr #32
   1acb4:	52444441 	subpl	r4, r4, #1090519040	; 0x41000000
   1acb8:	0000004c 	andeq	r0, r0, ip, asr #32
   1acbc:	48534148 	ldmdami	r3, {r3, r6, r8, lr}^
   1acc0:	00000048 	andeq	r0, r0, r8, asr #32
   1acc4:	48534148 	ldmdami	r3, {r3, r6, r8, lr}^
   1acc8:	0000004c 	andeq	r0, r0, ip, asr #32
   1accc:	574f4c46 	strbpl	r4, [pc, -r6, asr #24]
   1acd0:	00000000 	andeq	r0, r0, r0
   1acd4:	53435557 	movtpl	r5, #13655	; 0x3557
   1acd8:	00000052 	andeq	r0, r0, r2, asr r0
   1acdc:	69727473 	ldmdbvs	r2!, {r0, r1, r4, r5, r6, sl, ip, sp, lr}^
   1ace0:	632e676e 	teqvs	lr, #28835840	; 0x1b80000
   1ace4:	00000000 	andeq	r0, r0, r0

0001ace8 <FromUmsd>:
   1ace8:	64736d75 	ldrbtvs	r6, [r3], #-3445	; 0xfffff28b
   1acec:	00000000 	andeq	r0, r0, r0
   1acf0:	6d627375 	stclvs	3, cr7, [r2, #-468]!	; 0xfffffe2c
   1acf4:	64737361 	ldrbtvs	r7, [r3], #-865	; 0xfffffc9f
   1acf8:	63697665 	cmnvs	r9, #105906176	; 0x6500000
   1acfc:	00632e65 	rsbeq	r2, r3, r5, ror #28
   1ad00:	646d4370 	strbtvs	r4, [sp], #-880	; 0xfffffc90
   1ad04:	206b6c42 	rsbcs	r6, fp, r2, asr #24
   1ad08:	30203d21 	eorcc	r3, r0, r1, lsr #26
   1ad0c:	00000000 	andeq	r0, r0, r0
   1ad10:	3d3c2036 	ldccc	0, cr2, [ip, #-216]!	; 0xffffff28
   1ad14:	6d436e20 	stclvs	14, cr6, [r3, #-128]	; 0xffffff80
   1ad18:	6b6c4264 	blvs	1b2b6b0 <_end+0x1b0e5f4>
   1ad1c:	206e654c 	rsbcs	r6, lr, ip, asr #10
   1ad20:	6e202626 	cfmadda32vs	mvax1, mvax2, mvfx0, mvfx6
   1ad24:	42646d43 	rsbmi	r6, r4, #4288	; 0x10c0
   1ad28:	654c6b6c 	strbvs	r6, [ip, #-2924]	; 0xfffff494
   1ad2c:	3d3c206e 	ldccc	0, cr2, [ip, #-440]!	; 0xfffffe48
   1ad30:	00363120 	eorseq	r3, r6, r0, lsr #2
   1ad34:	6675426e 	ldrbtvs	r4, [r5], -lr, ror #4
   1ad38:	206e654c 	rsbcs	r6, lr, ip, asr #10
   1ad3c:	30203d3d 	eorcc	r3, r0, sp, lsr sp
   1ad40:	207c7c20 	rsbscs	r7, ip, r0, lsr #24
   1ad44:	66754270 			; <UNDEFINED> instruction: 0x66754270
   1ad48:	20726566 	rsbscs	r6, r2, r6, ror #10
   1ad4c:	30203d21 	eorcc	r3, r0, r1, lsr #26
   1ad50:	00000000 	andeq	r0, r0, r0
   1ad54:	736f4870 	cmnvc	pc, #112, 16	; 0x700000
   1ad58:	3d212074 	stccc	0, cr2, [r1, #-464]!	; 0xfffffe30
   1ad5c:	00003020 	andeq	r3, r0, r0, lsr #32
   1ad60:	20574243 	subscs	r4, r7, r3, asr #4
   1ad64:	6e617274 	mcrvs	2, 3, r7, cr1, cr4, {3}
   1ad68:	72656673 	rsbvc	r6, r5, #120586240	; 0x7300000
   1ad6c:	69616620 	stmdbvs	r1!, {r5, r9, sl, sp, lr}^
   1ad70:	0064656c 	rsbeq	r6, r4, ip, ror #10
   1ad74:	61746144 	cmnvs	r4, r4, asr #2
   1ad78:	61727420 	cmnvs	r2, r0, lsr #8
   1ad7c:	6566736e 	strbvs	r7, [r6, #-878]!	; 0xfffffc92
   1ad80:	61662072 	smcvs	25090	; 0x6202
   1ad84:	64656c69 	strbtvs	r6, [r5], #-3177	; 0xfffff397
   1ad88:	00000000 	andeq	r0, r0, r0
   1ad8c:	20575343 	subscs	r5, r7, r3, asr #6
   1ad90:	6e617274 	mcrvs	2, 3, r7, cr1, cr4, {3}
   1ad94:	72656673 	rsbvc	r6, r5, #120586240	; 0x7300000
   1ad98:	69616620 	stmdbvs	r1!, {r5, r9, sl, sp, lr}^
   1ad9c:	0064656c 	rsbeq	r6, r4, ip, ror #10
   1ada0:	20575343 	subscs	r5, r7, r3, asr #6
   1ada4:	6e676973 	mcrvs	9, 3, r6, cr7, cr3, {3}
   1ada8:	72757461 	rsbsvc	r7, r5, #1627389952	; 0x61000000
   1adac:	73692065 	cmnvc	r9, #101	; 0x65
   1adb0:	6f727720 	svcvs	0x00727720
   1adb4:	0000676e 	andeq	r6, r0, lr, ror #14
   1adb8:	20575343 	subscs	r5, r7, r3, asr #6
   1adbc:	20676174 	rsbcs	r6, r7, r4, ror r1
   1adc0:	77207369 	strvc	r7, [r0, -r9, ror #6]!
   1adc4:	676e6f72 			; <UNDEFINED> instruction: 0x676e6f72
   1adc8:	00000000 	andeq	r0, r0, r0
   1adcc:	61746144 	cmnvs	r4, r4, asr #2
   1add0:	73657220 	cmnvc	r5, #32, 4
   1add4:	65756469 	ldrbvs	r6, [r5, #-1129]!	; 0xfffffb97
   1add8:	20736920 	rsbscs	r6, r3, r0, lsr #18
   1addc:	20746f6e 	rsbscs	r6, r4, lr, ror #30
   1ade0:	00000030 	andeq	r0, r0, r0, lsr r0
   1ade4:	69685470 	stmdbvs	r8!, {r4, r5, r6, sl, ip, lr}^
   1ade8:	6d3e2d73 	ldcvs	13, cr2, [lr, #-460]!	; 0xfffffe34
   1adec:	6e45705f 	mcrvs	0, 2, r7, cr5, cr15, {2}
   1adf0:	696f7064 	stmdbvs	pc!, {r2, r5, r6, ip, sp, lr}^	; <UNPREDICTABLE>
   1adf4:	6e49746e 	cdpvs	4, 4, cr7, cr9, cr14, {3}
   1adf8:	203d2120 	eorscs	r2, sp, r0, lsr #2
   1adfc:	00000030 	andeq	r0, r0, r0, lsr r0
   1ae00:	69685470 	stmdbvs	r8!, {r4, r5, r6, sl, ip, lr}^
   1ae04:	6d3e2d73 	ldcvs	13, cr2, [lr, #-460]!	; 0xfffffe34
   1ae08:	6e45705f 	mcrvs	0, 2, r7, cr5, cr15, {2}
   1ae0c:	696f7064 	stmdbvs	pc!, {r2, r5, r6, ip, sp, lr}^	; <UNPREDICTABLE>
   1ae10:	754f746e 	strbvc	r7, [pc, #-1134]	; 1a9aa <FromDevice+0x4f2>
   1ae14:	3d212074 	stccc	0, cr2, [r1, #-464]!	; 0xfffffe30
   1ae18:	00003020 	andeq	r3, r0, r0, lsr #32
   1ae1c:	69766544 	ldmdbvs	r6!, {r2, r6, r8, sl, sp, lr}^
   1ae20:	64206563 	strtvs	r6, [r0], #-1379	; 0xfffffa9d
   1ae24:	2073656f 	rsbscs	r6, r3, pc, ror #10
   1ae28:	20746f6e 	rsbscs	r6, r4, lr, ror #30
   1ae2c:	70736572 	rsbsvc	r6, r3, r2, ror r5
   1ae30:	00646e6f 	rsbeq	r6, r4, pc, ror #28
   1ae34:	75736e55 	ldrbvc	r6, [r3, #-3669]!	; 0xfffff1ab
   1ae38:	726f7070 	rsbvc	r7, pc, #112	; 0x70
   1ae3c:	20646574 	rsbcs	r6, r4, r4, ror r5
   1ae40:	69766564 	ldmdbvs	r6!, {r2, r5, r6, r8, sl, sp, lr}^
   1ae44:	74206563 	strtvc	r6, [r0], #-1379	; 0xfffffa9d
   1ae48:	3a657079 	bcc	1977034 <_end+0x1959f78>
   1ae4c:	25783020 	ldrbcs	r3, [r8, #-32]!	; 0xffffffe0
   1ae50:	00583230 	subseq	r3, r8, r0, lsr r2
   1ae54:	75716552 	ldrbvc	r6, [r1, #-1362]!	; 0xfffffaae
   1ae58:	20747365 	rsbscs	r7, r4, r5, ror #6
   1ae5c:	736e6573 	cmnvc	lr, #482344960	; 0x1cc00000
   1ae60:	61662065 	cmnvs	r6, r5, rrx
   1ae64:	64656c69 	strbtvs	r6, [r5], #-3177	; 0xfffff397
   1ae68:	00000000 	andeq	r0, r0, r0
   1ae6c:	74696e55 	strbtvc	r6, [r9], #-3669	; 0xfffff1ab
   1ae70:	20736920 	rsbscs	r6, r3, r0, lsr #18
   1ae74:	20746f6e 	rsbscs	r6, r4, lr, ror #30
   1ae78:	64616572 	strbtvs	r6, [r1], #-1394	; 0xfffffa8e
   1ae7c:	00000079 	andeq	r0, r0, r9, ror r0
   1ae80:	64616552 	strbtvs	r6, [r1], #-1362	; 0xfffffaae
   1ae84:	70616320 	rsbvc	r6, r1, r0, lsr #6
   1ae88:	74696361 	strbtvc	r6, [r9], #-865	; 0xfffffc9f
   1ae8c:	61662079 	smcvs	25097	; 0x6209
   1ae90:	64656c69 	strbtvs	r6, [r5], #-3177	; 0xfffff397
   1ae94:	00000000 	andeq	r0, r0, r0
   1ae98:	75736e55 	ldrbvc	r6, [r3, #-3669]!	; 0xfffff1ab
   1ae9c:	726f7070 	rsbvc	r7, pc, #112	; 0x70
   1aea0:	20646574 	rsbcs	r6, r4, r4, ror r5
   1aea4:	636f6c62 	cmnvs	pc, #25088	; 0x6200
   1aea8:	6973206b 	ldmdbvs	r3!, {r0, r1, r3, r5, r6, sp}^
   1aeac:	203a657a 	eorscs	r6, sl, sl, ror r5
   1aeb0:	00007525 	andeq	r7, r0, r5, lsr #10
   1aeb4:	75736e55 	ldrbvc	r6, [r3, #-3669]!	; 0xfffff1ab
   1aeb8:	726f7070 	rsbvc	r7, pc, #112	; 0x70
   1aebc:	20646574 	rsbcs	r6, r4, r4, ror r5
   1aec0:	6b736964 	blvs	1cf5458 <_end+0x1cd839c>
   1aec4:	7a697320 	bvc	1a77b4c <_end+0x1a5aa90>
   1aec8:	203e2065 	eorscs	r2, lr, r5, rrx
   1aecc:	00425432 	subeq	r5, r2, r2, lsr r4
   1aed0:	61706143 	cmnvs	r0, r3, asr #2
   1aed4:	79746963 	ldmdbvc	r4!, {r0, r1, r5, r6, r8, fp, sp, lr}^
   1aed8:	20736920 	rsbscs	r6, r3, r0, lsr #18
   1aedc:	4d207525 	cfstr32mi	mvfx7, [r0, #-148]!	; 0xffffff6c
   1aee0:	65747942 	ldrbvs	r7, [r4, #-2370]!	; 0xfffff6be
   1aee4:	00000000 	andeq	r0, r0, r0
   1aee8:	52797254 	rsbspl	r7, r9, #84, 4	; 0x40000005
   1aeec:	20646165 	rsbcs	r6, r4, r5, ror #2
   1aef0:	6c696166 	stfvse	f6, [r9], #-408	; 0xfffffe68
   1aef4:	00006465 	andeq	r6, r0, r5, ror #8
   1aef8:	57797254 			; <UNDEFINED> instruction: 0x57797254
   1aefc:	65746972 	ldrbvs	r6, [r4, #-2418]!	; 0xfffff68e
   1af00:	69616620 	stmdbvs	r1!, {r5, r9, sl, sp, lr}^
   1af04:	0064656c 	rsbeq	r6, r4, ip, ror #10
   1af08:	6e6e6143 	powvsem	f6, f6, f3
   1af0c:	7220746f 	eorvc	r7, r0, #1862270976	; 0x6f000000
   1af10:	74657365 	strbtvc	r7, [r5], #-869	; 0xfffffc9b
   1af14:	76656420 	strbtvc	r6, [r5], -r0, lsr #8
   1af18:	00656369 	rsbeq	r6, r5, r9, ror #6
   1af1c:	6e6e6143 	powvsem	f6, f6, f3
   1af20:	6320746f 	teqvs	r0, #1862270976	; 0x6f000000
   1af24:	7261656c 	rsbvc	r6, r1, #108, 10	; 0x1b000000
   1af28:	6c616820 	stclvs	8, cr6, [r1], #-128	; 0xffffff80
   1af2c:	6e6f2074 	mcrvs	0, 3, r2, cr15, cr4, {3}
   1af30:	646e6520 	strbtvs	r6, [lr], #-1312	; 0xfffffae0
   1af34:	6e696f70 	mcrvs	15, 3, r6, cr9, cr0, {3}
   1af38:	00312074 	eorseq	r2, r1, r4, ror r0
   1af3c:	6e6e6143 	powvsem	f6, f6, f3
   1af40:	6320746f 	teqvs	r0, #1862270976	; 0x6f000000
   1af44:	7261656c 	rsbvc	r6, r1, #108, 10	; 0x1b000000
   1af48:	6c616820 	stclvs	8, cr6, [r1], #-128	; 0xffffff80
   1af4c:	6e6f2074 	mcrvs	0, 3, r2, cr15, cr4, {3}
   1af50:	646e6520 	strbtvs	r6, [lr], #-1312	; 0xfffffae0
   1af54:	6e696f70 	mcrvs	15, 3, r6, cr9, cr0, {3}
   1af58:	00322074 	eorseq	r2, r2, r4, ror r0
   1af5c:	63687764 	cmnvs	r8, #100, 14	; 0x1900000
   1af60:	61726669 	cmnvs	r2, r9, ror #12
   1af64:	6373656d 	cmnvs	r3, #457179136	; 0x1b400000
   1af68:	6e646568 	cdpvs	5, 6, cr6, cr4, cr8, {3}
   1af6c:	2e726570 	mrccs	5, 3, r6, cr2, cr0, {3}
   1af70:	00000063 	andeq	r0, r0, r3, rrx
   1af74:	6174536e 	cmnvs	r4, lr, ror #6
   1af78:	20737574 	rsbscs	r7, r3, r4, ror r5
   1af7c:	57442026 	strbpl	r2, [r4, -r6, lsr #32]
   1af80:	5f494348 	svcpl	0x00494348
   1af84:	54534f48 	ldrbpl	r4, [r3], #-3912	; 0xfffff0b8
   1af88:	4148435f 	cmpmi	r8, pc, asr r3
   1af8c:	4e495f4e 	cdpmi	15, 4, cr5, cr9, cr14, {2}
   1af90:	43415f54 	movtmi	r5, #8020	; 0x1f54
   1af94:	0000004b 	andeq	r0, r0, fp, asr #32
   1af98:	63737764 	cmnvs	r3, #100, 14	; 0x1900000
   1af9c:	00646568 	rsbeq	r6, r4, r8, ror #10
   1afa0:	61766e49 	cmnvs	r6, r9, asr #28
   1afa4:	2064696c 	rsbcs	r6, r4, ip, ror #18
   1afa8:	74617473 	strbtvc	r7, [r1], #-1139	; 0xfffffb8d
   1afac:	30207375 	eorcc	r7, r0, r5, ror r3
   1afb0:	00582578 	subseq	r2, r8, r8, ror r5
   1afb4:	63687764 	cmnvs	r8, #100, 14	; 0x1900000
   1afb8:	61726669 	cmnvs	r2, r9, ror #12
   1afbc:	6373656d 	cmnvs	r3, #457179136	; 0x1b400000
   1afc0:	70646568 	rsbvc	r6, r4, r8, ror #10
   1afc4:	632e7265 	teqvs	lr, #1342177286	; 0x50000006
   1afc8:	00000000 	andeq	r0, r0, r0

0001afcc <FromUSBKbd>:
   1afcc:	6b627375 	blvs	18b7da8 <_end+0x189acec>
   1afd0:	00006462 	andeq	r6, r0, r2, ror #8
   1afd4:	6b627375 	blvs	18b7db0 <_end+0x189acf4>
   1afd8:	6f627965 	svcvs	0x00627965
   1afdc:	2e647261 	cdpcs	2, 6, cr7, cr4, cr1, {3}
   1afe0:	00000063 	andeq	r0, r0, r3, rrx
   1afe4:	69685470 	stmdbvs	r8!, {r4, r5, r6, sl, ip, lr}^
   1afe8:	6d3e2d73 	ldcvs	13, cr2, [lr, #-460]!	; 0xfffffe34
   1afec:	6552705f 	ldrbvs	r7, [r2, #-95]	; 0xffffffa1
   1aff0:	74726f70 	ldrbtvc	r6, [r2], #-3952	; 0xfffff090
   1aff4:	70646e45 	rsbvc	r6, r4, r5, asr #28
   1aff8:	746e696f 	strbtvc	r6, [lr], #-2415	; 0xfffff691
   1affc:	203d2120 	eorscs	r2, sp, r0, lsr #2
   1b000:	00000030 	andeq	r0, r0, r0, lsr r0
   1b004:	69685470 	stmdbvs	r8!, {r4, r5, r6, sl, ip, lr}^
   1b008:	6d3e2d73 	ldcvs	13, cr2, [lr, #-460]!	; 0xfffffe34
   1b00c:	6552705f 	ldrbvs	r7, [r2, #-95]	; 0xffffffa1
   1b010:	74726f70 	ldrbtvc	r6, [r2], #-3952	; 0xfffff090
   1b014:	66667542 	strbtvs	r7, [r6], -r2, asr #10
   1b018:	21207265 	teqcs	r0, r5, ror #4
   1b01c:	0030203d 	eorseq	r2, r0, sp, lsr r0
   1b020:	69685470 	stmdbvs	r8!, {r4, r5, r6, sl, ip, lr}^
   1b024:	6d3e2d73 	ldcvs	13, cr2, [lr, #-460]!	; 0xfffffe34
   1b028:	5255705f 	subspl	r7, r5, #95	; 0x5f
   1b02c:	3d3d2042 	ldccc	0, cr2, [sp, #-264]!	; 0xfffffef8
   1b030:	00003020 	andeq	r3, r0, r0, lsr #32
   1b034:	69685470 	stmdbvs	r8!, {r4, r5, r6, sl, ip, lr}^
   1b038:	6d3e2d73 	ldcvs	13, cr2, [lr, #-460]!	; 0xfffffe34
   1b03c:	6552705f 	ldrbvs	r7, [r2, #-95]	; 0xffffffa1
   1b040:	74726f70 	ldrbtvc	r6, [r2], #-3952	; 0xfffff090
   1b044:	70646e45 	rsbvc	r6, r4, r5, asr #28
   1b048:	746e696f 	strbtvc	r6, [lr], #-2415	; 0xfffff691
   1b04c:	203d3d20 	eorscs	r3, sp, r0, lsr #26
   1b050:	00000030 	andeq	r0, r0, r0, lsr r0
   1b054:	6e6e6143 	powvsem	f6, f6, f3
   1b058:	7320746f 	teqvc	r0, #1862270976	; 0x6f000000
   1b05c:	69207465 	stmdbvs	r0!, {r0, r2, r5, r6, sl, ip, sp, lr}
   1b060:	7265746e 	rsbvc	r7, r5, #1845493760	; 0x6e000000
   1b064:	65636166 	strbvs	r6, [r3, #-358]!	; 0xfffffe9a
   1b068:	00000000 	andeq	r0, r0, r0
   1b06c:	6e6e6143 	powvsem	f6, f6, f3
   1b070:	7320746f 	teqvc	r0, #1862270976	; 0x6f000000
   1b074:	62207465 	eorvs	r7, r0, #1694498816	; 0x65000000
   1b078:	20746f6f 	rsbscs	r6, r4, pc, ror #30
   1b07c:	746f7270 	strbtvc	r7, [pc], #-624	; 1b084 <FromUSBKbd+0xb8>
   1b080:	6c6f636f 	stclvs	3, cr6, [pc], #-444	; 1aecc <FromUmsd+0x1e4>
   1b084:	00000000 	andeq	r0, r0, r0
   1b088:	64626b75 	strbtvs	r6, [r2], #-2933	; 0xfffff48b
   1b08c:	00007525 	andeq	r7, r0, r5, lsr #10
   1b090:	69685470 	stmdbvs	r8!, {r4, r5, r6, sl, ip, lr}^
   1b094:	6d3e2d73 	ldcvs	13, cr2, [lr, #-460]!	; 0xfffffe34
   1b098:	5255705f 	subspl	r7, r5, #95	; 0x5f
   1b09c:	3d3d2042 	ldccc	0, cr2, [sp, #-264]!	; 0xfffffef8
   1b0a0:	52557020 	subspl	r7, r5, #32
   1b0a4:	00000042 	andeq	r0, r0, r2, asr #32
   1b0a8:	6e6f436e 	cdpvs	3, 6, cr4, cr15, cr14, {3}
   1b0ac:	656c6f73 	strbvs	r6, [ip, #-3955]!	; 0xfffff08d
   1b0b0:	31203c20 	teqcc	r0, r0, lsr #24
   1b0b4:	00000032 	andeq	r0, r0, r2, lsr r0
   1b0b8:	79654b70 	stmdbvc	r5!, {r4, r5, r6, r8, r9, fp, lr}^
   1b0bc:	73657250 	cmnvc	r5, #80, 4
   1b0c0:	48646573 	stmdami	r4!, {r0, r1, r4, r5, r6, r8, sl, sp, lr}^
   1b0c4:	6c646e61 	stclvs	14, cr6, [r4], #-388	; 0xfffffe7c
   1b0c8:	21207265 	teqcs	r0, r5, ror #4
   1b0cc:	0030203d 	eorseq	r2, r0, sp, lsr r0
   1b0d0:	6c655370 	stclvs	3, cr5, [r5], #-448	; 0xfffffe40
   1b0d4:	43746365 	cmnmi	r4, #-1811939327	; 0x94000001
   1b0d8:	6f736e6f 	svcvs	0x00736e6f
   1b0dc:	6148656c 	cmpvs	r8, ip, ror #10
   1b0e0:	656c646e 	strbvs	r6, [ip, #-1134]!	; 0xfffffb92
   1b0e4:	3d212072 	stccc	0, cr2, [r1, #-456]!	; 0xfffffe38
   1b0e8:	00003020 	andeq	r3, r0, r0, lsr #32
   1b0ec:	75685370 	strbvc	r5, [r8, #-880]!	; 0xfffffc90
   1b0f0:	776f6474 			; <UNDEFINED> instruction: 0x776f6474
   1b0f4:	6e61486e 	cdpvs	8, 6, cr4, cr1, cr14, {3}
   1b0f8:	72656c64 	rsbvc	r6, r5, #100, 24	; 0x6400
   1b0fc:	203d2120 	eorscs	r2, sp, r0, lsr #2
   1b100:	00000030 	andeq	r0, r0, r0, lsr r0
   1b104:	79654b70 	stmdbvc	r5!, {r4, r5, r6, r8, r9, fp, lr}^
   1b108:	74617453 	strbtvc	r7, [r1], #-1107	; 0xfffffbad
   1b10c:	61487375 	hvcvs	34613	; 0x8735
   1b110:	656c646e 	strbvs	r6, [ip, #-1134]!	; 0xfffffb92
   1b114:	77615272 			; <UNDEFINED> instruction: 0x77615272
   1b118:	203d2120 	eorscs	r2, sp, r0, lsr #2
   1b11c:	00000030 	andeq	r0, r0, r0, lsr r0

0001b120 <FromDWHCIRoot>:
   1b120:	6f727764 	svcvs	0x00727764
   1b124:	0000746f 	andeq	r7, r0, pc, ror #8
   1b128:	63687764 	cmnvs	r8, #100, 14	; 0x1900000
   1b12c:	6f6f7269 	svcvs	0x006f7269
   1b130:	726f7074 	rsbvc	r7, pc, #116	; 0x74
   1b134:	00632e74 	rsbeq	r2, r3, r4, ror lr
   1b138:	6e6e6143 	powvsem	f6, f6, f3
   1b13c:	6420746f 	strtvs	r7, [r0], #-1135	; 0xfffffb91
   1b140:	63657465 	cmnvs	r5, #1694498816	; 0x65000000
   1b144:	6f702074 	svcvs	0x00702074
   1b148:	73207472 	teqvc	r0, #1912602624	; 0x72000000
   1b14c:	64656570 	strbtvs	r6, [r5], #-1392	; 0xfffffa90
   1b150:	00000000 	andeq	r0, r0, r0
   1b154:	69685470 	stmdbvs	r8!, {r4, r5, r6, sl, ip, lr}^
   1b158:	6d3e2d73 	ldcvs	13, cr2, [lr, #-460]!	; 0xfffffe34
   1b15c:	6544705f 	strbvs	r7, [r4, #-95]	; 0xffffffa1
   1b160:	65636976 	strbvs	r6, [r3, #-2422]!	; 0xfffff68a
   1b164:	203d3d20 	eorscs	r3, sp, r0, lsr #26
   1b168:	00000030 	andeq	r0, r0, r0, lsr r0
   1b16c:	6d614e70 	stclvs	14, cr4, [r1, #-448]!	; 0xfffffe40
   1b170:	21207365 	teqcs	r0, r5, ror #6
   1b174:	0030203d 	eorseq	r2, r0, sp, lsr r0
   1b178:	69766544 	ldmdbvs	r6!, {r2, r6, r8, sl, sp, lr}^
   1b17c:	25206563 	strcs	r6, [r0, #-1379]!	; 0xfffffa9d
   1b180:	6f662073 	svcvs	0x00662073
   1b184:	00646e75 	rsbeq	r6, r4, r5, ror lr
   1b188:	6e6e6143 	powvsem	f6, f6, f3
   1b18c:	6320746f 	teqvs	r0, #1862270976	; 0x6f000000
   1b190:	69666e6f 	stmdbvs	r6!, {r0, r1, r2, r3, r5, r6, r9, sl, fp, sp, lr}^
   1b194:	65727567 	ldrbvs	r7, [r2, #-1383]!	; 0xfffffa99
   1b198:	76656420 	strbtvc	r6, [r5], -r0, lsr #8
   1b19c:	00656369 	rsbeq	r6, r5, r9, ror #6
   1b1a0:	69766544 	ldmdbvs	r6!, {r2, r6, r8, sl, sp, lr}^
   1b1a4:	63206563 	teqvs	r0, #415236096	; 0x18c00000
   1b1a8:	69666e6f 	stmdbvs	r6!, {r0, r1, r2, r3, r5, r6, r9, sl, fp, sp, lr}^
   1b1ac:	65727567 	ldrbvs	r7, [r2, #-1383]!	; 0xfffffa99
   1b1b0:	00000064 	andeq	r0, r0, r4, rrx
   1b1b4:	69766544 	ldmdbvs	r6!, {r2, r6, r8, sl, sp, lr}^
   1b1b8:	69206563 	stmdbvs	r0!, {r0, r1, r5, r6, r8, sl, sp, lr}
   1b1bc:	6f6e2073 	svcvs	0x006e2073
   1b1c0:	75732074 	ldrbvc	r2, [r3, #-116]!	; 0xffffff8c
   1b1c4:	726f7070 	rsbvc	r7, pc, #112	; 0x70
   1b1c8:	00646574 	rsbeq	r6, r4, r4, ror r5
   1b1cc:	7265764f 	rsbvc	r7, r5, #82837504	; 0x4f00000
   1b1d0:	7275632d 	rsbsvc	r6, r5, #-1275068416	; 0xb4000000
   1b1d4:	746e6572 	strbtvc	r6, [lr], #-1394	; 0xfffffa8e
   1b1d8:	6e6f6320 	cdpvs	3, 6, cr6, cr15, cr0, {1}
   1b1dc:	69746964 	ldmdbvs	r4!, {r2, r5, r6, r8, fp, sp, lr}^
   1b1e0:	00006e6f 	andeq	r6, r0, pc, ror #28

0001b1e4 <FromUSBKbd>:
   1b1e4:	756f6d75 	strbvc	r6, [pc, #-3445]!	; 1a477 <FromDWHCI+0x79b>
   1b1e8:	00006573 	andeq	r6, r0, r3, ror r5
   1b1ec:	6d627375 	stclvs	3, cr7, [r2, #-468]!	; 0xfffffe2c
   1b1f0:	6573756f 	ldrbvs	r7, [r3, #-1391]!	; 0xfffffa91
   1b1f4:	0000632e 	andeq	r6, r0, lr, lsr #6
   1b1f8:	756f6d75 	strbvc	r6, [pc, #-3445]!	; 1a48b <FromDWHCI+0x7af>
   1b1fc:	75256573 	strvc	r6, [r5, #-1395]!	; 0xfffffa8d
   1b200:	00000000 	andeq	r0, r0, r0
   1b204:	61745370 	cmnvs	r4, r0, ror r3
   1b208:	48737574 	ldmdami	r3!, {r2, r4, r5, r6, r8, sl, ip, sp, lr}^
   1b20c:	6c646e61 	stclvs	14, cr6, [r4], #-388	; 0xfffffe7c
   1b210:	21207265 	teqcs	r0, r5, ror #4
   1b214:	0030203d 	eorseq	r2, r0, sp, lsr r0
   1b218:	63687764 	cmnvs	r8, #100, 14	; 0x1900000
   1b21c:	61726669 	cmnvs	r2, r9, ror #12
   1b220:	6373656d 	cmnvs	r3, #457179136	; 0x1b400000
   1b224:	6e646568 	cdpvs	5, 6, cr6, cr4, cr8, {3}
   1b228:	696c7073 	stmdbvs	ip!, {r0, r1, r4, r5, r6, ip, sp, lr}^
   1b22c:	00632e74 	rsbeq	r2, r3, r4, ror lr

0001b230 <FromUSBPad>:
   1b230:	70627375 	rsbvc	r7, r2, r5, ror r3
   1b234:	00006461 	andeq	r6, r0, r1, ror #8

0001b238 <leds.4598>:
   1b238:	04020100 	streq	r0, [r2], #-256	; 0xffffff00
   1b23c:	00000008 	andeq	r0, r0, r8
   1b240:	67627375 			; <UNDEFINED> instruction: 0x67627375
   1b244:	70656d61 	rsbvc	r6, r5, r1, ror #26
   1b248:	632e6461 	teqvs	lr, #1627389952	; 0x61000000
   1b24c:	00000000 	andeq	r0, r0, r0
   1b250:	69685470 	stmdbvs	r8!, {r4, r5, r6, sl, ip, lr}^
   1b254:	6d3e2d73 	ldcvs	13, cr2, [lr, #-460]!	; 0xfffffe34
   1b258:	4948705f 	stmdbmi	r8, {r0, r1, r2, r3, r4, r6, ip, sp, lr}^
   1b25c:	70655244 	rsbvc	r5, r5, r4, asr #4
   1b260:	4474726f 	ldrbtmi	r7, [r4], #-623	; 0xfffffd91
   1b264:	72637365 	rsbvc	r7, r3, #-1811939327	; 0x94000001
   1b268:	6f747069 	svcvs	0x00747069
   1b26c:	3d212072 	stccc	0, cr2, [r1, #-456]!	; 0xfffffe38
   1b270:	00003020 	andeq	r3, r0, r0, lsr #32
   1b274:	6e6e6143 	powvsem	f6, f6, f3
   1b278:	6720746f 	strvs	r7, [r0, -pc, ror #8]!
   1b27c:	48207465 	stmdami	r0!, {r0, r2, r5, r6, sl, ip, sp, lr}
   1b280:	72204449 	eorvc	r4, r0, #1224736768	; 0x49000000
   1b284:	726f7065 	rsbvc	r7, pc, #101	; 0x65
   1b288:	65642074 	strbvs	r2, [r4, #-116]!	; 0xffffff8c
   1b28c:	69726373 	ldmdbvs	r2!, {r0, r1, r4, r5, r6, r8, r9, sp, lr}^
   1b290:	726f7470 	rsbvc	r7, pc, #112, 8	; 0x70000000
   1b294:	00000000 	andeq	r0, r0, r0
   1b298:	436e5f73 	cmnmi	lr, #460	; 0x1cc
   1b29c:	69746972 	ldmdbvs	r4!, {r1, r4, r5, r6, r8, fp, sp, lr}^
   1b2a0:	4c6c6163 	stfmie	f6, [ip], #-396	; 0xfffffe74
   1b2a4:	6c657665 	stclvs	6, cr7, [r5], #-404	; 0xfffffe6c
   1b2a8:	30203e20 	eorcc	r3, r0, r0, lsr #28
   1b2ac:	00000000 	andeq	r0, r0, r0
   1b2b0:	636e7973 	cmnvs	lr, #1884160	; 0x1cc000
   1b2b4:	6e6f7268 	cdpvs	2, 6, cr7, cr15, cr8, {3}
   1b2b8:	2e657a69 	vnmulcs.f32	s15, s10, s19
   1b2bc:	00000063 	andeq	r0, r0, r3, rrx
   1b2c0:	73627375 	cmnvc	r2, #-738197503	; 0xd4000001
   1b2c4:	6e697274 	mcrvs	2, 3, r7, cr9, cr4, {3}
   1b2c8:	00632e67 	rsbeq	r2, r3, r7, ror #28
   1b2cc:	69685470 	stmdbvs	r8!, {r4, r5, r6, sl, ip, lr}^
   1b2d0:	6d3e2d73 	ldcvs	13, cr2, [lr, #-460]!	; 0xfffffe34
   1b2d4:	7453705f 	ldrbvc	r7, [r3], #-95	; 0xffffffa1
   1b2d8:	676e6972 			; <UNDEFINED> instruction: 0x676e6972
   1b2dc:	203d2120 	eorscs	r2, sp, r0, lsr #2
   1b2e0:	00000030 	andeq	r0, r0, r0, lsr r0
   1b2e4:	72615070 	rsbvc	r5, r1, #112	; 0x70
   1b2e8:	20746e65 	rsbscs	r6, r4, r5, ror #28
   1b2ec:	30203d21 	eorcc	r3, r0, r1, lsr #26
   1b2f0:	00000000 	andeq	r0, r0, r0
   1b2f4:	69685470 	stmdbvs	r8!, {r4, r5, r6, sl, ip, lr}^
   1b2f8:	6d3e2d73 	ldcvs	13, cr2, [lr, #-460]!	; 0xfffffe34
   1b2fc:	5355705f 	cmppl	r5, #95	; 0x5f
   1b300:	72745342 	rsbsvc	r5, r4, #134217729	; 0x8000001
   1b304:	20676e69 	rsbcs	r6, r7, r9, ror #28
   1b308:	30203d21 	eorcc	r3, r0, r1, lsr #26
   1b30c:	00000000 	andeq	r0, r0, r0
   1b310:	72615070 	rsbvc	r5, r1, #112	; 0x70
   1b314:	2d746e65 	ldclcs	14, cr6, [r4, #-404]!	; 0xfffffe6c
   1b318:	705f6d3e 	subsvc	r6, pc, lr, lsr sp	; <UNPREDICTABLE>
   1b31c:	69727453 	ldmdbvs	r2!, {r0, r1, r4, r6, sl, ip, sp, lr}^
   1b320:	2120676e 	teqcs	r0, lr, ror #14
   1b324:	0030203d 	eorseq	r2, r0, sp, lsr r0
   1b328:	44496375 	strbmi	r6, [r9], #-885	; 0xfffffc8b
   1b32c:	30203e20 	eorcc	r3, r0, r0, lsr #28
   1b330:	00000000 	andeq	r0, r0, r0
   1b334:	69685470 	stmdbvs	r8!, {r4, r5, r6, sl, ip, lr}^
   1b338:	6d3e2d73 	ldcvs	13, cr2, [lr, #-460]!	; 0xfffffe34
   1b33c:	5355705f 	cmppl	r5, #95	; 0x5f
   1b340:	72745342 	rsbsvc	r5, r4, #134217729	; 0x8000001
   1b344:	2d676e69 	stclcs	14, cr6, [r7, #-420]!	; 0xfffffe5c
   1b348:	654c623e 	strbvs	r6, [ip, #-574]	; 0xfffffdc2
   1b34c:	6874676e 	ldmdavs	r4!, {r1, r2, r3, r5, r6, r8, r9, sl, sp, lr}^
   1b350:	203d3e20 	eorscs	r3, sp, r0, lsr #28
   1b354:	00000032 	andeq	r0, r0, r2, lsr r0
   1b358:	68547028 	ldmdavs	r4, {r3, r5, ip, sp, lr}^
   1b35c:	3e2d7369 	cdpcc	3, 2, cr7, cr13, cr9, {3}
   1b360:	55705f6d 	ldrbpl	r5, [r0, #-3949]!	; 0xfffff093
   1b364:	74534253 	ldrbvc	r4, [r3], #-595	; 0xfffffdad
   1b368:	676e6972 			; <UNDEFINED> instruction: 0x676e6972
   1b36c:	4c623e2d 	stclmi	14, cr3, [r2], #-180	; 0xffffff4c
   1b370:	74676e65 	strbtvc	r6, [r7], #-3685	; 0xfffff19b
   1b374:	20262068 	eorcs	r2, r6, r8, rrx
   1b378:	3d202931 	stccc	9, cr2, [r0, #-196]!	; 0xffffff3c
   1b37c:	0030203d 	eorseq	r2, r0, sp, lsr r0
   1b380:	6e654c6e 	cdpvs	12, 6, cr4, cr5, cr14, {3}
   1b384:	20687467 	rsbcs	r7, r8, r7, ror #8
   1b388:	28203d3c 	stmdacs	r0!, {r2, r3, r4, r5, r8, sl, fp, ip, sp}
   1b38c:	2d353532 	cfldr32cs	mvfx3, [r5, #-200]!	; 0xffffff38
   1b390:	2f202932 	svccs	0x00202932
   1b394:	00003220 	andeq	r3, r0, r0, lsr #4
   1b398:	6e614c70 	mcrvs	12, 3, r4, cr1, cr0, {3}
   1b39c:	67617567 	strbvs	r7, [r1, -r7, ror #10]!
   1b3a0:	73444965 	movtvc	r4, #18789	; 0x4965
   1b3a4:	203d2120 	eorscs	r2, sp, r0, lsr #2
   1b3a8:	00000030 	andeq	r0, r0, r0, lsr r0
   1b3ac:	6e614c70 	mcrvs	12, 3, r4, cr1, cr0, {3}
   1b3b0:	67617567 	strbvs	r7, [r1, -r7, ror #10]!
   1b3b4:	73444965 	movtvc	r4, #18789	; 0x4965
   1b3b8:	4c623e2d 	stclmi	14, cr3, [r2], #-180	; 0xffffff4c
   1b3bc:	74676e65 	strbtvc	r6, [r7], #-3685	; 0xfffff19b
   1b3c0:	3d3e2068 	ldccc	0, cr2, [lr, #-416]!	; 0xfffffe60
   1b3c4:	00003420 	andeq	r3, r0, r0, lsr #8
   1b3c8:	614c7028 	cmpvs	ip, r8, lsr #32
   1b3cc:	6175676e 	cmnvs	r5, lr, ror #14
   1b3d0:	44496567 	strbmi	r6, [r9], #-1383	; 0xfffffa99
   1b3d4:	623e2d73 	eorsvs	r2, lr, #7360	; 0x1cc0
   1b3d8:	676e654c 	strbvs	r6, [lr, -ip, asr #10]!
   1b3dc:	26206874 			; <UNDEFINED> instruction: 0x26206874
   1b3e0:	20293120 	eorcs	r3, r9, r0, lsr #2
   1b3e4:	30203d3d 	eorcc	r3, r0, sp, lsr sp
   1b3e8:	00000000 	andeq	r0, r0, r0
   1b3ec:	63627375 	cmnvs	r2, #-738197503	; 0xd4000001
   1b3f0:	69666e6f 	stmdbvs	r6!, {r0, r1, r2, r3, r5, r6, r9, sl, fp, sp, lr}^
   1b3f4:	72617067 	rsbvc	r7, r1, #103	; 0x67
   1b3f8:	2e726573 	mrccs	5, 3, r6, cr2, cr3, {3}
   1b3fc:	00000063 	andeq	r0, r0, r3, rrx
   1b400:	69685470 	stmdbvs	r8!, {r4, r5, r6, sl, ip, lr}^
   1b404:	6d3e2d73 	ldcvs	13, cr2, [lr, #-460]!	; 0xfffffe34
   1b408:	7542705f 	strbvc	r7, [r2, #-95]	; 0xffffffa1
   1b40c:	72656666 	rsbvc	r6, r5, #106954752	; 0x6600000
   1b410:	203d2120 	eorscs	r2, sp, r0, lsr #2
   1b414:	00000030 	andeq	r0, r0, r0, lsr r0
   1b418:	73654470 	cmnvc	r5, #112, 8	; 0x70000000
   1b41c:	646e4563 	strbtvs	r4, [lr], #-1379	; 0xfffffa9d
   1b420:	203d3c20 	eorscs	r3, sp, r0, lsr #24
   1b424:	69685470 	stmdbvs	r8!, {r4, r5, r6, sl, ip, lr}^
   1b428:	6d3e2d73 	ldcvs	13, cr2, [lr, #-460]!	; 0xfffffe34
   1b42c:	6e45705f 	mcrvs	0, 2, r7, cr5, cr15, {2}
   1b430:	736f5064 	cmnvc	pc, #100	; 0x64
   1b434:	6f697469 	svcvs	0x00697469
   1b438:	0000006e 	andeq	r0, r0, lr, rrx
   1b43c:	756f5370 	strbvc	r5, [pc, #-880]!	; 1b0d4 <FromUSBKbd+0x108>
   1b440:	20656372 	rsbcs	r6, r5, r2, ror r3
   1b444:	30203d21 	eorcc	r3, r0, r1, lsr #26
   1b448:	00000000 	andeq	r0, r0, r0
   1b44c:	61766e49 	cmnvs	r6, r9, asr #28
   1b450:	2064696c 	rsbcs	r6, r4, ip, ror #18
   1b454:	666e6f63 	strbtvs	r6, [lr], -r3, ror #30
   1b458:	72756769 	rsbsvc	r6, r5, #27525120	; 0x1a40000
   1b45c:	6f697461 	svcvs	0x00697461
   1b460:	6564206e 	strbvs	r2, [r4, #-110]!	; 0xffffff92
   1b464:	69726373 	ldmdbvs	r2!, {r0, r1, r4, r5, r6, r8, r9, sp, lr}^
   1b468:	726f7470 	rsbvc	r7, pc, #112, 8	; 0x70000000
   1b46c:	666f2820 	strbtvs	r2, [pc], -r0, lsr #16
   1b470:	74657366 	strbtvc	r7, [r5], #-870	; 0xfffffc9a
   1b474:	25783020 	ldrbcs	r3, [r8, #-32]!	; 0xffffffe0
   1b478:	00002958 	andeq	r2, r0, r8, asr r9
   1b47c:	64627375 	strbtvs	r7, [r2], #-885	; 0xfffffc8b
   1b480:	63697665 	cmnvs	r9, #105906176	; 0x6500000
   1b484:	63616665 	cmnvs	r1, #105906176	; 0x6500000
   1b488:	79726f74 	ldmdbvc	r2!, {r2, r4, r5, r6, r8, r9, sl, fp, sp, lr}^
   1b48c:	0000632e 	andeq	r6, r0, lr, lsr #6
   1b490:	39766564 	ldmdbcc	r6!, {r2, r5, r6, r8, sl, sp, lr}^
   1b494:	322d302d 	eorcc	r3, sp, #45	; 0x2d
   1b498:	00000000 	andeq	r0, r0, r0
   1b49c:	38746e69 	ldmdacc	r4!, {r0, r3, r5, r6, r9, sl, fp, sp, lr}^
   1b4a0:	352d362d 	strcc	r3, [sp, #-1581]!	; 0xfffff9d3
   1b4a4:	00000030 	andeq	r0, r0, r0, lsr r0
   1b4a8:	33746e69 	cmncc	r4, #1680	; 0x690
   1b4ac:	312d312d 	teqcc	sp, sp, lsr #2
   1b4b0:	00000000 	andeq	r0, r0, r0
   1b4b4:	33746e69 	cmncc	r4, #1680	; 0x690
   1b4b8:	322d312d 	eorcc	r3, sp, #1073741835	; 0x4000000b
   1b4bc:	00000000 	andeq	r0, r0, r0
   1b4c0:	346e6576 	strbtcc	r6, [lr], #-1398	; 0xfffffa8a
   1b4c4:	652d3432 	strvs	r3, [sp, #-1074]!	; 0xfffffbce
   1b4c8:	00303063 	eorseq	r3, r0, r3, rrx
   1b4cc:	33746e69 	cmncc	r4, #1680	; 0x690
   1b4d0:	302d302d 	eorcc	r3, sp, sp, lsr #32
   1b4d4:	00000000 	andeq	r0, r0, r0
   1b4d8:	64627375 	strbtvs	r7, [r2], #-885	; 0xfffffc8b
   1b4dc:	00007665 	andeq	r7, r0, r5, ror #12
   1b4e0:	6e697355 	mcrvs	3, 3, r7, cr9, cr5, {2}
   1b4e4:	65642067 	strbvs	r2, [r4, #-103]!	; 0xffffff99
   1b4e8:	65636976 	strbvs	r6, [r3, #-2422]!	; 0xfffff68a
   1b4ec:	00732520 	rsbseq	r2, r3, r0, lsr #10

0001b4f0 <FromHub>:
   1b4f0:	68627375 	stmdavs	r2!, {r0, r2, r4, r5, r6, r8, r9, ip, sp, lr}^
   1b4f4:	00006275 	andeq	r6, r0, r5, ror r2
   1b4f8:	73627375 	cmnvc	r2, #-738197503	; 0xd4000001
   1b4fc:	646e6174 	strbtvs	r6, [lr], #-372	; 0xfffffe8c
   1b500:	68647261 	stmdavs	r4!, {r0, r5, r6, r9, ip, sp, lr}^
   1b504:	632e6275 	teqvs	lr, #1342177287	; 0x50000007
   1b508:	00000000 	andeq	r0, r0, r0
   1b50c:	73655270 	cmnvc	r5, #112, 4
   1b510:	20746c75 	rsbscs	r6, r4, r5, ror ip
   1b514:	30203d21 	eorcc	r3, r0, r1, lsr #26
   1b518:	00000000 	andeq	r0, r0, r0
   1b51c:	0000202c 	andeq	r2, r0, ip, lsr #32
   1b520:	646e4570 	strbtvs	r4, [lr], #-1392	; 0xfffffa90
   1b524:	6e696f70 	mcrvs	15, 3, r6, cr9, cr0, {3}
   1b528:	21203074 	teqcs	r0, r4, ror r0
   1b52c:	0030203d 	eorseq	r2, r0, sp, lsr r0
   1b530:	69685470 	stmdbvs	r8!, {r4, r5, r6, sl, ip, lr}^
   1b534:	6d3e2d73 	ldcvs	13, cr2, [lr, #-460]!	; 0xfffffe34
   1b538:	6f506e5f 	svcvs	0x00506e5f
   1b53c:	20737472 	rsbscs	r7, r3, r2, ror r4
   1b540:	0030203e 	eorseq	r2, r0, lr, lsr r0
   1b544:	6e6e6143 	powvsem	f6, f6, f3
   1b548:	7020746f 	eorvc	r7, r0, pc, ror #8
   1b54c:	7265776f 	rsbvc	r7, r5, #29097984	; 0x1bc0000
   1b550:	726f7020 	rsbvc	r7, pc, #32
   1b554:	75252074 	strvc	r2, [r5, #-116]!	; 0xffffff8c
   1b558:	00000000 	andeq	r0, r0, r0
   1b55c:	69685470 	stmdbvs	r8!, {r4, r5, r6, sl, ip, lr}^
   1b560:	6d3e2d73 	ldcvs	13, cr2, [lr, #-460]!	; 0xfffffe34
   1b564:	7453705f 	ldrbvc	r7, [r3], #-95	; 0xffffffa1
   1b568:	73757461 	cmnvc	r5, #1627389952	; 0x61000000
   1b56c:	6f506e5b 	svcvs	0x00506e5b
   1b570:	205d7472 	subscs	r7, sp, r2, ror r4
   1b574:	30203d3d 	eorcc	r3, r0, sp, lsr sp
   1b578:	00000000 	andeq	r0, r0, r0
   1b57c:	69685470 	stmdbvs	r8!, {r4, r5, r6, sl, ip, lr}^
   1b580:	6d3e2d73 	ldcvs	13, cr2, [lr, #-460]!	; 0xfffffe34
   1b584:	7453705f 	ldrbvc	r7, [r3], #-95	; 0xffffffa1
   1b588:	73757461 	cmnvc	r5, #1627389952	; 0x61000000
   1b58c:	6f506e5b 	svcvs	0x00506e5b
   1b590:	205d7472 	subscs	r7, sp, r2, ror r4
   1b594:	30203d21 	eorcc	r3, r0, r1, lsr #26
   1b598:	00000000 	andeq	r0, r0, r0
   1b59c:	6e6e6143 	powvsem	f6, f6, f3
   1b5a0:	6720746f 	strvs	r7, [r0, -pc, ror #8]!
   1b5a4:	73207465 	teqvc	r0, #1694498816	; 0x65000000
   1b5a8:	75746174 	ldrbvc	r6, [r4, #-372]!	; 0xfffffe8c
   1b5ac:	666f2073 			; <UNDEFINED> instruction: 0x666f2073
   1b5b0:	726f7020 	rsbvc	r7, pc, #32
   1b5b4:	75252074 	strvc	r2, [r5, #-116]!	; 0xffffff8c
   1b5b8:	00000000 	andeq	r0, r0, r0
   1b5bc:	69685470 	stmdbvs	r8!, {r4, r5, r6, sl, ip, lr}^
   1b5c0:	6d3e2d73 	ldcvs	13, cr2, [lr, #-460]!	; 0xfffffe34
   1b5c4:	7453705f 	ldrbvc	r7, [r3], #-95	; 0xffffffa1
   1b5c8:	73757461 	cmnvc	r5, #1627389952	; 0x61000000
   1b5cc:	6f506e5b 	svcvs	0x00506e5b
   1b5d0:	2d5d7472 	cfldrdcs	mvd7, [sp, #-456]	; 0xfffffe38
   1b5d4:	6f50773e 	svcvs	0x0050773e
   1b5d8:	74537472 	ldrbvc	r7, [r3], #-1138	; 0xfffffb8e
   1b5dc:	73757461 	cmnvc	r5, #1627389952	; 0x61000000
   1b5e0:	50202620 	eorpl	r2, r0, r0, lsr #12
   1b5e4:	5f54524f 	svcpl	0x0054524f
   1b5e8:	45574f50 	ldrbmi	r4, [r7, #-3920]	; 0xfffff0b0
   1b5ec:	4d5f5f52 	ldclmi	15, cr5, [pc, #-328]	; 1b4ac <leds.4598+0x274>
   1b5f0:	004b5341 	subeq	r5, fp, r1, asr #6
   1b5f4:	6e6e6143 	powvsem	f6, f6, f3
   1b5f8:	7220746f 	eorvc	r7, r0, #1862270976	; 0x6f000000
   1b5fc:	74657365 	strbtvc	r7, [r5], #-869	; 0xfffffc9b
   1b600:	726f7020 	rsbvc	r7, pc, #32
   1b604:	75252074 	strvc	r2, [r5, #-116]!	; 0xffffff8c
   1b608:	00000000 	andeq	r0, r0, r0
   1b60c:	74726f50 	ldrbtvc	r6, [r2], #-3920	; 0xfffff0b0
   1b610:	20752520 	rsbscs	r2, r5, r0, lsr #10
   1b614:	6e207369 	cdpvs	3, 2, cr7, cr0, cr9, {3}
   1b618:	6520746f 	strvs	r7, [r0, #-1135]!	; 0xfffffb91
   1b61c:	6c62616e 	stfvse	f6, [r2], #-440	; 0xfffffe48
   1b620:	00006465 	andeq	r6, r0, r5, ror #8
   1b624:	7265764f 	rsbvc	r7, r5, #82837504	; 0x4f00000
   1b628:	7275632d 	rsbsvc	r6, r5, #-1275068416	; 0xb4000000
   1b62c:	746e6572 	strbtvc	r6, [lr], #-1394	; 0xfffffa8e
   1b630:	6e6f6320 	cdpvs	3, 6, cr6, cr15, cr0, {1}
   1b634:	69746964 	ldmdbvs	r4!, {r2, r5, r6, r8, fp, sp, lr}^
   1b638:	6f206e6f 	svcvs	0x00206e6f
   1b63c:	6f70206e 	svcvs	0x0070206e
   1b640:	25207472 	strcs	r7, [r0, #-1138]!	; 0xfffffb8e
   1b644:	00000075 	andeq	r0, r0, r5, ror r0
   1b648:	69685470 	stmdbvs	r8!, {r4, r5, r6, sl, ip, lr}^
   1b64c:	6d3e2d73 	ldcvs	13, cr2, [lr, #-460]!	; 0xfffffe34
   1b650:	6544705f 	strbvs	r7, [r4, #-95]	; 0xffffffa1
   1b654:	65636976 	strbvs	r6, [r3, #-2422]!	; 0xfffff68a
   1b658:	6f506e5b 	svcvs	0x00506e5b
   1b65c:	205d7472 	subscs	r7, sp, r2, ror r4
   1b660:	30203d3d 	eorcc	r3, r0, sp, lsr sp
   1b664:	00000000 	andeq	r0, r0, r0
   1b668:	69685470 	stmdbvs	r8!, {r4, r5, r6, sl, ip, lr}^
   1b66c:	6d3e2d73 	ldcvs	13, cr2, [lr, #-460]!	; 0xfffffe34
   1b670:	6544705f 	strbvs	r7, [r4, #-95]	; 0xffffffa1
   1b674:	65636976 	strbvs	r6, [r3, #-2422]!	; 0xfffff68a
   1b678:	6f506e5b 	svcvs	0x00506e5b
   1b67c:	205d7472 	subscs	r7, sp, r2, ror r4
   1b680:	30203d21 	eorcc	r3, r0, r1, lsr #26
   1b684:	00000000 	andeq	r0, r0, r0
   1b688:	74726f50 	ldrbtvc	r6, [r2], #-3920	; 0xfffff0b0
   1b68c:	3a752520 	bcc	1d64b14 <_end+0x1d47a58>
   1b690:	76654420 	strbtvc	r4, [r5], -r0, lsr #8
   1b694:	20656369 	rsbcs	r6, r5, r9, ror #6
   1b698:	66207325 	strtvs	r7, [r0], -r5, lsr #6
   1b69c:	646e756f 	strbtvs	r7, [lr], #-1391	; 0xfffffa91
   1b6a0:	00000000 	andeq	r0, r0, r0
   1b6a4:	74726f50 	ldrbtvc	r6, [r2], #-3920	; 0xfffff0b0
   1b6a8:	3a752520 	bcc	1d64b30 <_end+0x1d47a74>
   1b6ac:	6e614320 	cdpvs	3, 6, cr4, cr1, cr0, {1}
   1b6b0:	20746f6e 	rsbscs	r6, r4, lr, ror #30
   1b6b4:	666e6f63 	strbtvs	r6, [lr], -r3, ror #30
   1b6b8:	72756769 	rsbsvc	r6, r5, #27525120	; 0x1a40000
   1b6bc:	65642065 	strbvs	r2, [r4, #-101]!	; 0xffffff9b
   1b6c0:	65636976 	strbvs	r6, [r3, #-2422]!	; 0xfffff68a
   1b6c4:	00000000 	andeq	r0, r0, r0
   1b6c8:	74726f50 	ldrbtvc	r6, [r2], #-3920	; 0xfffff0b0
   1b6cc:	3a752520 	bcc	1d64b54 <_end+0x1d47a98>
   1b6d0:	76654420 	strbtvc	r4, [r5], -r0, lsr #8
   1b6d4:	20656369 	rsbcs	r6, r5, r9, ror #6
   1b6d8:	666e6f63 	strbtvs	r6, [lr], -r3, ror #30
   1b6dc:	72756769 	rsbsvc	r6, r5, #27525120	; 0x1a40000
   1b6e0:	00006465 	andeq	r6, r0, r5, ror #8
   1b6e4:	74726f50 	ldrbtvc	r6, [r2], #-3920	; 0xfffff0b0
   1b6e8:	3a752520 	bcc	1d64b70 <_end+0x1d47ab4>
   1b6ec:	76654420 	strbtvc	r4, [r5], -r0, lsr #8
   1b6f0:	20656369 	rsbcs	r6, r5, r9, ror #6
   1b6f4:	6e207369 	cdpvs	3, 2, cr7, cr0, cr9, {3}
   1b6f8:	7320746f 	teqvc	r0, #1862270976	; 0x6f000000
   1b6fc:	6f707075 	svcvs	0x00707075
   1b700:	64657472 	strbtvs	r7, [r5], #-1138	; 0xfffffb8e
   1b704:	00000000 	andeq	r0, r0, r0
   1b708:	62754870 	rsbsvs	r4, r5, #112, 16	; 0x700000
   1b70c:	74617453 	strbtvc	r7, [r1], #-1107	; 0xfffffbad
   1b710:	21207375 	teqcs	r0, r5, ror r3
   1b714:	0030203d 	eorseq	r2, r0, sp, lsr r0
   1b718:	6e6e6143 	powvsem	f6, f6, f3
   1b71c:	6720746f 	strvs	r7, [r0, -pc, ror #8]!
   1b720:	68207465 	stmdavs	r0!, {r0, r2, r5, r6, sl, ip, sp, lr}
   1b724:	73206275 	teqvc	r0, #1342177287	; 0x50000007
   1b728:	75746174 	ldrbvc	r6, [r4, #-372]!	; 0xfffffe8c
   1b72c:	00000073 	andeq	r0, r0, r3, ror r0
   1b730:	20627548 	rsbcs	r7, r2, r8, asr #10
   1b734:	7265766f 	rsbvc	r7, r5, #116391936	; 0x6f00000
   1b738:	7275632d 	rsbsvc	r6, r5, #-1275068416	; 0xb4000000
   1b73c:	746e6572 	strbtvc	r6, [lr], #-1394	; 0xfffffa8e
   1b740:	6e6f6320 	cdpvs	3, 6, cr6, cr15, cr0, {1}
   1b744:	69746964 	ldmdbvs	r4!, {r2, r5, r6, r8, fp, sp, lr}^
   1b748:	00006e6f 	andeq	r6, r0, pc, ror #28
   1b74c:	76654470 			; <UNDEFINED> instruction: 0x76654470
   1b750:	44656369 	strbtmi	r6, [r5], #-873	; 0xfffffc97
   1b754:	20637365 	rsbcs	r7, r3, r5, ror #6
   1b758:	30203d21 	eorcc	r3, r0, r1, lsr #26
   1b75c:	00000000 	andeq	r0, r0, r0
   1b760:	75736e55 	ldrbvc	r6, [r3, #-3669]!	; 0xfffff1ab
   1b764:	726f7070 	rsbvc	r7, pc, #112	; 0x70
   1b768:	20646574 	rsbcs	r6, r4, r4, ror r5
   1b76c:	20627568 	rsbcs	r7, r2, r8, ror #10
   1b770:	6f727028 	svcvs	0x00727028
   1b774:	25206f74 	strcs	r6, [r0, #-3956]!	; 0xfffff08c
   1b778:	00002975 	andeq	r2, r0, r5, ror r9
   1b77c:	69685470 	stmdbvs	r8!, {r4, r5, r6, sl, ip, lr}^
   1b780:	6d3e2d73 	ldcvs	13, cr2, [lr, #-460]!	; 0xfffffe34
   1b784:	7548705f 	strbvc	r7, [r8, #-95]	; 0xffffffa1
   1b788:	73654462 	cmnvc	r5, #1644167168	; 0x62000000
   1b78c:	3d3d2063 	ldccc	0, cr2, [sp, #-396]!	; 0xfffffe74
   1b790:	00003020 	andeq	r3, r0, r0, lsr #32
   1b794:	69685470 	stmdbvs	r8!, {r4, r5, r6, sl, ip, lr}^
   1b798:	6d3e2d73 	ldcvs	13, cr2, [lr, #-460]!	; 0xfffffe34
   1b79c:	7548705f 	strbvc	r7, [r8, #-95]	; 0xffffffa1
   1b7a0:	73654462 	cmnvc	r5, #1644167168	; 0x62000000
   1b7a4:	3d212063 	stccc	0, cr2, [r1, #-396]!	; 0xfffffe74
   1b7a8:	00003020 	andeq	r3, r0, r0, lsr #32
   1b7ac:	6e6e6143 	powvsem	f6, f6, f3
   1b7b0:	6720746f 	strvs	r7, [r0, -pc, ror #8]!
   1b7b4:	68207465 	stmdavs	r0!, {r0, r2, r5, r6, sl, ip, sp, lr}
   1b7b8:	64206275 	strtvs	r6, [r0], #-629	; 0xfffffd8b
   1b7bc:	72637365 	rsbvc	r7, r3, #-1811939327	; 0x94000001
   1b7c0:	6f747069 	svcvs	0x00747069
   1b7c4:	00000072 	andeq	r0, r0, r2, ror r0
   1b7c8:	206f6f54 	rsbcs	r6, pc, r4, asr pc	; <UNPREDICTABLE>
   1b7cc:	796e616d 	stmdbvc	lr!, {r0, r2, r3, r5, r6, r8, sp, lr}^
   1b7d0:	726f7020 	rsbvc	r7, pc, #32
   1b7d4:	28207374 	stmdacs	r0!, {r2, r4, r5, r6, r8, r9, ip, sp, lr}
   1b7d8:	00297525 	eoreq	r7, r9, r5, lsr #10
   1b7dc:	74726f50 	ldrbtvc	r6, [r2], #-3920	; 0xfffff0b0
   1b7e0:	756e6520 	strbvc	r6, [lr, #-1312]!	; 0xfffffae0
   1b7e4:	6172656d 	cmnvs	r2, sp, ror #10
   1b7e8:	6e6f6974 	mcrvs	9, 3, r6, cr15, cr4, {3}
   1b7ec:	69616620 	stmdbvs	r1!, {r5, r9, sl, sp, lr}^
   1b7f0:	0064656c 	rsbeq	r6, r4, ip, ror #10

0001b7f4 <s_DefaultMap>:
	...
   1b800:	62004161 	andvs	r4, r0, #1073741848	; 0x40000018
   1b804:	43630042 	cmnmi	r3, #66	; 0x42
   1b808:	00446400 	subeq	r6, r4, r0, lsl #8
   1b80c:	66004565 	strvs	r4, [r0], -r5, ror #10
   1b810:	47670046 	strbmi	r0, [r7, -r6, asr #32]!
   1b814:	00486800 	subeq	r6, r8, r0, lsl #16
   1b818:	6a004969 	bvs	2ddc4 <_end+0x10d08>
   1b81c:	4b6b004a 	blmi	1adb94c <_end+0x1abe890>
   1b820:	004c6c00 	subeq	r6, ip, r0, lsl #24
   1b824:	6e004d6d 	cdpvs	13, 0, cr4, cr0, cr13, {3}
   1b828:	4f6f004e 	svcmi	0x006f004e
   1b82c:	00507000 	subseq	r7, r0, r0
   1b830:	72005171 	andvc	r5, r0, #1073741852	; 0x4000001c
   1b834:	53730052 	cmnpl	r3, #82	; 0x52
   1b838:	00547400 	subseq	r7, r4, r0, lsl #8
   1b83c:	76005575 			; <UNDEFINED> instruction: 0x76005575
   1b840:	57770056 			; <UNDEFINED> instruction: 0x57770056
   1b844:	00587800 	subseq	r7, r8, r0, lsl #16
   1b848:	7a005979 	bvc	31e34 <_end+0x14d78>
   1b84c:	2131005a 	teqcs	r1, sl, asr r0
   1b850:	00223200 	eoreq	r3, r2, r0, lsl #4
   1b854:	34002333 	strcc	r2, [r0], #-819	; 0xfffffccd
   1b858:	25350024 	ldrcs	r0, [r5, #-36]!	; 0xffffffdc
   1b85c:	005e3600 	subseq	r3, lr, r0, lsl #12
   1b860:	38002637 	stmdacc	r0, {r0, r1, r2, r4, r5, r9, sl, sp}
   1b864:	2839002a 	ldmdacs	r9!, {r1, r3, r5}
   1b868:	00293000 	eoreq	r3, r9, r0
   1b86c:	81008484 	smlabbhi	r0, r4, r4, r8
   1b870:	82820081 	addhi	r0, r2, #129	; 0x81
   1b874:	00838300 	addeq	r8, r3, r0, lsl #6
   1b878:	2d008080 	stccs	0, cr8, [r0, #-512]	; 0xfffffe00
   1b87c:	2b3d005f 	blcs	f5ba00 <_end+0xf3e944>
   1b880:	007b5b00 	rsbseq	r5, fp, r0, lsl #22
   1b884:	23007d5d 	movwcs	r7, #3421	; 0xd5d
   1b888:	7e23007e 	mcrvc	0, 1, r0, cr3, cr14, {3}
   1b88c:	003a3b00 	eorseq	r3, sl, r0, lsl #22
   1b890:	60004027 	andvs	r4, r0, r7, lsr #32
   1b894:	3c2c7c00 	stccc	12, cr7, [ip], #-0
   1b898:	003e2e00 	eorseq	r2, lr, r0, lsl #28
   1b89c:	9c003f2f 	stcls	15, cr3, [r0], {47}	; 0x2f
   1b8a0:	008f009c 	umulleq	r0, pc, ip, r0	; <UNPREDICTABLE>
   1b8a4:	00009000 	andeq	r9, r0, r0
   1b8a8:	92000091 	andls	r0, r0, #145	; 0x91
   1b8ac:	00930000 	addseq	r0, r3, r0
   1b8b0:	00009400 	andeq	r9, r0, r0, lsl #8
   1b8b4:	96000095 			; <UNDEFINED> instruction: 0x96000095
   1b8b8:	00970000 	addseq	r0, r7, r0
   1b8bc:	00009800 	andeq	r9, r0, r0, lsl #16
   1b8c0:	9a000099 	bls	1bb2c <s_KeyStrings+0x1b8>
   1b8c4:	009d0000 	addseq	r0, sp, r0
   1b8c8:	00009e00 	andeq	r9, r0, r0, lsl #28
   1b8cc:	8500009f 	strhi	r0, [r0, #-159]	; 0xffffff61
   1b8d0:	00860000 	addeq	r0, r6, r0
   1b8d4:	00008700 	andeq	r8, r0, r0, lsl #14
   1b8d8:	89000088 	stmdbhi	r0, {r3, r7}
   1b8dc:	008a0000 	addeq	r0, sl, r0
   1b8e0:	00008e00 	andeq	r8, r0, r0, lsl #28
   1b8e4:	8c00008d 	stchi	0, cr0, [r0], {141}	; 0x8d
   1b8e8:	008b0000 	addeq	r0, fp, r0
   1b8ec:	00a0a000 	adceq	sl, r0, r0
   1b8f0:	a200a1a1 	andge	sl, r0, #1073741864	; 0x40000028
   1b8f4:	a3a300a2 			; <UNDEFINED> instruction: 0xa3a300a2
   1b8f8:	00a4a400 	adceq	sl, r4, r0, lsl #8
   1b8fc:	8900a5a5 	stmdbhi	r0, {r0, r2, r5, r7, r8, sl, sp, pc}
   1b900:	a78c00a6 	strge	r0, [ip, r6, lsr #1]
   1b904:	00a88a00 	adceq	r8, r8, r0, lsl #20
   1b908:	b000a98d 	andlt	sl, r0, sp, lsl #19
   1b90c:	ab8e00aa 	blge	fe39bbbc <_end+0xfe37eb00>
   1b910:	00ac8600 	adceq	r8, ip, r0, lsl #12
   1b914:	8700ad8b 	strhi	sl, [r0, -fp, lsl #27]
   1b918:	af8500ae 	svcge	0x008500ae
   1b91c:	00b28800 	adcseq	r8, r2, r0, lsl #16
   1b920:	9b007c5c 	blls	3aa98 <_end+0x1d9dc>
   1b924:	0000009b 	muleq	r0, fp, r0
	...

0001b974 <s_KeyStrings>:
   1b974:	0001ba4c 	andeq	fp, r1, ip, asr #20
   1b978:	0001ba50 	andeq	fp, r1, r0, asr sl
   1b97c:	0001ba54 	andeq	fp, r1, r4, asr sl
   1b980:	0001ba58 	andeq	fp, r1, r8, asr sl
   1b984:	0001ba5c 	andeq	fp, r1, ip, asr sl
   1b988:	0001ba60 	andeq	fp, r1, r0, ror #20
   1b98c:	0001ba68 	andeq	fp, r1, r8, ror #20
   1b990:	0001ba70 	andeq	fp, r1, r0, ror sl
   1b994:	0001ba78 	andeq	fp, r1, r8, ror sl
   1b998:	0001ba80 	andeq	fp, r1, r0, lsl #21
   1b99c:	0001ba88 	andeq	fp, r1, r8, lsl #21
   1b9a0:	0001ba90 	muleq	r1, r0, sl
   1b9a4:	0001ba94 	muleq	r1, r4, sl
   1b9a8:	0001ba98 	muleq	r1, r8, sl
   1b9ac:	0001ba9c 	muleq	r1, ip, sl
   1b9b0:	0001baa0 	andeq	fp, r1, r0, lsr #21
   1b9b4:	0001baa8 	andeq	fp, r1, r8, lsr #21
   1b9b8:	0001bab0 			; <UNDEFINED> instruction: 0x0001bab0
   1b9bc:	0001bab8 			; <UNDEFINED> instruction: 0x0001bab8
   1b9c0:	0001bac0 	andeq	fp, r1, r0, asr #21
   1b9c4:	0001bac8 	andeq	fp, r1, r8, asr #21
   1b9c8:	0001bad0 	ldrdeq	fp, [r1], -r0
   1b9cc:	0001bad8 	ldrdeq	fp, [r1], -r8
   1b9d0:	0001bae0 	andeq	fp, r1, r0, ror #21
	...
   1b9f8:	0001bae8 	andeq	fp, r1, r8, ror #21
   1b9fc:	0001baec 	andeq	fp, r1, ip, ror #21
   1ba00:	0001baf0 	strdeq	fp, [r1], -r0
   1ba04:	0001baf4 	strdeq	fp, [r1], -r4
   1ba08:	0001ba5c 	andeq	fp, r1, ip, asr sl
   1ba0c:	00019c2c 	andeq	r9, r1, ip, lsr #24
   1ba10:	0001b354 	andeq	fp, r1, r4, asr r3
   1ba14:	0001baf8 	strdeq	fp, [r1], -r8
   1ba18:	0001bafc 	strdeq	fp, [r1], -ip
   1ba1c:	0001bb00 	andeq	fp, r1, r0, lsl #22
   1ba20:	0001bb04 	andeq	fp, r1, r4, lsl #22
   1ba24:	0001bb08 	andeq	fp, r1, r8, lsl #22
   1ba28:	0001a490 	muleq	r1, r0, r4
   1ba2c:	0001bb0c 	andeq	fp, r1, ip, lsl #22
   1ba30:	0001be18 	andeq	fp, r1, r8, lsl lr
   1ba34:	0001bb10 	andeq	fp, r1, r0, lsl fp
   1ba38:	0001bb14 	andeq	fp, r1, r4, lsl fp
   1ba3c:	0001bb18 	andeq	fp, r1, r8, lsl fp
   1ba40:	6d79656b 	cfldr64vs	mvdx6, [r9, #-428]!	; 0xfffffe54
   1ba44:	632e7061 	teqvs	lr, #97	; 0x61
   1ba48:	00000000 	andeq	r0, r0, r0
   1ba4c:	00000020 	andeq	r0, r0, r0, lsr #32
   1ba50:	0000001b 	andeq	r0, r0, fp, lsl r0
   1ba54:	0000007f 	andeq	r0, r0, pc, ror r0
   1ba58:	00000009 	andeq	r0, r0, r9
   1ba5c:	0000000a 	andeq	r0, r0, sl
   1ba60:	7e325b1b 	vmovvc.32	r5, d2[1]
   1ba64:	00000000 	andeq	r0, r0, r0
   1ba68:	7e315b1b 	vmovvc.32	r5, d1[1]
   1ba6c:	00000000 	andeq	r0, r0, r0
   1ba70:	7e355b1b 	vmovvc.32	r5, d5[1]
   1ba74:	00000000 	andeq	r0, r0, r0
   1ba78:	7e335b1b 	vmovvc.32	r5, d3[1]
   1ba7c:	00000000 	andeq	r0, r0, r0
   1ba80:	7e345b1b 	vmovvc.32	r5, d4[1]
   1ba84:	00000000 	andeq	r0, r0, r0
   1ba88:	7e365b1b 	vmovvc.32	r5, d6[1]
   1ba8c:	00000000 	andeq	r0, r0, r0
   1ba90:	00415b1b 	subeq	r5, r1, fp, lsl fp
   1ba94:	00425b1b 	subeq	r5, r2, fp, lsl fp
   1ba98:	00445b1b 	subeq	r5, r4, fp, lsl fp
   1ba9c:	00435b1b 	subeq	r5, r3, fp, lsl fp
   1baa0:	415b5b1b 	cmpmi	fp, fp, lsl fp
   1baa4:	00000000 	andeq	r0, r0, r0
   1baa8:	425b5b1b 	subsmi	r5, fp, #27648	; 0x6c00
   1baac:	00000000 	andeq	r0, r0, r0
   1bab0:	435b5b1b 	cmpmi	fp, #27648	; 0x6c00
   1bab4:	00000000 	andeq	r0, r0, r0
   1bab8:	445b5b1b 	ldrbmi	r5, [fp], #-2843	; 0xfffff4e5
   1babc:	00000000 	andeq	r0, r0, r0
   1bac0:	455b5b1b 	ldrbmi	r5, [fp, #-2843]	; 0xfffff4e5
   1bac4:	00000000 	andeq	r0, r0, r0
   1bac8:	37315b1b 			; <UNDEFINED> instruction: 0x37315b1b
   1bacc:	0000007e 	andeq	r0, r0, lr, ror r0
   1bad0:	38315b1b 	ldmdacc	r1!, {r0, r1, r3, r4, r8, r9, fp, ip, lr}
   1bad4:	0000007e 	andeq	r0, r0, lr, ror r0
   1bad8:	39315b1b 	ldmdbcc	r1!, {r0, r1, r3, r4, r8, r9, fp, ip, lr}
   1badc:	0000007e 	andeq	r0, r0, lr, ror r0
   1bae0:	30325b1b 	eorscc	r5, r2, fp, lsl fp
   1bae4:	0000007e 	andeq	r0, r0, lr, ror r0
   1bae8:	0000002f 	andeq	r0, r0, pc, lsr #32
   1baec:	0000002a 	andeq	r0, r0, sl, lsr #32
   1baf0:	0000002d 	andeq	r0, r0, sp, lsr #32
   1baf4:	0000002b 	andeq	r0, r0, fp, lsr #32
   1baf8:	00000033 	andeq	r0, r0, r3, lsr r0
   1bafc:	00000034 	andeq	r0, r0, r4, lsr r0
   1bb00:	00000035 	andeq	r0, r0, r5, lsr r0
   1bb04:	00000036 	andeq	r0, r0, r6, lsr r0
   1bb08:	00000037 	andeq	r0, r0, r7, lsr r0
   1bb0c:	00000039 	andeq	r0, r0, r9, lsr r0
   1bb10:	00475b1b 	subeq	r5, r7, fp, lsl fp
   1bb14:	0000002c 	andeq	r0, r0, ip, lsr #32
   1bb18:	0000002e 	andeq	r0, r0, lr, lsr #32
   1bb1c:	4e705f73 	mrcmi	15, 3, r5, cr0, cr3, {3}
   1bb20:	42747865 	rsbsmi	r7, r4, #6619136	; 0x650000
   1bb24:	6b636f6c 	blvs	18f78dc <_end+0x18da820>
   1bb28:	203d2120 	eorscs	r2, sp, r0, lsr #2
   1bb2c:	00000030 	andeq	r0, r0, r0, lsr r0
   1bb30:	6f6c6c61 	svcvs	0x006c6c61
   1bb34:	00632e63 	rsbeq	r2, r3, r3, ror #28
   1bb38:	6f6c4270 	svcvs	0x006c4270
   1bb3c:	65486b63 	strbvs	r6, [r8, #-2915]	; 0xfffff49d
   1bb40:	72656461 	rsbvc	r6, r5, #1627389952	; 0x61000000
   1bb44:	4d6e3e2d 	stclmi	14, cr3, [lr, #-180]!	; 0xffffff4c
   1bb48:	63696761 	cmnvs	r9, #25427968	; 0x1840000
   1bb4c:	203d3d20 	eorscs	r3, sp, r0, lsr #26
   1bb50:	434f4c42 	movtmi	r4, #64578	; 0xfc42
   1bb54:	414d5f4b 	cmpmi	sp, fp, asr #30
   1bb58:	00434947 	subeq	r4, r3, r7, asr #18
   1bb5c:	6e752828 	cdpvs	8, 7, cr2, cr5, cr8, {1}
   1bb60:	6e676973 	mcrvs	9, 3, r6, cr7, cr3, {3}
   1bb64:	6c206465 	cfstrsvs	mvf6, [r0], #-404	; 0xfffffe6c
   1bb68:	29676e6f 	stmdbcs	r7!, {r0, r1, r2, r3, r5, r6, r9, sl, fp, sp, lr}^
   1bb6c:	65527020 	ldrbvs	r7, [r2, #-32]	; 0xffffffe0
   1bb70:	746c7573 	strbtvc	r7, [ip], #-1395	; 0xfffffa8d
   1bb74:	41202620 	teqmi	r0, r0, lsr #12
   1bb78:	4e47494c 	cdpmi	9, 4, cr4, cr7, cr12, {2}
   1bb7c:	53414d5f 	movtpl	r4, #7519	; 0x1d5f
   1bb80:	3d20294b 	stccc	9, cr2, [r0, #-300]!	; 0xfffffed4
   1bb84:	0030203d 	eorseq	r2, r0, sp, lsr r0
   1bb88:	6f6c4270 	svcvs	0x006c4270
   1bb8c:	21206b63 	teqcs	r0, r3, ror #22
   1bb90:	0030203d 	eorseq	r2, r0, sp, lsr r0
   1bb94:	4e705f73 	mrcmi	15, 3, r5, cr0, cr3, {3}
   1bb98:	50747865 	rsbspl	r7, r4, r5, ror #16
   1bb9c:	20656761 	rsbcs	r6, r5, r1, ror #14
   1bba0:	30203d21 	eorcc	r3, r0, r1, lsr #26
   1bba4:	00000000 	andeq	r0, r0, r0
   1bba8:	65724670 	ldrbvs	r4, [r2, #-1648]!	; 0xfffff990
   1bbac:	67615065 	strbvs	r5, [r1, -r5, rrx]!
   1bbb0:	6e3e2d65 	cdpvs	13, 3, cr2, cr14, cr5, {3}
   1bbb4:	6967614d 	stmdbvs	r7!, {r0, r2, r3, r6, r8, sp, lr}^
   1bbb8:	3d3d2063 	ldccc	0, cr2, [sp, #-396]!	; 0xfffffe74
   1bbbc:	45524620 	ldrbmi	r4, [r2, #-1568]	; 0xfffff9e0
   1bbc0:	47415045 	strbmi	r5, [r1, -r5, asr #32]
   1bbc4:	414d5f45 	cmpmi	sp, r5, asr #30
   1bbc8:	00434947 	subeq	r4, r3, r7, asr #18
   1bbcc:	67615070 			; <UNDEFINED> instruction: 0x67615070
   1bbd0:	3d212065 	stccc	0, cr2, [r1, #-404]!	; 0xfffffe6c
   1bbd4:	00003020 	andeq	r3, r0, r0, lsr #32
   1bbd8:	25287325 	strcs	r7, [r8, #-805]!	; 0xfffffcdb
   1bbdc:	00002975 	andeq	r2, r0, r5, ror r9
   1bbe0:	65737361 	ldrbvs	r7, [r3, #-865]!	; 0xfffffc9f
   1bbe4:	6f697472 	svcvs	0x00697472
   1bbe8:	6166206e 	cmnvs	r6, lr, rrx
   1bbec:	64656c69 	strbtvs	r6, [r5], #-3177	; 0xfffff397
   1bbf0:	7325203a 	teqvc	r5, #58	; 0x3a
   1bbf4:	00000000 	andeq	r0, r0, r0

0001bbf8 <FromDebug>:
   1bbf8:	75626564 	strbvc	r6, [r2, #-1380]!	; 0xfffffa9c
   1bbfc:	00000067 	andeq	r0, r0, r7, rrx
   1bc00:	706d7544 	rsbvc	r7, sp, r4, asr #10
   1bc04:	20676e69 	rsbcs	r6, r7, r9, ror #28
   1bc08:	58257830 	stmdapl	r5!, {r4, r5, fp, ip, sp, lr}
   1bc0c:	74796220 	ldrbtvc	r6, [r9], #-544	; 0xfffffde0
   1bc10:	73207365 	teqvc	r0, #-1811939327	; 0x94000001
   1bc14:	74726174 	ldrbtvc	r6, [r2], #-372	; 0xfffffe8c
   1bc18:	20676e69 	rsbcs	r6, r7, r9, ror #28
   1bc1c:	30207461 	eorcc	r7, r0, r1, ror #8
   1bc20:	00582578 	subseq	r2, r8, r8, ror r5
   1bc24:	58343025 	ldmdapl	r4!, {r0, r2, r5, ip, sp}
   1bc28:	3025203a 	eorcc	r2, r5, sl, lsr r0
   1bc2c:	25205832 	strcs	r5, [r0, #-2098]!	; 0xfffff7ce
   1bc30:	20583230 	subscs	r3, r8, r0, lsr r2
   1bc34:	58323025 	ldmdapl	r2!, {r0, r2, r5, ip, sp}
   1bc38:	32302520 	eorscc	r2, r0, #32, 10	; 0x8000000
   1bc3c:	30252058 	eorcc	r2, r5, r8, asr r0
   1bc40:	25205832 	strcs	r5, [r0, #-2098]!	; 0xfffff7ce
   1bc44:	20583230 	subscs	r3, r8, r0, lsr r2
   1bc48:	58323025 	ldmdapl	r2!, {r0, r2, r5, ip, sp}
   1bc4c:	32302520 	eorscc	r2, r0, #32, 10	; 0x8000000
   1bc50:	30252d58 	eorcc	r2, r5, r8, asr sp
   1bc54:	25205832 	strcs	r5, [r0, #-2098]!	; 0xfffff7ce
   1bc58:	20583230 	subscs	r3, r8, r0, lsr r2
   1bc5c:	58323025 	ldmdapl	r2!, {r0, r2, r5, ip, sp}
   1bc60:	32302520 	eorscc	r2, r0, #32, 10	; 0x8000000
   1bc64:	30252058 	eorcc	r2, r5, r8, asr r0
   1bc68:	25205832 	strcs	r5, [r0, #-2098]!	; 0xfffff7ce
   1bc6c:	20583230 	subscs	r3, r8, r0, lsr r2
   1bc70:	58323025 	ldmdapl	r2!, {r0, r2, r5, ip, sp}
   1bc74:	32302520 	eorscc	r2, r0, #32, 10	; 0x8000000
   1bc78:	00000058 	andeq	r0, r0, r8, asr r0
   1bc7c:	63617473 	cmnvs	r1, #1929379840	; 0x73000000
   1bc80:	75255b6b 	strvc	r5, [r5, #-2923]!	; 0xfffff495
   1bc84:	7369205d 	cmnvc	r9, #93	; 0x5d
   1bc88:	25783020 	ldrbcs	r3, [r8, #-32]!	; 0xffffffe0
   1bc8c:	00000058 	andeq	r0, r0, r8, asr r0
   1bc90:	6d315b1b 	fldmdbxvs	r1!, {d5-d17}	;@ Deprecated
   1bc94:	00000000 	andeq	r0, r0, r0
   1bc98:	0000203a 	andeq	r2, r0, sl, lsr r0
   1bc9c:	6d305b1b 	fldmdbxvs	r0!, {d5-d17}	;@ Deprecated
   1bca0:	00000000 	andeq	r0, r0, r0
   1bca4:	67676f6c 	strbvs	r6, [r7, -ip, ror #30]!
   1bca8:	00007265 	andeq	r7, r0, r5, ror #4
   1bcac:	67676f4c 	strbvs	r6, [r7, -ip, asr #30]!
   1bcb0:	20676e69 	rsbcs	r6, r7, r9, ror #28
   1bcb4:	72617473 	rsbvc	r7, r1, #1929379840	; 0x73000000
   1bcb8:	00646574 	rsbeq	r6, r4, r4, ror r5

0001bcbc <chChars.3998>:
   1bcbc:	2f7c5c2d 	svccs	0x007c5c2d
   1bcc0:	00000000 	andeq	r0, r0, r0
   1bcc4:	656d6974 	strbvs	r6, [sp, #-2420]!	; 0xfffff68c
   1bcc8:	00632e72 	rsbeq	r2, r3, r2, ror lr
   1bccc:	75323025 	ldrvc	r3, [r2, #-37]!	; 0xffffffdb
   1bcd0:	3230253a 	eorscc	r2, r0, #243269632	; 0xe800000
   1bcd4:	30253a75 	eorcc	r3, r5, r5, ror sl
   1bcd8:	252e7532 	strcs	r7, [lr, #-1330]!	; 0xffffface
   1bcdc:	756c3230 	strbvc	r3, [ip, #-560]!	; 0xfffffdd0
   1bce0:	00000000 	andeq	r0, r0, r0
   1bce4:	6e614870 	mcrvs	8, 3, r4, cr1, cr0, {3}
   1bce8:	72656c64 	rsbvc	r6, r5, #100, 24	; 0x6400
   1bcec:	203d2120 	eorscs	r2, sp, r0, lsr #2
   1bcf0:	00000030 	andeq	r0, r0, r0, lsr r0
   1bcf4:	656d6974 	strbvs	r6, [sp, #-2420]!	; 0xfffff68c
   1bcf8:	00000072 	andeq	r0, r0, r2, ror r0
   1bcfc:	74737953 	ldrbtvc	r7, [r3], #-2387	; 0xfffff6ad
   1bd00:	6c206d65 	stcvs	13, cr6, [r0], #-404	; 0xfffffe6c
   1bd04:	74696d69 	strbtvc	r6, [r9], #-3433	; 0xfffff297
   1bd08:	20666f20 	rsbcs	r6, r6, r0, lsr #30
   1bd0c:	6e72656b 	cdpvs	5, 7, cr6, cr2, cr11, {3}
   1bd10:	74206c65 	strtvc	r6, [r0], #-3173	; 0xfffff39b
   1bd14:	72656d69 	rsbvc	r6, r5, #6720	; 0x1a40
   1bd18:	78652073 	stmdavc	r5!, {r0, r1, r4, r5, r6, sp}^
   1bd1c:	64656563 	strbtvs	r6, [r5], #-1379	; 0xfffffa9d
   1bd20:	00006465 	andeq	r6, r0, r5, ror #8
   1bd24:	3d3c2031 	ldccc	0, cr2, [ip, #-196]!	; 0xffffff3c
   1bd28:	69546820 	ldmdbvs	r4, {r5, fp, sp, lr}^
   1bd2c:	2072656d 	rsbscs	r6, r2, sp, ror #10
   1bd30:	68202626 	stmdavs	r0!, {r1, r2, r5, r9, sl, sp}
   1bd34:	656d6954 	strbvs	r6, [sp, #-2388]!	; 0xfffff6ac
   1bd38:	3d3c2072 	ldccc	0, cr2, [ip, #-456]!	; 0xfffffe38
   1bd3c:	52454b20 	subpl	r4, r5, #32, 22	; 0x8000
   1bd40:	5f4c454e 	svcpl	0x004c454e
   1bd44:	454d4954 	strbmi	r4, [sp, #-2388]	; 0xfffff6ac
   1bd48:	00005352 	andeq	r5, r0, r2, asr r3
   1bd4c:	64616572 	strbtvs	r6, [r1], #-1394	; 0xfffffa8e
   1bd50:	28203233 	stmdacs	r0!, {r0, r1, r4, r5, r9, ip, sp}
   1bd54:	5f4d5241 	svcpl	0x004d5241
   1bd58:	54535953 	ldrbpl	r5, [r3], #-2387	; 0xfffff6ad
   1bd5c:	52454d49 	subpl	r4, r5, #4672	; 0x1240
   1bd60:	2953435f 	ldmdbcs	r3, {r0, r1, r2, r3, r4, r6, r8, r9, lr}^
   1bd64:	28202620 	stmdacs	r0!, {r5, r9, sl, sp}
   1bd68:	3c3c2031 	ldccc	0, cr2, [ip], #-196	; 0xffffff3c
   1bd6c:	00293320 	eoreq	r3, r9, r0, lsr #6
   1bd70:	69685470 	stmdbvs	r8!, {r4, r5, r6, sl, ip, lr}^
   1bd74:	6d3e2d73 	ldcvs	13, cr2, [lr, #-460]!	; 0xfffffe34
   1bd78:	6e49705f 	mcrvs	0, 2, r7, cr9, cr15, {2}
   1bd7c:	72726574 	rsbsvc	r6, r2, #116, 10	; 0x1d000000
   1bd80:	53747075 	cmnpl	r4, #117	; 0x75
   1bd84:	65747379 	ldrbvs	r7, [r4, #-889]!	; 0xfffffc87
   1bd88:	3d21206d 	stccc	0, cr2, [r1, #-436]!	; 0xfffffe4c
   1bd8c:	00003020 	andeq	r3, r0, r0, lsr #32
   1bd90:	6f6d656d 	svcvs	0x006d656d
   1bd94:	632e7972 	teqvs	lr, #1867776	; 0x1c8000
   1bd98:	00000000 	andeq	r0, r0, r0
   1bd9c:	69685470 	stmdbvs	r8!, {r4, r5, r6, sl, ip, lr}^
   1bda0:	6d3e2d73 	ldcvs	13, cr2, [lr, #-460]!	; 0xfffffe34
   1bda4:	6e45625f 	mcrvs	2, 2, r6, cr5, cr15, {2}
   1bda8:	656c6261 	strbvs	r6, [ip, #-609]!	; 0xfffffd9f
   1bdac:	00554d4d 	subseq	r4, r5, sp, asr #26
   1bdb0:	546e2821 	strbtpl	r2, [lr], #-2081	; 0xfffff7df
   1bdb4:	7954424c 	ldmdbvc	r4, {r2, r3, r6, r9, lr}^
   1bdb8:	26206570 			; <UNDEFINED> instruction: 0x26206570
   1bdbc:	4d524120 	ldfmie	f4, [r2, #-128]	; 0xffffff80
   1bdc0:	424c545f 	submi	r5, ip, #1593835520	; 0x5f000000
   1bdc4:	5059545f 	subspl	r5, r9, pc, asr r4
   1bdc8:	45535f45 	ldrbmi	r5, [r3, #-3909]	; 0xfffff0bb
   1bdcc:	41524150 	cmpmi	r2, r0, asr r1
   1bdd0:	545f4554 	ldrbpl	r4, [pc], #-1364	; 1bdd8 <chChars.3998+0x11c>
   1bdd4:	2953424c 	ldmdbcs	r3, {r2, r3, r6, r9, lr}^
   1bdd8:	00000000 	andeq	r0, r0, r0
   1bddc:	69685470 	stmdbvs	r8!, {r4, r5, r6, sl, ip, lr}^
   1bde0:	6d3e2d73 	ldcvs	13, cr2, [lr, #-460]!	; 0xfffffe34
   1bde4:	6150705f 	cmpvs	r0, pc, asr r0
   1bde8:	61546567 	cmpvs	r4, r7, ror #10
   1bdec:	30656c62 	rsbcc	r6, r5, r2, ror #24
   1bdf0:	61666544 	cmnvs	r6, r4, asr #10
   1bdf4:	20746c75 	rsbscs	r6, r4, r5, ror ip
   1bdf8:	30203d21 	eorcc	r3, r0, r1, lsr #26
   1bdfc:	00000000 	andeq	r0, r0, r0
   1be00:	69685470 	stmdbvs	r8!, {r4, r5, r6, sl, ip, lr}^
   1be04:	6d3e2d73 	ldcvs	13, cr2, [lr, #-460]!	; 0xfffffe34
   1be08:	6150705f 	cmpvs	r0, pc, asr r0
   1be0c:	61546567 	cmpvs	r4, r7, ror #10
   1be10:	31656c62 	cmncc	r5, r2, ror #24
   1be14:	203d2120 	eorscs	r2, sp, r0, lsr #2
   1be18:	00000030 	andeq	r0, r0, r0, lsr r0
   1be1c:	4d676154 	stfmie	f6, [r7, #-336]!	; 0xfffffeb0
   1be20:	726f6d65 	rsbvc	r6, pc, #6464	; 0x1940
   1be24:	426e2e79 	rsbmi	r2, lr, #1936	; 0x790
   1be28:	41657361 	cmnmi	r5, r1, ror #6
   1be2c:	65726464 	ldrbvs	r6, [r2, #-1124]!	; 0xfffffb9c
   1be30:	3d207373 	stccc	3, cr7, [r0, #-460]!	; 0xfffffe34
   1be34:	0030203d 	eorseq	r2, r0, sp, lsr r0
   1be38:	65676170 	strbvs	r6, [r7, #-368]!	; 0xfffffe90
   1be3c:	6c626174 	stfvse	f6, [r2], #-464	; 0xfffffe30
   1be40:	00632e65 	rsbeq	r2, r3, r5, ror #28
   1be44:	69685470 	stmdbvs	r8!, {r4, r5, r6, sl, ip, lr}^
   1be48:	6d3e2d73 	ldcvs	13, cr2, [lr, #-460]!	; 0xfffffe34
   1be4c:	6154705f 	cmpvs	r4, pc, asr r0
   1be50:	20656c62 	rsbcs	r6, r5, r2, ror #24
   1be54:	30203d21 	eorcc	r3, r0, r1, lsr #26
   1be58:	00000000 	andeq	r0, r0, r0
   1be5c:	33752828 	cmncc	r5, #40, 16	; 0x280000
   1be60:	70202932 	eorvc	r2, r0, r2, lsr r9
   1be64:	73696854 	cmnvc	r9, #84, 16	; 0x540000
   1be68:	5f6d3e2d 	svcpl	0x006d3e2d
   1be6c:	62615470 	rsbvs	r5, r1, #112, 8	; 0x70000000
   1be70:	2620656c 	strtcs	r6, [r0], -ip, ror #10
   1be74:	46783020 	ldrbtmi	r3, [r8], -r0, lsr #32
   1be78:	20294646 	eorcs	r4, r9, r6, asr #12
   1be7c:	30203d3d 	eorcc	r3, r0, sp, lsr sp
   1be80:	00000000 	andeq	r0, r0, r0

0001be84 <FromExcept>:
   1be84:	65637865 	strbvs	r7, [r3, #-2149]!	; 0xfffff79b
   1be88:	00007470 	andeq	r7, r0, r0, ror r4

0001be8c <s_pExceptionName>:
   1be8c:	0001bf0c 	andeq	fp, r1, ip, lsl #30
   1be90:	0001bf20 	andeq	fp, r1, r0, lsr #30
   1be94:	0001bf38 	andeq	fp, r1, r8, lsr pc
   1be98:	0001bf48 	andeq	fp, r1, r8, asr #30
   1be9c:	65637865 	strbvs	r7, [r3, #-2149]!	; 0xfffff79b
   1bea0:	6f697470 	svcvs	0x00697470
   1bea4:	6e61686e 	cdpvs	8, 6, cr6, cr1, cr14, {3}
   1bea8:	72656c64 	rsbvc	r6, r5, #100, 24	; 0x6400
   1beac:	0000632e 	andeq	r6, r0, lr, lsr #6
   1beb0:	65637845 	strbvs	r7, [r3, #-2117]!	; 0xfffff7bb
   1beb4:	6f697470 	svcvs	0x00697470
   1beb8:	25203a6e 	strcs	r3, [r0, #-2670]!	; 0xfffff592
   1bebc:	00000073 	andeq	r0, r0, r3, ror r0
   1bec0:	61724670 	cmnvs	r2, r0, ror r6
   1bec4:	2120656d 	teqcs	r0, sp, ror #10
   1bec8:	0030203d 	eorseq	r2, r0, sp, lsr r0
   1becc:	28207325 	stmdacs	r0!, {r0, r2, r5, r8, r9, ip, sp, lr}
   1bed0:	30204350 	eorcc	r4, r0, r0, asr r3
   1bed4:	2c582578 	cfldr64cs	mvdx2, [r8], {120}	; 0x78
   1bed8:	52534620 	subspl	r4, r3, #32, 12	; 0x2000000
   1bedc:	25783020 	ldrbcs	r3, [r8, #-32]!	; 0xffffffe0
   1bee0:	46202c58 			; <UNDEFINED> instruction: 0x46202c58
   1bee4:	30205241 	eorcc	r5, r0, r1, asr #4
   1bee8:	2c582578 	cfldr64cs	mvdx2, [r8], {120}	; 0x78
   1beec:	20505320 	subscs	r5, r0, r0, lsr #6
   1bef0:	58257830 	stmdapl	r5!, {r4, r5, fp, ip, sp, lr}
   1bef4:	524c202c 	subpl	r2, ip, #44	; 0x2c
   1bef8:	25783020 	ldrbcs	r3, [r8, #-32]!	; 0xffffffe0
   1befc:	50202c58 	eorpl	r2, r0, r8, asr ip
   1bf00:	30205253 	eorcc	r5, r0, r3, asr r2
   1bf04:	29582578 	ldmdbcs	r8, {r3, r4, r5, r6, r8, sl, sp}^
   1bf08:	00000000 	andeq	r0, r0, r0
   1bf0c:	69766944 	ldmdbvs	r6!, {r2, r6, r8, fp, sp, lr}^
   1bf10:	6e6f6973 	mcrvs	9, 3, r6, cr15, cr3, {3}
   1bf14:	20796220 	rsbscs	r6, r9, r0, lsr #4
   1bf18:	6f72657a 	svcvs	0x0072657a
   1bf1c:	00000000 	andeq	r0, r0, r0
   1bf20:	65646e55 	strbvs	r6, [r4, #-3669]!	; 0xfffff1ab
   1bf24:	656e6966 	strbvs	r6, [lr, #-2406]!	; 0xfffff69a
   1bf28:	6e692064 	cdpvs	0, 6, cr2, cr9, cr4, {3}
   1bf2c:	75727473 	ldrbvc	r7, [r2, #-1139]!	; 0xfffffb8d
   1bf30:	6f697463 	svcvs	0x00697463
   1bf34:	0000006e 	andeq	r0, r0, lr, rrx
   1bf38:	66657250 			; <UNDEFINED> instruction: 0x66657250
   1bf3c:	68637465 	stmdavs	r3!, {r0, r2, r5, r6, sl, ip, sp, lr}^
   1bf40:	6f626120 	svcvs	0x00626120
   1bf44:	00007472 	andeq	r7, r0, r2, ror r4
   1bf48:	61746144 	cmnvs	r4, r4, asr #2
   1bf4c:	6f626120 	svcvs	0x00626120
   1bf50:	00007472 	andeq	r7, r0, r2, ror r4
   1bf54:	666d6362 	strbtvs	r6, [sp], -r2, ror #6
   1bf58:	656d6172 	strbvs	r6, [sp, #-370]!	; 0xfffffe8e
   1bf5c:	66667562 	strbtvs	r7, [r6], -r2, ror #10
   1bf60:	632e7265 	teqvs	lr, #1342177286	; 0x50000006
   1bf64:	00000000 	andeq	r0, r0, r0
   1bf68:	706d6362 	rsbvc	r6, sp, r2, ror #6
   1bf6c:	65706f72 	ldrbvs	r6, [r0, #-3954]!	; 0xfffff08e
   1bf70:	74797472 	ldrbtvc	r7, [r9], #-1138	; 0xfffffb8e
   1bf74:	2e736761 	cdpcs	7, 7, cr6, cr3, cr1, {3}
   1bf78:	00000063 	andeq	r0, r0, r3, rrx
   1bf7c:	67615470 			; <UNDEFINED> instruction: 0x67615470
   1bf80:	203d2120 	eorscs	r2, sp, r0, lsr #2
   1bf84:	00000030 	andeq	r0, r0, r0, lsr r0
   1bf88:	6761546e 	strbvs	r5, [r1, -lr, ror #8]!
   1bf8c:	657a6953 	ldrbvs	r6, [sl, #-2387]!	; 0xfffff6ad
   1bf90:	203d3e20 	eorscs	r3, sp, r0, lsr #28
   1bf94:	657a6973 	ldrbvs	r6, [sl, #-2419]!	; 0xfffff68d
   1bf98:	2820666f 	stmdacs	r0!, {r0, r1, r2, r3, r5, r6, r9, sl, sp, lr}
   1bf9c:	6f725054 	svcvs	0x00725054
   1bfa0:	74726570 	ldrbtvc	r6, [r2], #-1392	; 0xfffffa90
   1bfa4:	67615479 			; <UNDEFINED> instruction: 0x67615479
   1bfa8:	706d6953 	rsbvc	r6, sp, r3, asr r9
   1bfac:	0029656c 	eoreq	r6, r9, ip, ror #10
   1bfb0:	75426e28 	strbvc	r6, [r2, #-3624]	; 0xfffff1d8
   1bfb4:	72656666 	rsbvc	r6, r5, #106954752	; 0x6600000
   1bfb8:	657a6953 	ldrbvs	r6, [sl, #-2387]!	; 0xfffff6ad
   1bfbc:	33202620 	teqcc	r0, #32, 12	; 0x2000000
   1bfc0:	3d3d2029 	ldccc	0, cr2, [sp, #-164]!	; 0xffffff5c
   1bfc4:	00003020 	andeq	r3, r0, r0, lsr #32

0001bfc8 <font_data>:
   1bfc8:	18180000 	ldmdane	r8, {}	; <UNPREDICTABLE>
   1bfcc:	18181818 	ldmdane	r8, {r3, r4, fp, ip}
   1bfd0:	00181800 	andseq	r1, r8, r0, lsl #16
   1bfd4:	63000000 	movwvs	r0, #0
   1bfd8:	00226363 	eoreq	r6, r2, r3, ror #6
	...
   1bfe4:	36000000 	strcc	r0, [r0], -r0
   1bfe8:	7f367f36 	svcvc	0x00367f36
   1bfec:	00003636 	andeq	r3, r0, r6, lsr r6
   1bff0:	00000000 	andeq	r0, r0, r0
   1bff4:	d8db7e18 	ldmle	fp, {r3, r4, r9, sl, fp, ip, sp, lr}^
   1bff8:	7edb1b7e 	vmovvc.u8	r1, d11[3]
   1bffc:	00000018 	andeq	r0, r0, r8, lsl r0
   1c000:	db7f0000 	blle	1fdc008 <_end+0x1fbef4c>
   1c004:	30180c76 	andscc	r0, r8, r6, ror ip
   1c008:	008edb6e 	addeq	sp, lr, lr, ror #22
   1c00c:	00000000 	andeq	r0, r0, r0
   1c010:	1c36361c 	ldcne	6, cr3, [r6], #-112	; 0xffffff90
   1c014:	66666e3b 			; <UNDEFINED> instruction: 0x66666e3b
   1c018:	0000003b 	andeq	r0, r0, fp, lsr r0
   1c01c:	18181800 	ldmdane	r8, {fp, ip}
   1c020:	00000010 	andeq	r0, r0, r0, lsl r0
	...
   1c02c:	3030180c 	eorscc	r1, r0, ip, lsl #16
   1c030:	18303030 	ldmdane	r0!, {r4, r5, ip, sp}
   1c034:	0000000c 	andeq	r0, r0, ip
   1c038:	0c180000 	ldceq	0, cr0, [r8], {-0}
   1c03c:	06060606 	streq	r0, [r6], -r6, lsl #12
   1c040:	00180c06 	andseq	r0, r8, r6, lsl #24
   1c044:	00000000 	andeq	r0, r0, r0
   1c048:	18181800 	ldmdane	r8, {fp, ip}
   1c04c:	42663cff 	rsbmi	r3, r6, #65280	; 0xff00
   1c050:	00000000 	andeq	r0, r0, r0
   1c054:	18000000 	stmdane	r0, {}	; <UNPREDICTABLE>
   1c058:	18ff1818 	ldmne	pc!, {r3, r4, fp, ip}^	; <UNPREDICTABLE>
   1c05c:	00001818 	andeq	r1, r0, r8, lsl r8
	...
   1c068:	38000000 	stmdacc	r0, {}	; <UNPREDICTABLE>
   1c06c:	00301838 	eorseq	r1, r0, r8, lsr r8
   1c070:	00000000 	andeq	r0, r0, r0
   1c074:	007f0000 	rsbseq	r0, pc, r0
	...
   1c084:	38000000 	stmdacc	r0, {}	; <UNPREDICTABLE>
   1c088:	00000038 	andeq	r0, r0, r8, lsr r0
   1c08c:	03010000 	movweq	r0, #4096	; 0x1000
   1c090:	30180c06 	andscc	r0, r8, r6, lsl #24
   1c094:	0080c060 	addeq	ip, r0, r0, rrx
   1c098:	00000000 	andeq	r0, r0, r0
   1c09c:	6363361c 	cmnvs	r3, #28, 12	; 0x1c00000
   1c0a0:	36636363 	strbtcc	r6, [r3], -r3, ror #6
   1c0a4:	0000001c 	andeq	r0, r0, ip, lsl r0
   1c0a8:	1c0c0000 	stcne	0, cr0, [ip], {-0}
   1c0ac:	0c0c0c3c 	stceq	12, cr0, [ip], {60}	; 0x3c
   1c0b0:	003f0c0c 	eorseq	r0, pc, ip, lsl #24
   1c0b4:	00000000 	andeq	r0, r0, r0
   1c0b8:	0603633e 			; <UNDEFINED> instruction: 0x0603633e
   1c0bc:	6330180c 	teqvs	r0, #12, 16	; 0xc0000
   1c0c0:	0000007f 	andeq	r0, r0, pc, ror r0
   1c0c4:	633e0000 	teqvs	lr, #0
   1c0c8:	031e0303 	tsteq	lr, #201326592	; 0xc000000
   1c0cc:	003e6303 	eorseq	r6, lr, r3, lsl #6
   1c0d0:	00000000 	andeq	r0, r0, r0
   1c0d4:	361e0e06 	ldrcc	r0, [lr], -r6, lsl #28
   1c0d8:	06067f66 	streq	r7, [r6], -r6, ror #30
   1c0dc:	0000000f 	andeq	r0, r0, pc
   1c0e0:	607f0000 	rsbsvs	r0, pc, r0
   1c0e4:	037e6060 	cmneq	lr, #96	; 0x60
   1c0e8:	003e6303 	eorseq	r6, lr, r3, lsl #6
   1c0ec:	00000000 	andeq	r0, r0, r0
   1c0f0:	6060301c 	rsbvs	r3, r0, ip, lsl r0
   1c0f4:	6363637e 	cmnvs	r3, #-134217727	; 0xf8000001
   1c0f8:	0000003e 	andeq	r0, r0, lr, lsr r0
   1c0fc:	637f0000 	cmnvs	pc, #0
   1c100:	180c0603 	stmdane	ip, {r0, r1, r9, sl}
   1c104:	00181818 	andseq	r1, r8, r8, lsl r8
   1c108:	00000000 	andeq	r0, r0, r0
   1c10c:	6363633e 	cmnvs	r3, #-134217728	; 0xf8000000
   1c110:	6363633e 	cmnvs	r3, #-134217728	; 0xf8000000
   1c114:	0000003e 	andeq	r0, r0, lr, lsr r0
   1c118:	633e0000 	teqvs	lr, #0
   1c11c:	033f6363 	teqeq	pc, #-1946157055	; 0x8c000001
   1c120:	003c0603 	eorseq	r0, ip, r3, lsl #12
   1c124:	00000000 	andeq	r0, r0, r0
   1c128:	38380000 	ldmdacc	r8!, {}	; <UNPREDICTABLE>
   1c12c:	38380000 	ldmdacc	r8!, {}	; <UNPREDICTABLE>
	...
   1c138:	00383800 	eorseq	r3, r8, r0, lsl #16
   1c13c:	18383800 	ldmdane	r8!, {fp, ip, sp}
   1c140:	00000030 	andeq	r0, r0, r0, lsr r0
   1c144:	30180c06 	andscc	r0, r8, r6, lsl #24
   1c148:	0c183060 	ldceq	0, cr3, [r8], {96}	; 0x60
   1c14c:	00000006 	andeq	r0, r0, r6
   1c150:	00000000 	andeq	r0, r0, r0
   1c154:	7f007f00 	svcvc	0x00007f00
	...
   1c160:	0c183060 	ldceq	0, cr3, [r8], {96}	; 0x60
   1c164:	30180c06 	andscc	r0, r8, r6, lsl #24
   1c168:	00000060 	andeq	r0, r0, r0, rrx
   1c16c:	633e0000 	teqvs	lr, #0
   1c170:	0c0c0663 	stceq	6, cr0, [ip], {99}	; 0x63
   1c174:	000c0c00 	andeq	r0, ip, r0, lsl #24
   1c178:	00000000 	andeq	r0, r0, r0
   1c17c:	03c3c37e 	biceq	ip, r3, #-134217727	; 0xf8000001
   1c180:	dbdbdb73 	blle	ff712f54 <_end+0xff6f5e98>
   1c184:	0000006e 	andeq	r0, r0, lr, rrx
   1c188:	1c080000 	stcne	0, cr0, [r8], {-0}
   1c18c:	7f636336 	svcvc	0x00636336
   1c190:	00636363 	rsbeq	r6, r3, r3, ror #6
   1c194:	00000000 	andeq	r0, r0, r0
   1c198:	636363fe 	cmnvs	r3, #-134217725	; 0xf8000003
   1c19c:	6363637e 	cmnvs	r3, #-134217727	; 0xf8000001
   1c1a0:	000000fe 	strdeq	r0, [r0], -lr
   1c1a4:	331e0000 	tstcc	lr, #0
   1c1a8:	60606061 	rsbvs	r6, r0, r1, rrx
   1c1ac:	001e3361 	andseq	r3, lr, r1, ror #6
   1c1b0:	00000000 	andeq	r0, r0, r0
   1c1b4:	636366fc 	cmnvs	r3, #252, 12	; 0xfc00000
   1c1b8:	66636363 	strbtvs	r6, [r3], -r3, ror #6
   1c1bc:	000000fc 	strdeq	r0, [r0], -ip
   1c1c0:	63ff0000 	mvnsvs	r0, #0
   1c1c4:	647c6461 	ldrbtvs	r6, [ip], #-1121	; 0xfffffb9f
   1c1c8:	00ff6361 	rscseq	r6, pc, r1, ror #6
   1c1cc:	00000000 	andeq	r0, r0, r0
   1c1d0:	646163ff 	strbtvs	r6, [r1], #-1023	; 0xfffffc01
   1c1d4:	6060647c 	rsbvs	r6, r0, ip, ror r4
   1c1d8:	000000f8 	strdeq	r0, [r0], -r8
   1c1dc:	331e0000 	tstcc	lr, #0
   1c1e0:	6f606061 	svcvs	0x00606061
   1c1e4:	001d3363 	andseq	r3, sp, r3, ror #6
   1c1e8:	00000000 	andeq	r0, r0, r0
   1c1ec:	63636363 	cmnvs	r3, #-1946157055	; 0x8c000001
   1c1f0:	6363637f 	cmnvs	r3, #-67108863	; 0xfc000001
   1c1f4:	00000063 	andeq	r0, r0, r3, rrx
   1c1f8:	183c0000 	ldmdane	ip!, {}	; <UNPREDICTABLE>
   1c1fc:	18181818 	ldmdane	r8, {r3, r4, fp, ip}
   1c200:	003c1818 	eorseq	r1, ip, r8, lsl r8
   1c204:	00000000 	andeq	r0, r0, r0
   1c208:	0606060f 	streq	r0, [r6], -pc, lsl #12
   1c20c:	66660606 	strbtvs	r0, [r6], -r6, lsl #12
   1c210:	0000003c 	andeq	r0, r0, ip, lsr r0
   1c214:	66e70000 	strbtvs	r0, [r7], r0
   1c218:	6c786c6c 	ldclvs	12, cr6, [r8], #-432	; 0xfffffe50
   1c21c:	00e7666c 	rsceq	r6, r7, ip, ror #12
   1c220:	00000000 	andeq	r0, r0, r0
   1c224:	606060f8 	strdvs	r6, [r0], #-8	; <UNPREDICTABLE>
   1c228:	63616060 	cmnvs	r1, #96	; 0x60
   1c22c:	000000ff 	strdeq	r0, [r0], -pc	; <UNPREDICTABLE>
   1c230:	c3810000 	orrgt	r0, r1, #0
   1c234:	c3dbffe7 	bicsgt	pc, fp, #924	; 0x39c
   1c238:	00c3c3c3 	sbceq	ip, r3, r3, asr #7
   1c23c:	00000000 	andeq	r0, r0, r0
   1c240:	7b7363c3 	blvc	1cf5154 <_end+0x1cd8098>
   1c244:	6363676f 	cmnvs	r3, #29097984	; 0x1bc0000
   1c248:	000000e3 	andeq	r0, r0, r3, ror #1
   1c24c:	633e0000 	teqvs	lr, #0
   1c250:	63636363 	cmnvs	r3, #-1946157055	; 0x8c000001
   1c254:	003e6363 	eorseq	r6, lr, r3, ror #6
   1c258:	00000000 	andeq	r0, r0, r0
   1c25c:	636363fe 	cmnvs	r3, #-134217725	; 0xf8000003
   1c260:	6060607e 	rsbvs	r6, r0, lr, ror r0
   1c264:	000000f8 	strdeq	r0, [r0], -r8
   1c268:	c37e0000 	cmngt	lr, #0
   1c26c:	c3c3c3c3 	bicgt	ip, r3, #201326595	; 0xc000003
   1c270:	067ecfdb 			; <UNDEFINED> instruction: 0x067ecfdb
   1c274:	00000003 	andeq	r0, r0, r3
   1c278:	636363fe 	cmnvs	r3, #-134217725	; 0xf8000003
   1c27c:	66666c7e 			; <UNDEFINED> instruction: 0x66666c7e
   1c280:	000000e7 	andeq	r0, r0, r7, ror #1
   1c284:	633e0000 	teqvs	lr, #0
   1c288:	061c3063 	ldreq	r3, [ip], -r3, rrx
   1c28c:	003e6363 	eorseq	r6, lr, r3, ror #6
   1c290:	00000000 	andeq	r0, r0, r0
   1c294:	1899dbff 	ldmne	r9, {r0, r1, r2, r3, r4, r5, r6, r7, r8, r9, fp, ip, lr, pc}
   1c298:	18181818 	ldmdane	r8, {r3, r4, fp, ip}
   1c29c:	0000003c 	andeq	r0, r0, ip, lsr r0
   1c2a0:	63630000 	cmnvs	r3, #0
   1c2a4:	63636363 	cmnvs	r3, #-1946157055	; 0x8c000001
   1c2a8:	003e6363 	eorseq	r6, lr, r3, ror #6
   1c2ac:	00000000 	andeq	r0, r0, r0
   1c2b0:	c3c3c3c3 	bicgt	ip, r3, #201326595	; 0xc000003
   1c2b4:	3c66c3c3 	stclcc	3, cr12, [r6], #-780	; 0xfffffcf4
   1c2b8:	00000018 	andeq	r0, r0, r8, lsl r0
   1c2bc:	c3c30000 	bicgt	r0, r3, #0
   1c2c0:	dbdbc3c3 	blle	ff70d1d4 <_end+0xff6f0118>
   1c2c4:	006666ff 	strdeq	r6, [r6], #-111	; 0xffffff91	; <UNPREDICTABLE>
   1c2c8:	00000000 	andeq	r0, r0, r0
   1c2cc:	3c66c3c3 	stclcc	3, cr12, [r6], #-780	; 0xfffffcf4
   1c2d0:	c3663c18 	cmngt	r6, #24, 24	; 0x1800
   1c2d4:	000000c3 	andeq	r0, r0, r3, asr #1
   1c2d8:	c3c30000 	bicgt	r0, r3, #0
   1c2dc:	183c66c3 	ldmdane	ip!, {r0, r1, r6, r7, r9, sl, sp, lr}
   1c2e0:	003c1818 	eorseq	r1, ip, r8, lsl r8
   1c2e4:	00000000 	andeq	r0, r0, r0
   1c2e8:	0c86c3ff 	stceq	3, cr12, [r6], {255}	; 0xff
   1c2ec:	c3613018 	cmngt	r1, #24
   1c2f0:	000000ff 	strdeq	r0, [r0], -pc	; <UNPREDICTABLE>
   1c2f4:	303c0000 	eorscc	r0, ip, r0
   1c2f8:	30303030 	eorscc	r3, r0, r0, lsr r0
   1c2fc:	003c3030 	eorseq	r3, ip, r0, lsr r0
   1c300:	00000000 	andeq	r0, r0, r0
   1c304:	3060c080 	rsbcc	ip, r0, r0, lsl #1
   1c308:	03060c18 	movweq	r0, #27672	; 0x6c18
   1c30c:	00000001 	andeq	r0, r0, r1
   1c310:	0c3c0000 	ldceq	0, cr0, [ip], #-0
   1c314:	0c0c0c0c 	stceq	12, cr0, [ip], {12}
   1c318:	003c0c0c 	eorseq	r0, ip, ip, lsl #24
   1c31c:	00000000 	andeq	r0, r0, r0
   1c320:	1c080000 	stcne	0, cr0, [r8], {-0}
   1c324:	00416336 	subeq	r6, r1, r6, lsr r3
	...
   1c338:	180000ff 	stmdane	r0, {r0, r1, r2, r3, r4, r5, r6, r7}
   1c33c:	00081818 	andeq	r1, r8, r8, lsl r8
	...
   1c34c:	3e063c00 	cdpcc	12, 0, cr3, cr6, cr0, {0}
   1c350:	003b6666 	eorseq	r6, fp, r6, ror #12
   1c354:	00000000 	andeq	r0, r0, r0
   1c358:	6e6060e0 	cdpvs	0, 6, cr6, cr0, cr0, {7}
   1c35c:	73636373 	cmnvc	r3, #-872415231	; 0xcc000001
   1c360:	000000de 	ldrdeq	r0, [r0], -lr
   1c364:	00000000 	andeq	r0, r0, r0
   1c368:	60633e00 	rsbvs	r3, r3, r0, lsl #28
   1c36c:	003e6360 	eorseq	r6, lr, r0, ror #6
   1c370:	00000000 	andeq	r0, r0, r0
   1c374:	7606060e 	strvc	r0, [r6], -lr, lsl #12
   1c378:	cec6c6ce 	cdpgt	6, 12, cr12, cr6, cr14, {6}
   1c37c:	0000007b 	andeq	r0, r0, fp, ror r0
   1c380:	00000000 	andeq	r0, r0, r0
   1c384:	7f633e00 	svcvc	0x00633e00
   1c388:	003e6360 	eorseq	r6, lr, r0, ror #6
   1c38c:	00000000 	andeq	r0, r0, r0
   1c390:	3032361c 	eorscc	r3, r2, ip, lsl r6
   1c394:	3030307c 	eorscc	r3, r0, ip, ror r0
   1c398:	00000078 	andeq	r0, r0, r8, ror r0
   1c39c:	00000000 	andeq	r0, r0, r0
   1c3a0:	66663b00 	strbtvs	r3, [r6], -r0, lsl #22
   1c3a4:	06366e66 	ldrteq	r6, [r6], -r6, ror #28
   1c3a8:	0000003c 	andeq	r0, r0, ip, lsr r0
   1c3ac:	6c6060e0 	stclvs	0, cr6, [r0], #-896	; 0xfffffc80
   1c3b0:	66666676 			; <UNDEFINED> instruction: 0x66666676
   1c3b4:	000000e7 	andeq	r0, r0, r7, ror #1
   1c3b8:	18180000 	ldmdane	r8, {}	; <UNPREDICTABLE>
   1c3bc:	18183800 	ldmdane	r8, {fp, ip, sp}
   1c3c0:	003c1818 	eorseq	r1, ip, r8, lsl r8
   1c3c4:	00000000 	andeq	r0, r0, r0
   1c3c8:	0e000606 	cfmadd32eq	mvax0, mvfx0, mvfx0, mvfx6
   1c3cc:	06060606 	streq	r0, [r6], -r6, lsl #12
   1c3d0:	003c6666 	eorseq	r6, ip, r6, ror #12
   1c3d4:	60e00000 	rscvs	r0, r0, r0
   1c3d8:	786c6760 	stmdavc	ip!, {r5, r6, r8, r9, sl, sp, lr}^
   1c3dc:	00e7666c 	rsceq	r6, r7, ip, ror #12
   1c3e0:	00000000 	andeq	r0, r0, r0
   1c3e4:	18181838 	ldmdane	r8, {r3, r4, r5, fp, ip}
   1c3e8:	18181818 	ldmdane	r8, {r3, r4, fp, ip}
   1c3ec:	0000003c 	andeq	r0, r0, ip, lsr r0
   1c3f0:	00000000 	andeq	r0, r0, r0
   1c3f4:	dbffb600 	blle	9bfc <DWHCIDeviceTimerHandler+0xa8>
   1c3f8:	00dbdbdb 	ldrsbeq	sp, [fp], #187	; 0xbb
   1c3fc:	00000000 	andeq	r0, r0, r0
   1c400:	dc000000 	stcle	0, cr0, [r0], {-0}
   1c404:	66666666 	strbtvs	r6, [r6], -r6, ror #12
   1c408:	000000e7 	andeq	r0, r0, r7, ror #1
   1c40c:	00000000 	andeq	r0, r0, r0
   1c410:	63633e00 	cmnvs	r3, #0, 28
   1c414:	003e6363 	eorseq	r6, lr, r3, ror #6
   1c418:	00000000 	andeq	r0, r0, r0
   1c41c:	de000000 	cdple	0, 0, cr0, cr0, cr0, {0}
   1c420:	73636373 	cmnvc	r3, #-872415231	; 0xcc000001
   1c424:	00f0606e 	rscseq	r6, r0, lr, rrx
   1c428:	00000000 	andeq	r0, r0, r0
   1c42c:	66663b00 	strbtvs	r3, [r6], -r0, lsl #22
   1c430:	06366e66 	ldrteq	r6, [r6], -r6, ror #28
   1c434:	0000000f 	andeq	r0, r0, pc
   1c438:	6e000000 	cdpvs	0, 0, cr0, cr0, cr0, {0}
   1c43c:	3030333b 	eorscc	r3, r0, fp, lsr r3
   1c440:	00000078 	andeq	r0, r0, r8, ror r0
   1c444:	00000000 	andeq	r0, r0, r0
   1c448:	38633e00 	stmdacc	r3!, {r9, sl, fp, ip, sp}^
   1c44c:	003e630e 	eorseq	r6, lr, lr, lsl #6
   1c450:	00000000 	andeq	r0, r0, r0
   1c454:	7e181808 	cdpvc	8, 1, cr1, cr8, cr8, {0}
   1c458:	1b181818 	blne	6224c0 <_end+0x605404>
   1c45c:	0000000e 	andeq	r0, r0, lr
   1c460:	00000000 	andeq	r0, r0, r0
   1c464:	66666600 	strbtvs	r6, [r6], -r0, lsl #12
   1c468:	003b6666 	eorseq	r6, fp, r6, ror #12
   1c46c:	00000000 	andeq	r0, r0, r0
   1c470:	c3000000 	movwgt	r0, #0
   1c474:	3c66c3c3 	stclcc	3, cr12, [r6], #-780	; 0xfffffcf4
   1c478:	00000018 	andeq	r0, r0, r8, lsl r0
   1c47c:	00000000 	andeq	r0, r0, r0
   1c480:	dbc3c300 	blle	ff10d088 <_end+0xff0effcc>
   1c484:	0066ffdb 	ldrdeq	pc, [r6], #-251	; 0xffffff05	; <UNPREDICTABLE>
   1c488:	00000000 	andeq	r0, r0, r0
   1c48c:	63000000 	movwvs	r0, #0
   1c490:	361c1c36 			; <UNDEFINED> instruction: 0x361c1c36
   1c494:	00000063 	andeq	r0, r0, r3, rrx
   1c498:	00000000 	andeq	r0, r0, r0
   1c49c:	63636300 	cmnvs	r3, #0, 6
   1c4a0:	063b6763 	ldrteq	r6, [fp], -r3, ror #14
   1c4a4:	0000003c 	andeq	r0, r0, ip, lsr r0
   1c4a8:	7f000000 	svcvc	0x00000000
   1c4ac:	33180c66 	tstcc	r8, #26112	; 0x6600
   1c4b0:	0000007f 	andeq	r0, r0, pc, ror r0
   1c4b4:	180e0000 	stmdane	lr, {}	; <UNPREDICTABLE>
   1c4b8:	18701818 	ldmdane	r0!, {r3, r4, fp, ip}^
   1c4bc:	000e1818 	andeq	r1, lr, r8, lsl r8
   1c4c0:	00000000 	andeq	r0, r0, r0
   1c4c4:	18181818 	ldmdane	r8, {r3, r4, fp, ip}
   1c4c8:	18181800 	ldmdane	r8, {fp, ip}
   1c4cc:	00000018 	andeq	r0, r0, r8, lsl r0
   1c4d0:	18700000 	ldmdane	r0!, {}^	; <UNPREDICTABLE>
   1c4d4:	180e1818 	stmdane	lr, {r3, r4, fp, ip}
   1c4d8:	00701818 	rsbseq	r1, r0, r8, lsl r8
   1c4dc:	00000000 	andeq	r0, r0, r0
   1c4e0:	70000000 	andvc	r0, r0, r0
   1c4e4:	00000edb 	ldrdeq	r0, [r0], -fp
   1c4e8:	00000000 	andeq	r0, r0, r0
   1c4ec:	72616863 	rsbvc	r6, r1, #6488064	; 0x630000
   1c4f0:	656e6567 	strbvs	r6, [lr, #-1383]!	; 0xfffffa99
   1c4f4:	6f746172 	svcvs	0x00746172
   1c4f8:	00632e72 	rsbeq	r2, r3, r2, ror lr
   1c4fc:	646e496e 	strbtvs	r4, [lr], #-2414	; 0xfffff692
   1c500:	3c207865 	stccc	8, cr7, [r0], #-404	; 0xfffffe6c
   1c504:	41484320 	cmpmi	r8, r0, lsr #6
   1c508:	554f4352 	strbpl	r4, [pc, #-850]	; 1c1be <font_data+0x1f6>
   1c50c:	0000544e 	andeq	r5, r0, lr, asr #8
   1c510:	736f506e 	cmnvc	pc, #110	; 0x6e
   1c514:	203c2058 	eorscs	r2, ip, r8, asr r0
   1c518:	69685470 	stmdbvs	r8!, {r4, r5, r6, sl, ip, lr}^
   1c51c:	6d3e2d73 	ldcvs	13, cr2, [lr, #-460]!	; 0xfffffe34
   1c520:	68436e5f 	stmdavs	r3, {r0, r1, r2, r3, r4, r6, r9, sl, fp, sp, lr}^
   1c524:	69577261 	ldmdbvs	r7, {r0, r5, r6, r9, ip, sp, lr}^
   1c528:	00687464 	rsbeq	r7, r8, r4, ror #8
   1c52c:	65746e69 	ldrbvs	r6, [r4, #-3689]!	; 0xfffff197
   1c530:	70757272 	rsbsvc	r7, r5, r2, ror r2
   1c534:	00632e74 	rsbeq	r2, r3, r4, ror lr
   1c538:	5152496e 	cmppl	r2, lr, ror #18
   1c53c:	49203c20 	stmdbmi	r0!, {r5, sl, fp, ip, sp}
   1c540:	4c5f5152 	ldfmie	f5, [pc], {82}	; 0x52
   1c544:	53454e49 	movtpl	r4, #24137	; 0x5e49
   1c548:	00000000 	andeq	r0, r0, r0
   1c54c:	69685470 	stmdbvs	r8!, {r4, r5, r6, sl, ip, lr}^
   1c550:	6d3e2d73 	ldcvs	13, cr2, [lr, #-460]!	; 0xfffffe34
   1c554:	4970615f 	ldmdbmi	r0!, {r0, r1, r2, r3, r4, r6, r8, sp, lr}^
   1c558:	61485152 	cmpvs	r8, r2, asr r1
   1c55c:	656c646e 	strbvs	r6, [ip, #-1134]!	; 0xfffffb92
   1c560:	496e5b72 	stmdbmi	lr!, {r1, r4, r5, r6, r8, r9, fp, ip, lr}^
   1c564:	205d5152 	subscs	r5, sp, r2, asr r1
   1c568:	30203d3d 	eorcc	r3, r0, sp, lsr sp
   1c56c:	00000000 	andeq	r0, r0, r0
   1c570:	69685470 	stmdbvs	r8!, {r4, r5, r6, sl, ip, lr}^
   1c574:	6d3e2d73 	ldcvs	13, cr2, [lr, #-460]!	; 0xfffffe34
   1c578:	4970615f 	ldmdbmi	r0!, {r0, r1, r2, r3, r4, r6, r8, sp, lr}^
   1c57c:	61485152 	cmpvs	r8, r2, asr r1
   1c580:	656c646e 	strbvs	r6, [ip, #-1134]!	; 0xfffffb92
   1c584:	496e5b72 	stmdbmi	lr!, {r1, r4, r5, r6, r8, r9, fp, ip, lr}^
   1c588:	205d5152 	subscs	r5, sp, r2, asr r1
   1c58c:	30203d21 	eorcc	r3, r0, r1, lsr #26
   1c590:	00000000 	andeq	r0, r0, r0
   1c594:	6d6d6362 	stclvs	3, cr6, [sp, #-392]!	; 0xfffffe78
   1c598:	626c6961 	rsbvs	r6, ip, #1589248	; 0x184000
   1c59c:	632e786f 	teqvs	lr, #7274496	; 0x6f0000
   1c5a0:	00000000 	andeq	r0, r0, r0
   1c5a4:	61446e28 	cmpvs	r4, r8, lsr #28
   1c5a8:	26206174 			; <UNDEFINED> instruction: 0x26206174
   1c5ac:	46783020 	ldrbtmi	r3, [r8], -r0, lsr #32
   1c5b0:	3d3d2029 	ldccc	0, cr2, [sp, #-164]!	; 0xffffff5c
   1c5b4:	00003020 	andeq	r3, r0, r0, lsr #32

Disassembly of section .data:

0001c5b8 <s_ucNextAddress>:
   1c5b8:	00000001 	andeq	r0, r0, r1

0001c5bc <s_nDeviceNumber>:
   1c5bc:	00000001 	andeq	r0, r0, r1

0001c5c0 <s_nDeviceNumber>:
   1c5c0:	00000001 	andeq	r0, r0, r1

0001c5c4 <s_nDeviceNumber>:
   1c5c4:	00000001 	andeq	r0, r0, r1

0001c5c8 <s_nDeviceNumber>:
   1c5c8:	00000001 	andeq	r0, r0, r1

0001c5cc <writeBuf.4597>:
	...
   1c5d4:	27ff0000 	ldrbcs	r0, [pc, r0]!
   1c5d8:	ff320010 			; <UNDEFINED> instruction: 0xff320010
   1c5dc:	32001027 	andcc	r1, r0, #39	; 0x27
   1c5e0:	001027ff 			; <UNDEFINED> instruction: 0x001027ff
   1c5e4:	1027ff32 	eorne	pc, r7, r2, lsr pc	; <UNPREDICTABLE>
   1c5e8:	00003200 	andeq	r3, r0, r0, lsl #4
	...

0001c5fc <s_BlockBucket>:
   1c5fc:	00000040 	andeq	r0, r0, r0, asr #32
   1c600:	00000000 	andeq	r0, r0, r0
   1c604:	00000400 	andeq	r0, r0, r0, lsl #8
   1c608:	00000000 	andeq	r0, r0, r0
   1c60c:	00001000 	andeq	r1, r0, r0
   1c610:	00000000 	andeq	r0, r0, r0
   1c614:	00004000 	andeq	r4, r0, r0
   1c618:	00000000 	andeq	r0, r0, r0
   1c61c:	00040000 	andeq	r0, r4, r0
   1c620:	00000000 	andeq	r0, r0, r0
   1c624:	00080000 	andeq	r0, r8, r0
	...

Disassembly of section .bss:

0001c634 <len>:
   1c634:	00000000 	andeq	r0, r0, r0

0001c638 <s_pLibrary>:
   1c638:	00000000 	andeq	r0, r0, r0

0001c63c <s_pThis>:
   1c63c:	00000000 	andeq	r0, r0, r0

0001c640 <s_nDeviceNumber>:
   1c640:	00000000 	andeq	r0, r0, r0

0001c644 <s_nCriticalLevel>:
   1c644:	00000000 	andeq	r0, r0, r0

0001c648 <s_bWereEnabled>:
   1c648:	00000000 	andeq	r0, r0, r0

0001c64c <s_pNextBlock>:
   1c64c:	00000000 	andeq	r0, r0, r0

0001c650 <s_pBlockLimit>:
   1c650:	00000000 	andeq	r0, r0, r0

0001c654 <s_pNextPage>:
   1c654:	00000000 	andeq	r0, r0, r0

0001c658 <s_pPageLimit>:
   1c658:	00000000 	andeq	r0, r0, r0

0001c65c <s_PageBucket>:
   1c65c:	00000000 	andeq	r0, r0, r0

0001c660 <s_pThis>:
   1c660:	00000000 	andeq	r0, r0, r0

0001c664 <s_nCriticalLevel>:
   1c664:	00000000 	andeq	r0, r0, r0

0001c668 <s_bWereEnabled>:
   1c668:	00000000 	andeq	r0, r0, r0

0001c66c <s_pThis>:
   1c66c:	00000000 	andeq	r0, r0, r0

0001c670 <s_Env>:
	...

0001ca68 <s_pThis>:
   1ca68:	00000000 	andeq	r0, r0, r0

0001ca6c <s_pThis>:
   1ca6c:	00000000 	andeq	r0, r0, r0

0001ca70 <dat>:
   1ca70:	00000000 	andeq	r0, r0, r0

0001ca74 <data>:
	...

0001ca7c <Buffer>:
	...

Disassembly of section .ARM.attributes:

00000000 <.ARM.attributes>:
   0:	00003441 	andeq	r3, r0, r1, asr #8
   4:	61656100 	cmnvs	r5, r0, lsl #2
   8:	01006962 	tsteq	r0, r2, ror #18
   c:	0000002a 	andeq	r0, r0, sl, lsr #32
  10:	412d3805 	teqmi	sp, r5, lsl #16
  14:	070e0600 	streq	r0, [lr, -r0, lsl #12]
  18:	09010841 	stmdbeq	r1, {r0, r6, fp}
  1c:	12020a02 	andne	r0, r2, #8192	; 0x2000
  20:	15011404 	strne	r1, [r1, #-1028]	; 0xfffffbfc
  24:	18031701 	stmdane	r3, {r0, r8, r9, sl, ip}
  28:	1b021a01 	blne	86834 <_end+0x69778>
  2c:	22011c03 	andcs	r1, r1, #768	; 0x300
  30:	44012a01 	strmi	r2, [r1], #-2561	; 0xfffff5ff
  34:	Address 0x00000034 is out of bounds.


Disassembly of section .comment:

00000000 <.comment>:
   0:	3a434347 	bcc	10d0d24 <_end+0x10b3c68>
   4:	61522820 	cmpvs	r2, r0, lsr #16
   8:	69627073 	stmdbvs	r2!, {r0, r1, r4, r5, r6, ip, sp, lr}^
   c:	34206e61 	strtcc	r6, [r0], #-3681	; 0xfffff19f
  10:	322e392e 	eorcc	r3, lr, #753664	; 0xb8000
  14:	2930312d 	ldmdbcs	r0!, {r0, r2, r3, r5, r8, ip, sp}
  18:	392e3420 	stmdbcc	lr!, {r5, sl, ip, sp}
  1c:	Address 0x0000001c is out of bounds.

